SF:/home/mriise/Projects/ref-fvm/fvm/src/account_actor.rs
FN:29,_RNvNtCs2gD7la8YEGu_3fvm13account_actor10zero_state
FN:23,_RINvXs0_NtCs2gD7la8YEGu_3fvm13account_actorNtB6_5StateNtNtCsj3WkLEH4Ge0_5serde2de11Deserialize11deserializepEB8_
FN:23,_RINvXNvNvXs_NtCs2gD7la8YEGu_3fvm13account_actorNtBa_5StateNtNtCsj3WkLEH4Ge0_5serde3ser9Serialize9serialize1__NtB5_5InnerBU_9serializepEBc_
FN:23,_RINvXNvXNvNvXs0_NtCs2gD7la8YEGu_3fvm13account_actorNtBe_5StateNtNtCsj3WkLEH4Ge0_5serde2de11Deserialize11deserialize1__NtB8_5InnerBY_11deserializeNtB3_9___VisitorNtB10_7Visitor20visit_newtype_structpEBg_
FN:23,_RINvXNvXNvNvXs0_NtCs2gD7la8YEGu_3fvm13account_actorNtBe_5StateNtNtCsj3WkLEH4Ge0_5serde2de11Deserialize11deserialize1__NtB8_5InnerBY_11deserializeNtB3_9___VisitorNtB10_7Visitor9visit_seqpEBg_
FN:23,_RNvXNvXNvNvXs0_NtCs2gD7la8YEGu_3fvm13account_actorNtBd_5StateNtNtCsj3WkLEH4Ge0_5serde2de11Deserialize11deserialize1__NtB7_5InnerBX_11deserializeNtB2_9___VisitorNtBZ_7Visitor9expecting
FN:23,_RINvXs_NtCs2gD7la8YEGu_3fvm13account_actorNtB5_5StateNtNtCsj3WkLEH4Ge0_5serde3ser9Serialize9serializepEB7_
FN:23,_RINvXNvNvXs0_NtCs2gD7la8YEGu_3fvm13account_actorNtBb_5StateNtNtCsj3WkLEH4Ge0_5serde2de11Deserialize11deserialize1__NtB5_5InnerBV_11deserializepEBd_
FN:23,_RINvXNvNvXs0_NtCs5xYBAi2tWzh_3fvm13account_actorNtBb_5StateNtNtCsj3WkLEH4Ge0_5serde2de11Deserialize11deserialize1__NtB5_5InnerBV_11deserializepEBd_
FN:23,_RINvXNvXNvNvXs0_NtCs5xYBAi2tWzh_3fvm13account_actorNtBe_5StateNtNtCsj3WkLEH4Ge0_5serde2de11Deserialize11deserialize1__NtB8_5InnerBY_11deserializeNtB3_9___VisitorNtB10_7Visitor20visit_newtype_structpEBg_
FN:23,_RINvXNvXNvNvXs0_NtCs5xYBAi2tWzh_3fvm13account_actorNtBe_5StateNtNtCsj3WkLEH4Ge0_5serde2de11Deserialize11deserialize1__NtB8_5InnerBY_11deserializeNtB3_9___VisitorNtB10_7Visitor9visit_seqpEBg_
FN:23,_RINvXNvNvXs_NtCs5xYBAi2tWzh_3fvm13account_actorNtBa_5StateNtNtCsj3WkLEH4Ge0_5serde3ser9Serialize9serialize1__NtB5_5InnerBU_9serializepEBc_
FN:23,_RINvXs0_NtCs5xYBAi2tWzh_3fvm13account_actorNtB6_5StateNtNtCsj3WkLEH4Ge0_5serde2de11Deserialize11deserializepEB8_
FN:23,_RINvXs_NtCs5xYBAi2tWzh_3fvm13account_actorNtB5_5StateNtNtCsj3WkLEH4Ge0_5serde3ser9Serialize9serializepEB7_
FN:29,_RNvNtCs5xYBAi2tWzh_3fvm13account_actor10zero_state
FN:23,_RNvXNvXNvNvXs0_NtCs5xYBAi2tWzh_3fvm13account_actorNtBd_5StateNtNtCsj3WkLEH4Ge0_5serde2de11Deserialize11deserialize1__NtB7_5InnerBX_11deserializeNtB2_9___VisitorNtBZ_7Visitor9expecting
FNDA:0,_RNvNtCs2gD7la8YEGu_3fvm13account_actor10zero_state
FNDA:0,_RINvXs0_NtCs2gD7la8YEGu_3fvm13account_actorNtB6_5StateNtNtCsj3WkLEH4Ge0_5serde2de11Deserialize11deserializepEB8_
FNDA:0,_RINvXNvNvXs_NtCs2gD7la8YEGu_3fvm13account_actorNtBa_5StateNtNtCsj3WkLEH4Ge0_5serde3ser9Serialize9serialize1__NtB5_5InnerBU_9serializepEBc_
FNDA:0,_RINvXNvXNvNvXs0_NtCs2gD7la8YEGu_3fvm13account_actorNtBe_5StateNtNtCsj3WkLEH4Ge0_5serde2de11Deserialize11deserialize1__NtB8_5InnerBY_11deserializeNtB3_9___VisitorNtB10_7Visitor20visit_newtype_structpEBg_
FNDA:0,_RINvXNvXNvNvXs0_NtCs2gD7la8YEGu_3fvm13account_actorNtBe_5StateNtNtCsj3WkLEH4Ge0_5serde2de11Deserialize11deserialize1__NtB8_5InnerBY_11deserializeNtB3_9___VisitorNtB10_7Visitor9visit_seqpEBg_
FNDA:0,_RNvXNvXNvNvXs0_NtCs2gD7la8YEGu_3fvm13account_actorNtBd_5StateNtNtCsj3WkLEH4Ge0_5serde2de11Deserialize11deserialize1__NtB7_5InnerBX_11deserializeNtB2_9___VisitorNtBZ_7Visitor9expecting
FNDA:0,_RINvXs_NtCs2gD7la8YEGu_3fvm13account_actorNtB5_5StateNtNtCsj3WkLEH4Ge0_5serde3ser9Serialize9serializepEB7_
FNDA:0,_RINvXNvNvXs0_NtCs2gD7la8YEGu_3fvm13account_actorNtBb_5StateNtNtCsj3WkLEH4Ge0_5serde2de11Deserialize11deserialize1__NtB5_5InnerBV_11deserializepEBd_
FNDA:0,_RINvXNvNvXs0_NtCs5xYBAi2tWzh_3fvm13account_actorNtBb_5StateNtNtCsj3WkLEH4Ge0_5serde2de11Deserialize11deserialize1__NtB5_5InnerBV_11deserializepEBd_
FNDA:0,_RINvXNvXNvNvXs0_NtCs5xYBAi2tWzh_3fvm13account_actorNtBe_5StateNtNtCsj3WkLEH4Ge0_5serde2de11Deserialize11deserialize1__NtB8_5InnerBY_11deserializeNtB3_9___VisitorNtB10_7Visitor20visit_newtype_structpEBg_
FNDA:0,_RINvXNvXNvNvXs0_NtCs5xYBAi2tWzh_3fvm13account_actorNtBe_5StateNtNtCsj3WkLEH4Ge0_5serde2de11Deserialize11deserialize1__NtB8_5InnerBY_11deserializeNtB3_9___VisitorNtB10_7Visitor9visit_seqpEBg_
FNDA:0,_RINvXNvNvXs_NtCs5xYBAi2tWzh_3fvm13account_actorNtBa_5StateNtNtCsj3WkLEH4Ge0_5serde3ser9Serialize9serialize1__NtB5_5InnerBU_9serializepEBc_
FNDA:0,_RINvXs0_NtCs5xYBAi2tWzh_3fvm13account_actorNtB6_5StateNtNtCsj3WkLEH4Ge0_5serde2de11Deserialize11deserializepEB8_
FNDA:0,_RINvXs_NtCs5xYBAi2tWzh_3fvm13account_actorNtB5_5StateNtNtCsj3WkLEH4Ge0_5serde3ser9Serialize9serializepEB7_
FNDA:0,_RNvNtCs5xYBAi2tWzh_3fvm13account_actor10zero_state
FNDA:0,_RNvXNvXNvNvXs0_NtCs5xYBAi2tWzh_3fvm13account_actorNtBd_5StateNtNtCsj3WkLEH4Ge0_5serde2de11Deserialize11deserialize1__NtB7_5InnerBX_11deserializeNtB2_9___VisitorNtBZ_7Visitor9expecting
FNF:3
FNH:0
DA:23,0
DA:29,0
DA:30,0
DA:31,0
DA:32,0
DA:33,0
DA:34,0
DA:35,0
DA:36,0
BRF:0
BRH:0
LF:10
LH:0
end_of_record
SF:/home/mriise/Projects/ref-fvm/fvm/src/blockstore/buffered.rs
FN:34,_RNvMNtNtCs2gD7la8YEGu_3fvm10blockstore8bufferedINtB2_18BufferedBlockstorepE10into_innerB6_
FN:320,_RNvXs0_NvXNvNvNtNtNtCs2gD7la8YEGu_3fvm10blockstore8buffered5testss_25buffered_store_with_links1__NtBa_10TestObjectNtNtCsj3WkLEH4Ge0_5serde2de11Deserialize11deserializeNtB5_9___VisitorNtB1Q_7Visitor9expecting
FN:320,_RNvXs_NvNtNtNtCs2gD7la8YEGu_3fvm10blockstore8buffered5testss_25buffered_store_with_linksNtB4_10TestObjectNtNtCslBoGNiFC398_4core3cmp9PartialEq2neBc_
FN:264,_RNCINvXININtNtCs2gD7la8YEGu_3fvm10blockstore8buffereds0_0pEINtB8_18BufferedBlockstorepENtCslbkBntY5hAO_19fvm_ipld_blockstore10Blockstore14put_many_keyedppE0Bc_
FN:320,_RINvXNvXNvNvNtNtNtCs2gD7la8YEGu_3fvm10blockstore8buffered5testss_25buffered_store_with_links1__NtB8_10TestObjectNtNtCsj3WkLEH4Ge0_5serde2de11Deserialize11deserializeNtB3_14___FieldVisitorNtB1O_7Visitor11visit_bytespEBg_
FN:320,_RNvXNvXNvNvNtNtNtCs2gD7la8YEGu_3fvm10blockstore8buffered5testss_25buffered_store_with_links1__NtB7_10TestObjectNtNtCsj3WkLEH4Ge0_5serde2de11Deserialize11deserializeNtB2_14___FieldVisitorNtB1N_7Visitor9expecting
FN:17,_RNvXININtNtCs2gD7la8YEGu_3fvm10blockstore8buffereds1_0pEINtB5_18BufferedBlockstorepENtNtCslBoGNiFC398_4core3fmt5Debug3fmtB9_
FN:320,_RINvXs0_NvXNvNvNtNtNtCs2gD7la8YEGu_3fvm10blockstore8buffered5testss_25buffered_store_with_links1__NtBb_10TestObjectNtNtCsj3WkLEH4Ge0_5serde2de11Deserialize11deserializeNtB6_9___VisitorNtB1R_7Visitor9visit_seqpEBj_
FN:320,_RINvXNvXNvNvNtNtNtCs2gD7la8YEGu_3fvm10blockstore8buffered5testss_25buffered_store_with_links1__NtB8_10TestObjectNtNtCsj3WkLEH4Ge0_5serde2de11Deserialize11deserializeNtB3_14___FieldVisitorNtB1O_7Visitor9visit_u64pEBg_
FN:256,_RINvXININtNtCs2gD7la8YEGu_3fvm10blockstore8buffereds0_0pEINtB6_18BufferedBlockstorepENtCslbkBntY5hAO_19fvm_ipld_blockstore10Blockstore14put_many_keyedppEBa_
FN:248,_RNvXININtNtCs2gD7la8YEGu_3fvm10blockstore8buffereds0_0pEINtB5_18BufferedBlockstorepENtCslbkBntY5hAO_19fvm_ipld_blockstore10Blockstore3hasB9_
FN:320,_RINvXNvNvNtNtNtCs2gD7la8YEGu_3fvm10blockstore8buffered5testss_25buffered_store_with_linkss_1__NtB5_10TestObjectNtNtCsj3WkLEH4Ge0_5serde3ser9Serialize9serializeQINtNtCs7jq4FGjB44s_18serde_ipld_dagcbor3ser10SerializerNtNtNtCshVKh6t4RGJQ_7cbor4ii4core5utils9BufWriterEEBd_
FN:296,_RNCNvNtNtNtCs2gD7la8YEGu_3fvm10blockstore8buffered5tests25buffered_store_with_links0B9_
FN:282,_RNvNtNtNtCs2gD7la8YEGu_3fvm10blockstore8buffered5testss_20basic_buffered_store
FN:320,_RINvXs_NvXNvNvNtNtNtCs2gD7la8YEGu_3fvm10blockstore8buffered5testss_25buffered_store_with_links1__NtBa_10TestObjectNtNtCsj3WkLEH4Ge0_5serde2de11Deserialize11deserializeNtB5_7___FieldB1O_11deserializeQINtNtCs7jq4FGjB44s_18serde_ipld_dagcbor2de12DeserializerNtNtNtCshVKh6t4RGJQ_7cbor4ii4core5utils11SliceReaderEEBi_
FN:320,_RINvXs0_NvXNvNvNtNtNtCs2gD7la8YEGu_3fvm10blockstore8buffered5testss_25buffered_store_with_links1__NtBb_10TestObjectNtNtCsj3WkLEH4Ge0_5serde2de11Deserialize11deserializeNtB6_9___VisitorNtB1R_7Visitor9visit_mapINtNtCs7jq4FGjB44s_18serde_ipld_dagcbor2de8AccessorNtNtNtCshVKh6t4RGJQ_7cbor4ii4core5utils11SliceReaderEEBj_
FN:297,_RNvNtNtNtCs2gD7la8YEGu_3fvm10blockstore8buffered5testss_25buffered_store_with_links
FN:320,_RINvXNvXNvNvNtNtNtCs2gD7la8YEGu_3fvm10blockstore8buffered5testss_25buffered_store_with_links1__NtB8_10TestObjectNtNtCsj3WkLEH4Ge0_5serde2de11Deserialize11deserializeNtB3_14___FieldVisitorNtB1O_7Visitor9visit_strINtNtCs7jq4FGjB44s_18serde_ipld_dagcbor5error11DecodeErrorNtNtCslBoGNiFC398_4core7convert10InfallibleEEBg_
FN:320,_RNvXs2_NvNtNtNtCs2gD7la8YEGu_3fvm10blockstore8buffered5testss_25buffered_store_with_linksNtB5_10TestObjectNtNtCslBoGNiFC398_4core3fmt5Debug3fmt
FN:281,_RNCNvNtNtNtCs2gD7la8YEGu_3fvm10blockstore8buffered5tests20basic_buffered_store0B9_
FN:320,_RINvXNvNvNtNtNtCs2gD7la8YEGu_3fvm10blockstore8buffered5testss_25buffered_store_with_links1__NtB5_10TestObjectNtNtCsj3WkLEH4Ge0_5serde2de11Deserialize11deserializeQINtNtCs7jq4FGjB44s_18serde_ipld_dagcbor2de12DeserializerNtNtNtCshVKh6t4RGJQ_7cbor4ii4core5utils11SliceReaderEEBd_
FN:320,_RNvXs_NvNtNtNtCs2gD7la8YEGu_3fvm10blockstore8buffered5testss_25buffered_store_with_linksNtB4_10TestObjectNtNtCslBoGNiFC398_4core3cmp9PartialEq2eqBc_
FN:65,_RINvNtNtCs2gD7la8YEGu_3fvm10blockstore8buffered20cbor_read_header_bufINtNtNtCsduPDAHU5p59_3std2io6cursor6CursorRINtNtCsc0YPw4IdecV_5alloc3vec3VechEEEB6_
FN:27,_RNvMNtNtCs2gD7la8YEGu_3fvm10blockstore8bufferedINtB2_18BufferedBlockstoreRNtNtCslbkBntY5hAO_19fvm_ipld_blockstore6memory16MemoryBlockstoreE3newB6_
FN:65,_RINvNtNtCs2gD7la8YEGu_3fvm10blockstore8buffered20cbor_read_header_bufINtNtNtCsduPDAHU5p59_3std2io6cursor6CursorRShEEB6_
FN:192,_RNCNvNtNtCs2gD7la8YEGu_3fvm10blockstore8buffered8copy_rec0B7_
FN:46,_RNvXs_NtNtCs2gD7la8YEGu_3fvm10blockstore8bufferedINtB4_18BufferedBlockstoreRNtNtCslbkBntY5hAO_19fvm_ipld_blockstore6memory16MemoryBlockstoreENtB1g_8Buffered5flushB8_
FN:167,_RNvNtNtCs2gD7la8YEGu_3fvm10blockstore8buffered8copy_rec
FN:27,_RNvMNtNtCs2gD7la8YEGu_3fvm10blockstore8bufferedINtB2_18BufferedBlockstoreNtNtCslbkBntY5hAO_19fvm_ipld_blockstore6memory16MemoryBlockstoreE3newB6_
FN:235,_RNvXs0_NtNtCs2gD7la8YEGu_3fvm10blockstore8bufferedINtB5_18BufferedBlockstoreRNtNtCslbkBntY5hAO_19fvm_ipld_blockstore6memory16MemoryBlockstoreENtB1h_10Blockstore3getB9_
FN:115,_RINvNtNtCs2gD7la8YEGu_3fvm10blockstore8buffered14scan_for_linksINtNtNtCsduPDAHU5p59_3std2io6cursor6CursorRINtNtCsc0YPw4IdecV_5alloc3vec3VechEENCNvB2_8copy_recs_0EB6_
FN:243,_RNvXs0_NtNtCs2gD7la8YEGu_3fvm10blockstore8bufferedINtB5_18BufferedBlockstoreRNtNtCslbkBntY5hAO_19fvm_ipld_blockstore6memory16MemoryBlockstoreENtB1h_10Blockstore9put_keyedB9_
FN:235,_RNvXs0_NtNtCs2gD7la8YEGu_3fvm10blockstore8bufferedINtB5_18BufferedBlockstoreNtNtCslbkBntY5hAO_19fvm_ipld_blockstore6memory16MemoryBlockstoreENtB1g_10Blockstore3getB9_
FN:115,_RINvNtNtCs2gD7la8YEGu_3fvm10blockstore8buffered14scan_for_linksINtNtNtCsduPDAHU5p59_3std2io6cursor6CursorRShENCNvB2_8copy_rec0EB6_
FN:220,_RNCNvNtNtCs2gD7la8YEGu_3fvm10blockstore8buffered8copy_recs_0B7_
FN:264,_RNCINvXININtNtCs5xYBAi2tWzh_3fvm10blockstore8buffereds0_0pEINtB8_18BufferedBlockstorepENtCslbkBntY5hAO_19fvm_ipld_blockstore10Blockstore14put_many_keyedppE0Bc_
FN:235,_RNvXININtNtCs5xYBAi2tWzh_3fvm10blockstore8buffereds0_0pEINtB5_18BufferedBlockstorepENtCslbkBntY5hAO_19fvm_ipld_blockstore10Blockstore3getB9_
FN:27,_RNvMNtNtCs5xYBAi2tWzh_3fvm10blockstore8bufferedINtB2_18BufferedBlockstorepE3newB6_
FN:243,_RNvXININtNtCs5xYBAi2tWzh_3fvm10blockstore8buffereds0_0pEINtB5_18BufferedBlockstorepENtCslbkBntY5hAO_19fvm_ipld_blockstore10Blockstore9put_keyedB9_
FN:17,_RNvXININtNtCs5xYBAi2tWzh_3fvm10blockstore8buffereds1_0pEINtB5_18BufferedBlockstorepENtNtCslBoGNiFC398_4core3fmt5Debug3fmtB9_
FN:34,_RNvMNtNtCs5xYBAi2tWzh_3fvm10blockstore8bufferedINtB2_18BufferedBlockstorepE10into_innerB6_
FN:256,_RINvXININtNtCs5xYBAi2tWzh_3fvm10blockstore8buffereds0_0pEINtB6_18BufferedBlockstorepENtCslbkBntY5hAO_19fvm_ipld_blockstore10Blockstore14put_many_keyedppEBa_
FN:248,_RNvXININtNtCs5xYBAi2tWzh_3fvm10blockstore8buffereds0_0pEINtB5_18BufferedBlockstorepENtCslbkBntY5hAO_19fvm_ipld_blockstore10Blockstore3hasB9_
FN:46,_RNvXININtNtCs5xYBAi2tWzh_3fvm10blockstore8buffereds_0pEINtB5_18BufferedBlockstorepENtCslbkBntY5hAO_19fvm_ipld_blockstore8Buffered5flushB9_
FN:115,_RINvNtNtCs5xYBAi2tWzh_3fvm10blockstore8buffered14scan_for_linksINtNtNtCsduPDAHU5p59_3std2io6cursor6CursorRINtNtCsc0YPw4IdecV_5alloc3vec3VechEENCNvB2_8copy_recs_0EB6_
FN:167,_RNvNtNtCs5xYBAi2tWzh_3fvm10blockstore8buffered8copy_rec
FN:65,_RINvNtNtCs5xYBAi2tWzh_3fvm10blockstore8buffered20cbor_read_header_bufINtNtNtCsduPDAHU5p59_3std2io6cursor6CursorRINtNtCsc0YPw4IdecV_5alloc3vec3VechEEEB6_
FN:192,_RNCNvNtNtCs5xYBAi2tWzh_3fvm10blockstore8buffered8copy_rec0B7_
FN:65,_RINvNtNtCs5xYBAi2tWzh_3fvm10blockstore8buffered20cbor_read_header_bufINtNtNtCsduPDAHU5p59_3std2io6cursor6CursorRShEEB6_
FN:220,_RNCNvNtNtCs5xYBAi2tWzh_3fvm10blockstore8buffered8copy_recs_0B7_
FN:115,_RINvNtNtCs5xYBAi2tWzh_3fvm10blockstore8buffered14scan_for_linksINtNtNtCsduPDAHU5p59_3std2io6cursor6CursorRShENCNvB2_8copy_rec0EB6_
FNDA:0,_RNvMNtNtCs2gD7la8YEGu_3fvm10blockstore8bufferedINtB2_18BufferedBlockstorepE10into_innerB6_
FNDA:0,_RNvXs0_NvXNvNvNtNtNtCs2gD7la8YEGu_3fvm10blockstore8buffered5testss_25buffered_store_with_links1__NtBa_10TestObjectNtNtCsj3WkLEH4Ge0_5serde2de11Deserialize11deserializeNtB5_9___VisitorNtB1Q_7Visitor9expecting
FNDA:0,_RNvXs_NvNtNtNtCs2gD7la8YEGu_3fvm10blockstore8buffered5testss_25buffered_store_with_linksNtB4_10TestObjectNtNtCslBoGNiFC398_4core3cmp9PartialEq2neBc_
FNDA:0,_RNCINvXININtNtCs2gD7la8YEGu_3fvm10blockstore8buffereds0_0pEINtB8_18BufferedBlockstorepENtCslbkBntY5hAO_19fvm_ipld_blockstore10Blockstore14put_many_keyedppE0Bc_
FNDA:0,_RINvXNvXNvNvNtNtNtCs2gD7la8YEGu_3fvm10blockstore8buffered5testss_25buffered_store_with_links1__NtB8_10TestObjectNtNtCsj3WkLEH4Ge0_5serde2de11Deserialize11deserializeNtB3_14___FieldVisitorNtB1O_7Visitor11visit_bytespEBg_
FNDA:0,_RNvXNvXNvNvNtNtNtCs2gD7la8YEGu_3fvm10blockstore8buffered5testss_25buffered_store_with_links1__NtB7_10TestObjectNtNtCsj3WkLEH4Ge0_5serde2de11Deserialize11deserializeNtB2_14___FieldVisitorNtB1N_7Visitor9expecting
FNDA:0,_RNvXININtNtCs2gD7la8YEGu_3fvm10blockstore8buffereds1_0pEINtB5_18BufferedBlockstorepENtNtCslBoGNiFC398_4core3fmt5Debug3fmtB9_
FNDA:0,_RINvXs0_NvXNvNvNtNtNtCs2gD7la8YEGu_3fvm10blockstore8buffered5testss_25buffered_store_with_links1__NtBb_10TestObjectNtNtCsj3WkLEH4Ge0_5serde2de11Deserialize11deserializeNtB6_9___VisitorNtB1R_7Visitor9visit_seqpEBj_
FNDA:0,_RINvXNvXNvNvNtNtNtCs2gD7la8YEGu_3fvm10blockstore8buffered5testss_25buffered_store_with_links1__NtB8_10TestObjectNtNtCsj3WkLEH4Ge0_5serde2de11Deserialize11deserializeNtB3_14___FieldVisitorNtB1O_7Visitor9visit_u64pEBg_
FNDA:0,_RINvXININtNtCs2gD7la8YEGu_3fvm10blockstore8buffereds0_0pEINtB6_18BufferedBlockstorepENtCslbkBntY5hAO_19fvm_ipld_blockstore10Blockstore14put_many_keyedppEBa_
FNDA:0,_RNvXININtNtCs2gD7la8YEGu_3fvm10blockstore8buffereds0_0pEINtB5_18BufferedBlockstorepENtCslbkBntY5hAO_19fvm_ipld_blockstore10Blockstore3hasB9_
FNDA:1,_RINvXNvNvNtNtNtCs2gD7la8YEGu_3fvm10blockstore8buffered5testss_25buffered_store_with_linkss_1__NtB5_10TestObjectNtNtCsj3WkLEH4Ge0_5serde3ser9Serialize9serializeQINtNtCs7jq4FGjB44s_18serde_ipld_dagcbor3ser10SerializerNtNtNtCshVKh6t4RGJQ_7cbor4ii4core5utils9BufWriterEEBd_
FNDA:1,_RNCNvNtNtNtCs2gD7la8YEGu_3fvm10blockstore8buffered5tests25buffered_store_with_links0B9_
FNDA:1,_RNvNtNtNtCs2gD7la8YEGu_3fvm10blockstore8buffered5testss_20basic_buffered_store
FNDA:5,_RINvXs_NvXNvNvNtNtNtCs2gD7la8YEGu_3fvm10blockstore8buffered5testss_25buffered_store_with_links1__NtBa_10TestObjectNtNtCsj3WkLEH4Ge0_5serde2de11Deserialize11deserializeNtB5_7___FieldB1O_11deserializeQINtNtCs7jq4FGjB44s_18serde_ipld_dagcbor2de12DeserializerNtNtNtCshVKh6t4RGJQ_7cbor4ii4core5utils11SliceReaderEEBi_
FNDA:1,_RINvXs0_NvXNvNvNtNtNtCs2gD7la8YEGu_3fvm10blockstore8buffered5testss_25buffered_store_with_links1__NtBb_10TestObjectNtNtCsj3WkLEH4Ge0_5serde2de11Deserialize11deserializeNtB6_9___VisitorNtB1R_7Visitor9visit_mapINtNtCs7jq4FGjB44s_18serde_ipld_dagcbor2de8AccessorNtNtNtCshVKh6t4RGJQ_7cbor4ii4core5utils11SliceReaderEEBj_
FNDA:1,_RNvNtNtNtCs2gD7la8YEGu_3fvm10blockstore8buffered5testss_25buffered_store_with_links
FNDA:5,_RINvXNvXNvNvNtNtNtCs2gD7la8YEGu_3fvm10blockstore8buffered5testss_25buffered_store_with_links1__NtB8_10TestObjectNtNtCsj3WkLEH4Ge0_5serde2de11Deserialize11deserializeNtB3_14___FieldVisitorNtB1O_7Visitor9visit_strINtNtCs7jq4FGjB44s_18serde_ipld_dagcbor5error11DecodeErrorNtNtCslBoGNiFC398_4core7convert10InfallibleEEBg_
FNDA:0,_RNvXs2_NvNtNtNtCs2gD7la8YEGu_3fvm10blockstore8buffered5testss_25buffered_store_with_linksNtB5_10TestObjectNtNtCslBoGNiFC398_4core3fmt5Debug3fmt
FNDA:1,_RNCNvNtNtNtCs2gD7la8YEGu_3fvm10blockstore8buffered5tests20basic_buffered_store0B9_
FNDA:1,_RINvXNvNvNtNtNtCs2gD7la8YEGu_3fvm10blockstore8buffered5testss_25buffered_store_with_links1__NtB5_10TestObjectNtNtCsj3WkLEH4Ge0_5serde2de11Deserialize11deserializeQINtNtCs7jq4FGjB44s_18serde_ipld_dagcbor2de12DeserializerNtNtNtCshVKh6t4RGJQ_7cbor4ii4core5utils11SliceReaderEEBd_
FNDA:1,_RNvXs_NvNtNtNtCs2gD7la8YEGu_3fvm10blockstore8buffered5testss_25buffered_store_with_linksNtB4_10TestObjectNtNtCslBoGNiFC398_4core3cmp9PartialEq2eqBc_
FNDA:23,_RINvNtNtCs2gD7la8YEGu_3fvm10blockstore8buffered20cbor_read_header_bufINtNtNtCsduPDAHU5p59_3std2io6cursor6CursorRINtNtCsc0YPw4IdecV_5alloc3vec3VechEEEB6_
FNDA:2,_RNvMNtNtCs2gD7la8YEGu_3fvm10blockstore8bufferedINtB2_18BufferedBlockstoreRNtNtCslbkBntY5hAO_19fvm_ipld_blockstore6memory16MemoryBlockstoreE3newB6_
FNDA:0,_RINvNtNtCs2gD7la8YEGu_3fvm10blockstore8buffered20cbor_read_header_bufINtNtNtCsduPDAHU5p59_3std2io6cursor6CursorRShEEB6_
FNDA:0,_RNCNvNtNtCs2gD7la8YEGu_3fvm10blockstore8buffered8copy_rec0B7_
FNDA:2,_RNvXs_NtNtCs2gD7la8YEGu_3fvm10blockstore8bufferedINtB4_18BufferedBlockstoreRNtNtCslbkBntY5hAO_19fvm_ipld_blockstore6memory16MemoryBlockstoreENtB1g_8Buffered5flushB8_
FNDA:7,_RNvNtNtCs2gD7la8YEGu_3fvm10blockstore8buffered8copy_rec
FNDA:1,_RNvMNtNtCs2gD7la8YEGu_3fvm10blockstore8bufferedINtB2_18BufferedBlockstoreNtNtCslbkBntY5hAO_19fvm_ipld_blockstore6memory16MemoryBlockstoreE3newB6_
FNDA:7,_RNvXs0_NtNtCs2gD7la8YEGu_3fvm10blockstore8bufferedINtB5_18BufferedBlockstoreRNtNtCslbkBntY5hAO_19fvm_ipld_blockstore6memory16MemoryBlockstoreENtB1h_10Blockstore3getB9_
FNDA:4,_RINvNtNtCs2gD7la8YEGu_3fvm10blockstore8buffered14scan_for_linksINtNtNtCsduPDAHU5p59_3std2io6cursor6CursorRINtNtCsc0YPw4IdecV_5alloc3vec3VechEENCNvB2_8copy_recs_0EB6_
FNDA:5,_RNvXs0_NtNtCs2gD7la8YEGu_3fvm10blockstore8bufferedINtB5_18BufferedBlockstoreRNtNtCslbkBntY5hAO_19fvm_ipld_blockstore6memory16MemoryBlockstoreENtB1h_10Blockstore9put_keyedB9_
FNDA:4,_RNvXs0_NtNtCs2gD7la8YEGu_3fvm10blockstore8bufferedINtB5_18BufferedBlockstoreNtNtCslbkBntY5hAO_19fvm_ipld_blockstore6memory16MemoryBlockstoreENtB1g_10Blockstore3getB9_
FNDA:0,_RINvNtNtCs2gD7la8YEGu_3fvm10blockstore8buffered14scan_for_linksINtNtNtCsduPDAHU5p59_3std2io6cursor6CursorRShENCNvB2_8copy_rec0EB6_
FNDA:5,_RNCNvNtNtCs2gD7la8YEGu_3fvm10blockstore8buffered8copy_recs_0B7_
FNDA:0,_RNCINvXININtNtCs5xYBAi2tWzh_3fvm10blockstore8buffereds0_0pEINtB8_18BufferedBlockstorepENtCslbkBntY5hAO_19fvm_ipld_blockstore10Blockstore14put_many_keyedppE0Bc_
FNDA:0,_RNvXININtNtCs5xYBAi2tWzh_3fvm10blockstore8buffereds0_0pEINtB5_18BufferedBlockstorepENtCslbkBntY5hAO_19fvm_ipld_blockstore10Blockstore3getB9_
FNDA:0,_RNvMNtNtCs5xYBAi2tWzh_3fvm10blockstore8bufferedINtB2_18BufferedBlockstorepE3newB6_
FNDA:0,_RNvXININtNtCs5xYBAi2tWzh_3fvm10blockstore8buffereds0_0pEINtB5_18BufferedBlockstorepENtCslbkBntY5hAO_19fvm_ipld_blockstore10Blockstore9put_keyedB9_
FNDA:0,_RNvXININtNtCs5xYBAi2tWzh_3fvm10blockstore8buffereds1_0pEINtB5_18BufferedBlockstorepENtNtCslBoGNiFC398_4core3fmt5Debug3fmtB9_
FNDA:0,_RNvMNtNtCs5xYBAi2tWzh_3fvm10blockstore8bufferedINtB2_18BufferedBlockstorepE10into_innerB6_
FNDA:0,_RINvXININtNtCs5xYBAi2tWzh_3fvm10blockstore8buffereds0_0pEINtB6_18BufferedBlockstorepENtCslbkBntY5hAO_19fvm_ipld_blockstore10Blockstore14put_many_keyedppEBa_
FNDA:0,_RNvXININtNtCs5xYBAi2tWzh_3fvm10blockstore8buffereds0_0pEINtB5_18BufferedBlockstorepENtCslbkBntY5hAO_19fvm_ipld_blockstore10Blockstore3hasB9_
FNDA:0,_RNvXININtNtCs5xYBAi2tWzh_3fvm10blockstore8buffereds_0pEINtB5_18BufferedBlockstorepENtCslbkBntY5hAO_19fvm_ipld_blockstore8Buffered5flushB9_
FNDA:0,_RINvNtNtCs5xYBAi2tWzh_3fvm10blockstore8buffered14scan_for_linksINtNtNtCsduPDAHU5p59_3std2io6cursor6CursorRINtNtCsc0YPw4IdecV_5alloc3vec3VechEENCNvB2_8copy_recs_0EB6_
FNDA:0,_RNvNtNtCs5xYBAi2tWzh_3fvm10blockstore8buffered8copy_rec
FNDA:0,_RINvNtNtCs5xYBAi2tWzh_3fvm10blockstore8buffered20cbor_read_header_bufINtNtNtCsduPDAHU5p59_3std2io6cursor6CursorRINtNtCsc0YPw4IdecV_5alloc3vec3VechEEEB6_
FNDA:0,_RNCNvNtNtCs5xYBAi2tWzh_3fvm10blockstore8buffered8copy_rec0B7_
FNDA:0,_RINvNtNtCs5xYBAi2tWzh_3fvm10blockstore8buffered20cbor_read_header_bufINtNtNtCsduPDAHU5p59_3std2io6cursor6CursorRShEEB6_
FNDA:0,_RNCNvNtNtCs5xYBAi2tWzh_3fvm10blockstore8buffered8copy_recs_0B7_
FNDA:0,_RINvNtNtCs5xYBAi2tWzh_3fvm10blockstore8buffered14scan_for_linksINtNtNtCsduPDAHU5p59_3std2io6cursor6CursorRShENCNvB2_8copy_rec0EB6_
FNF:22
FNH:15
DA:17,0
DA:27,3
DA:28,3
DA:29,3
DA:30,3
DA:31,3
DA:32,3
DA:34,0
DA:35,0
DA:36,0
DA:46,2
DA:47,2
DA:48,2
DA:49,2
DA:51,2
DA:52,2
DA:53,2
DA:54,2
DA:55,2
DA:65,23
DA:66,23
DA:67,23
DA:68,23
DA:69,23
DA:70,23
DA:71,14
DA:72,9
DA:73,9
DA:74,9
DA:75,0
DA:76,0
DA:77,0
DA:78,9
DA:79,9
DA:80,0
DA:81,0
DA:82,0
DA:83,0
DA:84,0
DA:85,0
DA:86,0
DA:87,0
DA:88,0
DA:89,0
DA:90,0
DA:91,0
DA:92,0
DA:93,0
DA:94,0
DA:95,0
DA:96,0
DA:97,0
DA:98,0
DA:99,0
DA:100,0
DA:101,0
DA:102,0
DA:103,0
DA:104,0
DA:105,0
DA:106,0
DA:108,0
DA:110,23
DA:115,4
DA:116,4
DA:117,4
DA:118,4
DA:119,4
DA:120,4
DA:121,22
DA:122,18
DA:123,18
DA:125,3
DA:128,7
DA:133,5
DA:134,5
DA:136,5
DA:137,0
DA:138,5
DA:139,5
DA:140,0
DA:141,5
DA:142,5
DA:143,5
DA:144,5
DA:145,0
DA:146,0
DA:147,0
DA:150,2
DA:151,2
DA:152,2
DA:154,1
DA:155,1
DA:156,1
DA:158,0
DA:161,18
DA:163,4
DA:164,4
DA:167,7
DA:168,7
DA:169,7
DA:170,7
DA:171,7
DA:172,7
DA:173,7
DA:174,7
DA:175,7
DA:176,7
DA:177,7
DA:178,7
DA:179,7
DA:180,7
DA:181,7
DA:182,7
DA:183,7
DA:184,7
DA:186,4
DA:188,1
DA:192,0
DA:193,0
DA:194,0
DA:197,2
DA:200,0
DA:201,0
DA:202,0
DA:203,0
DA:211,4
DA:212,4
DA:213,0
DA:218,4
DA:220,5
DA:221,5
DA:222,5
DA:223,0
DA:226,4
DA:227,4
DA:228,4
DA:229,7
DA:235,11
DA:236,11
DA:237,2
DA:239,9
DA:241,11
DA:243,5
DA:244,5
DA:245,5
DA:246,5
DA:248,0
DA:249,0
DA:250,0
DA:252,0
DA:254,0
DA:256,0
DA:257,0
DA:258,0
DA:259,0
DA:260,0
DA:261,0
DA:262,0
DA:263,0
DA:264,0
DA:265,0
DA:266,0
DA:281,1
DA:282,1
DA:283,1
DA:284,1
DA:285,1
DA:286,1
DA:287,1
DA:288,1
DA:290,1
DA:291,1
DA:292,1
DA:293,1
DA:294,1
DA:296,1
DA:297,1
DA:298,1
DA:299,1
DA:300,1
DA:301,1
DA:302,1
DA:303,1
DA:304,1
DA:305,1
DA:306,1
DA:307,1
DA:308,1
DA:309,1
DA:310,1
DA:311,1
DA:312,1
DA:313,1
DA:314,1
DA:315,1
DA:316,1
DA:317,1
DA:318,1
DA:319,1
DA:320,11
DA:321,1
DA:322,1
DA:323,1
DA:324,1
DA:325,1
DA:326,1
DA:327,1
DA:328,1
DA:329,1
DA:330,1
DA:331,1
DA:332,1
DA:333,1
DA:334,1
DA:335,1
DA:336,1
DA:337,1
DA:338,1
DA:339,1
DA:340,1
DA:341,1
DA:342,1
DA:343,1
DA:344,1
DA:345,1
DA:346,1
DA:347,1
DA:350,1
DA:351,1
DA:352,1
DA:353,1
DA:354,1
DA:355,1
DA:356,1
DA:357,1
DA:358,1
DA:359,1
DA:360,1
DA:361,1
DA:362,1
DA:363,1
DA:364,1
DA:365,1
BRF:0
BRH:0
LF:253
LH:183
end_of_record
SF:/home/mriise/Projects/ref-fvm/fvm/src/call_manager/backtrace.rs
FN:99,_RNvXs9_NtNtCs2gD7la8YEGu_3fvm12call_manager9backtraceNtB5_5CauseNtNtCslBoGNiFC398_4core3fmt5Debug3fmt
FN:12,_RNvXs5_NtNtCs2gD7la8YEGu_3fvm12call_manager9backtraceNtB5_9BacktraceNtNtCslBoGNiFC398_4core5clone5Clone5cloneB9_
FN:12,_RNvXs4_NtNtCs2gD7la8YEGu_3fvm12call_manager9backtraceNtB5_9BacktraceNtNtCslBoGNiFC398_4core7default7Default7defaultB9_
FN:86,_RNvXs0_NtNtCs2gD7la8YEGu_3fvm12call_manager9backtraceNtB5_5FrameNtNtCslBoGNiFC398_4core3fmt7Display3fmt
FN:34,_RNvMs_NtNtCs2gD7la8YEGu_3fvm12call_manager9backtraceNtB4_9Backtrace8is_empty
FN:143,_RNvXs2_NtNtCs2gD7la8YEGu_3fvm12call_manager9backtraceNtB5_5CauseNtNtCslBoGNiFC398_4core3fmt7Display3fmt
FN:12,_RNvXs3_NtNtCs2gD7la8YEGu_3fvm12call_manager9backtraceNtB5_9BacktraceNtNtCslBoGNiFC398_4core3fmt5Debug3fmt
FN:60,_RNvMs_NtNtCs2gD7la8YEGu_3fvm12call_manager9backtraceNtB4_9Backtrace9set_cause
FN:73,_RNvXs7_NtNtCs2gD7la8YEGu_3fvm12call_manager9backtraceNtB5_5FrameNtNtCslBoGNiFC398_4core3fmt5Debug3fmt
FN:21,_RNvXNtNtCs2gD7la8YEGu_3fvm12call_manager9backtraceNtB2_9BacktraceNtNtCslBoGNiFC398_4core3fmt7Display3fmt
FN:50,_RNvMs_NtNtCs2gD7la8YEGu_3fvm12call_manager9backtraceNtB4_9Backtrace5begin
FN:99,_RNvXs8_NtNtCs2gD7la8YEGu_3fvm12call_manager9backtraceNtB5_5CauseNtNtCslBoGNiFC398_4core5clone5Clone5cloneB9_
FN:124,_RNvMs1_NtNtCs2gD7la8YEGu_3fvm12call_manager9backtraceNtB5_5Cause12from_syscall
FN:39,_RNvMs_NtNtCs2gD7la8YEGu_3fvm12call_manager9backtraceNtB4_9Backtrace5clear
FN:134,_RNvMs1_NtNtCs2gD7la8YEGu_3fvm12call_manager9backtraceNtB5_5Cause10from_fatal
FN:73,_RNvXs6_NtNtCs2gD7la8YEGu_3fvm12call_manager9backtraceNtB5_5FrameNtNtCslBoGNiFC398_4core5clone5Clone5cloneB9_
FN:67,_RNvMs_NtNtCs2gD7la8YEGu_3fvm12call_manager9backtraceNtB4_9Backtrace10push_frame
FN:73,_RNvXs6_NtNtCs5xYBAi2tWzh_3fvm12call_manager9backtraceNtB5_5FrameNtNtCslBoGNiFC398_4core5clone5Clone5cloneB9_
FN:12,_RNvXs4_NtNtCs5xYBAi2tWzh_3fvm12call_manager9backtraceNtB5_9BacktraceNtNtCslBoGNiFC398_4core7default7Default7defaultB9_
FN:99,_RNvXs8_NtNtCs5xYBAi2tWzh_3fvm12call_manager9backtraceNtB5_5CauseNtNtCslBoGNiFC398_4core5clone5Clone5cloneB9_
FN:12,_RNvXs5_NtNtCs5xYBAi2tWzh_3fvm12call_manager9backtraceNtB5_9BacktraceNtNtCslBoGNiFC398_4core5clone5Clone5cloneB9_
FN:73,_RNvXs7_NtNtCs5xYBAi2tWzh_3fvm12call_manager9backtraceNtB5_5FrameNtNtCslBoGNiFC398_4core3fmt5Debug3fmt
FN:12,_RNvXs3_NtNtCs5xYBAi2tWzh_3fvm12call_manager9backtraceNtB5_9BacktraceNtNtCslBoGNiFC398_4core3fmt5Debug3fmt
FN:143,_RNvXs2_NtNtCs5xYBAi2tWzh_3fvm12call_manager9backtraceNtB5_5CauseNtNtCslBoGNiFC398_4core3fmt7Display3fmt
FN:21,_RNvXNtNtCs5xYBAi2tWzh_3fvm12call_manager9backtraceNtB2_9BacktraceNtNtCslBoGNiFC398_4core3fmt7Display3fmt
FN:50,_RNvMs_NtNtCs5xYBAi2tWzh_3fvm12call_manager9backtraceNtB4_9Backtrace5begin
FN:86,_RNvXs0_NtNtCs5xYBAi2tWzh_3fvm12call_manager9backtraceNtB5_5FrameNtNtCslBoGNiFC398_4core3fmt7Display3fmt
FN:99,_RNvXs9_NtNtCs5xYBAi2tWzh_3fvm12call_manager9backtraceNtB5_5CauseNtNtCslBoGNiFC398_4core3fmt5Debug3fmt
FN:124,_RNvMs1_NtNtCs5xYBAi2tWzh_3fvm12call_manager9backtraceNtB5_5Cause12from_syscall
FN:60,_RNvMs_NtNtCs5xYBAi2tWzh_3fvm12call_manager9backtraceNtB4_9Backtrace9set_cause
FN:39,_RNvMs_NtNtCs5xYBAi2tWzh_3fvm12call_manager9backtraceNtB4_9Backtrace5clear
FN:134,_RNvMs1_NtNtCs5xYBAi2tWzh_3fvm12call_manager9backtraceNtB5_5Cause10from_fatal
FN:34,_RNvMs_NtNtCs5xYBAi2tWzh_3fvm12call_manager9backtraceNtB4_9Backtrace8is_empty
FN:67,_RNvMs_NtNtCs5xYBAi2tWzh_3fvm12call_manager9backtraceNtB4_9Backtrace10push_frame
FNDA:0,_RNvXs9_NtNtCs2gD7la8YEGu_3fvm12call_manager9backtraceNtB5_5CauseNtNtCslBoGNiFC398_4core3fmt5Debug3fmt
FNDA:0,_RNvXs5_NtNtCs2gD7la8YEGu_3fvm12call_manager9backtraceNtB5_9BacktraceNtNtCslBoGNiFC398_4core5clone5Clone5cloneB9_
FNDA:0,_RNvXs4_NtNtCs2gD7la8YEGu_3fvm12call_manager9backtraceNtB5_9BacktraceNtNtCslBoGNiFC398_4core7default7Default7defaultB9_
FNDA:0,_RNvXs0_NtNtCs2gD7la8YEGu_3fvm12call_manager9backtraceNtB5_5FrameNtNtCslBoGNiFC398_4core3fmt7Display3fmt
FNDA:0,_RNvMs_NtNtCs2gD7la8YEGu_3fvm12call_manager9backtraceNtB4_9Backtrace8is_empty
FNDA:0,_RNvXs2_NtNtCs2gD7la8YEGu_3fvm12call_manager9backtraceNtB5_5CauseNtNtCslBoGNiFC398_4core3fmt7Display3fmt
FNDA:0,_RNvXs3_NtNtCs2gD7la8YEGu_3fvm12call_manager9backtraceNtB5_9BacktraceNtNtCslBoGNiFC398_4core3fmt5Debug3fmt
FNDA:0,_RNvMs_NtNtCs2gD7la8YEGu_3fvm12call_manager9backtraceNtB4_9Backtrace9set_cause
FNDA:0,_RNvXs7_NtNtCs2gD7la8YEGu_3fvm12call_manager9backtraceNtB5_5FrameNtNtCslBoGNiFC398_4core3fmt5Debug3fmt
FNDA:0,_RNvXNtNtCs2gD7la8YEGu_3fvm12call_manager9backtraceNtB2_9BacktraceNtNtCslBoGNiFC398_4core3fmt7Display3fmt
FNDA:0,_RNvMs_NtNtCs2gD7la8YEGu_3fvm12call_manager9backtraceNtB4_9Backtrace5begin
FNDA:0,_RNvXs8_NtNtCs2gD7la8YEGu_3fvm12call_manager9backtraceNtB5_5CauseNtNtCslBoGNiFC398_4core5clone5Clone5cloneB9_
FNDA:0,_RNvMs1_NtNtCs2gD7la8YEGu_3fvm12call_manager9backtraceNtB5_5Cause12from_syscall
FNDA:0,_RNvMs_NtNtCs2gD7la8YEGu_3fvm12call_manager9backtraceNtB4_9Backtrace5clear
FNDA:0,_RNvMs1_NtNtCs2gD7la8YEGu_3fvm12call_manager9backtraceNtB5_5Cause10from_fatal
FNDA:0,_RNvXs6_NtNtCs2gD7la8YEGu_3fvm12call_manager9backtraceNtB5_5FrameNtNtCslBoGNiFC398_4core5clone5Clone5cloneB9_
FNDA:0,_RNvMs_NtNtCs2gD7la8YEGu_3fvm12call_manager9backtraceNtB4_9Backtrace10push_frame
FNDA:0,_RNvXs6_NtNtCs5xYBAi2tWzh_3fvm12call_manager9backtraceNtB5_5FrameNtNtCslBoGNiFC398_4core5clone5Clone5cloneB9_
FNDA:0,_RNvXs4_NtNtCs5xYBAi2tWzh_3fvm12call_manager9backtraceNtB5_9BacktraceNtNtCslBoGNiFC398_4core7default7Default7defaultB9_
FNDA:0,_RNvXs8_NtNtCs5xYBAi2tWzh_3fvm12call_manager9backtraceNtB5_5CauseNtNtCslBoGNiFC398_4core5clone5Clone5cloneB9_
FNDA:0,_RNvXs5_NtNtCs5xYBAi2tWzh_3fvm12call_manager9backtraceNtB5_9BacktraceNtNtCslBoGNiFC398_4core5clone5Clone5cloneB9_
FNDA:0,_RNvXs7_NtNtCs5xYBAi2tWzh_3fvm12call_manager9backtraceNtB5_5FrameNtNtCslBoGNiFC398_4core3fmt5Debug3fmt
FNDA:0,_RNvXs3_NtNtCs5xYBAi2tWzh_3fvm12call_manager9backtraceNtB5_9BacktraceNtNtCslBoGNiFC398_4core3fmt5Debug3fmt
FNDA:0,_RNvXs2_NtNtCs5xYBAi2tWzh_3fvm12call_manager9backtraceNtB5_5CauseNtNtCslBoGNiFC398_4core3fmt7Display3fmt
FNDA:0,_RNvXNtNtCs5xYBAi2tWzh_3fvm12call_manager9backtraceNtB2_9BacktraceNtNtCslBoGNiFC398_4core3fmt7Display3fmt
FNDA:0,_RNvMs_NtNtCs5xYBAi2tWzh_3fvm12call_manager9backtraceNtB4_9Backtrace5begin
FNDA:0,_RNvXs0_NtNtCs5xYBAi2tWzh_3fvm12call_manager9backtraceNtB5_5FrameNtNtCslBoGNiFC398_4core3fmt7Display3fmt
FNDA:0,_RNvXs9_NtNtCs5xYBAi2tWzh_3fvm12call_manager9backtraceNtB5_5CauseNtNtCslBoGNiFC398_4core3fmt5Debug3fmt
FNDA:0,_RNvMs1_NtNtCs5xYBAi2tWzh_3fvm12call_manager9backtraceNtB5_5Cause12from_syscall
FNDA:0,_RNvMs_NtNtCs5xYBAi2tWzh_3fvm12call_manager9backtraceNtB4_9Backtrace9set_cause
FNDA:0,_RNvMs_NtNtCs5xYBAi2tWzh_3fvm12call_manager9backtraceNtB4_9Backtrace5clear
FNDA:0,_RNvMs1_NtNtCs5xYBAi2tWzh_3fvm12call_manager9backtraceNtB5_5Cause10from_fatal
FNDA:0,_RNvMs_NtNtCs5xYBAi2tWzh_3fvm12call_manager9backtraceNtB4_9Backtrace8is_empty
FNDA:0,_RNvMs_NtNtCs5xYBAi2tWzh_3fvm12call_manager9backtraceNtB4_9Backtrace10push_frame
FNF:17
FNH:0
DA:12,0
DA:21,0
DA:22,0
DA:23,0
DA:25,0
DA:26,0
DA:27,0
DA:28,0
DA:29,0
DA:34,0
DA:35,0
DA:36,0
DA:39,0
DA:40,0
DA:41,0
DA:42,0
DA:50,0
DA:51,0
DA:52,0
DA:53,0
DA:60,0
DA:61,0
DA:62,0
DA:67,0
DA:68,0
DA:69,0
DA:73,0
DA:86,0
DA:87,0
DA:88,0
DA:89,0
DA:90,0
DA:91,0
DA:92,0
DA:93,0
DA:94,0
DA:95,0
DA:99,0
DA:124,0
DA:125,0
DA:126,0
DA:127,0
DA:128,0
DA:129,0
DA:130,0
DA:131,0
DA:134,0
DA:135,0
DA:136,0
DA:137,0
DA:138,0
DA:139,0
DA:143,0
DA:144,0
DA:146,0
DA:147,0
DA:148,0
DA:149,0
DA:150,0
DA:151,0
DA:152,0
DA:153,0
DA:154,0
DA:155,0
DA:158,0
DA:159,0
DA:160,0
DA:161,0
DA:164,0
BRF:0
BRH:0
LF:73
LH:0
end_of_record
SF:/home/mriise/Projects/ref-fvm/fvm/src/call_manager/default.rs
FN:188,_RNvXININtNtCs2gD7la8YEGu_3fvm12call_manager7defaults0_0pEINtB5_18DefaultCallManagerpENtB7_11CallManager11machine_mutB9_
FN:395,_RNCNCINvMs1_NtNtCs2gD7la8YEGu_3fvm12call_manager7defaultINtBa_18DefaultCallManagerpE13send_resolvedpEs_0s_0Be_
FN:192,_RNvXININtNtCs2gD7la8YEGu_3fvm12call_manager7defaults0_0pEINtB5_18DefaultCallManagerpENtB7_11CallManager11gas_trackerB9_
FN:85,_RINvXININtNtCs2gD7la8YEGu_3fvm12call_manager7defaults0_0pEINtB6_18DefaultCallManagerpENtB8_11CallManager4sendpEBa_
FN:269,_RINvMs1_NtNtCs2gD7la8YEGu_3fvm12call_manager7defaultINtB6_18DefaultCallManagerpE14send_uncheckedpEBa_
FN:377,_RNCNCNCINvMs1_NtNtCs2gD7la8YEGu_3fvm12call_manager7defaultINtBc_18DefaultCallManagerpE13send_resolvedpEs_00s0_0Bg_
FN:227,_RINvMs1_NtNtCs2gD7la8YEGu_3fvm12call_manager7defaultINtB6_18DefaultCallManagerpE20create_account_actorpEBa_
FN:196,_RNvXININtNtCs2gD7la8YEGu_3fvm12call_manager7defaults0_0pEINtB5_18DefaultCallManagerpENtB7_11CallManager15gas_tracker_mutB9_
FN:350,_RNCNCINvMs1_NtNtCs2gD7la8YEGu_3fvm12call_manager7defaultINtBa_18DefaultCallManagerpE13send_resolvedpEs_00Be_
FN:202,_RNvXININtNtCs2gD7la8YEGu_3fvm12call_manager7defaults0_0pEINtB5_18DefaultCallManagerpENtB7_11CallManager6originB9_
FN:28,_RNvXININtNtCs2gD7la8YEGu_3fvm12call_manager7defaults2_0pEINtB5_23InnerDefaultCallManagerpENtNtNtCslBoGNiFC398_4core3ops5deref5Deref5derefB9_
FN:247,_RNCINvMs1_NtNtCs2gD7la8YEGu_3fvm12call_manager7defaultINtB8_18DefaultCallManagerpE20create_account_actorpE0Bc_
FN:465,_RNCINvMs1_NtNtCs2gD7la8YEGu_3fvm12call_manager7defaultINtB8_18DefaultCallManagerpE7map_mutppE0Bc_
FN:354,_RNCNCNCINvMs1_NtNtCs2gD7la8YEGu_3fvm12call_manager7defaultINtBc_18DefaultCallManagerpE13send_resolvedpEs_000Bg_
FN:461,_RINvMs1_NtNtCs2gD7la8YEGu_3fvm12call_manager7defaultINtB6_18DefaultCallManagerpE7map_mutppEBa_
FN:342,_RNCINvMs1_NtNtCs2gD7la8YEGu_3fvm12call_manager7defaultINtB8_18DefaultCallManagerpE13send_resolvedpEs_0Bc_
FN:103,_RNCINvXININtNtCs2gD7la8YEGu_3fvm12call_manager7defaults0_0pEINtB8_18DefaultCallManagerpENtBa_11CallManager4sendpE0Bc_
FN:61,_RNvXININtNtCs2gD7la8YEGu_3fvm12call_manager7defaults_0pEINtB5_18DefaultCallManagerpENtNtNtCslBoGNiFC398_4core3ops5deref8DerefMut9deref_mutB9_
FN:135,_RNCINvXININtNtCs2gD7la8YEGu_3fvm12call_manager7defaults0_0pEINtB8_18DefaultCallManagerpENtBa_11CallManager4sendpEs_0Bc_
FN:72,_RNvXININtNtCs2gD7la8YEGu_3fvm12call_manager7defaults0_0pEINtB5_18DefaultCallManagerpENtB7_11CallManager3newB9_
FN:167,_RNvXININtNtCs2gD7la8YEGu_3fvm12call_manager7defaults0_0pEINtB5_18DefaultCallManagerpENtB7_11CallManager6finishB9_
FN:212,_RNvXININtNtCs2gD7la8YEGu_3fvm12call_manager7defaults0_0pEINtB5_18DefaultCallManagerpENtB7_11CallManager14next_actor_idxB9_
FN:298,_RINvMs1_NtNtCs2gD7la8YEGu_3fvm12call_manager7defaultINtB6_18DefaultCallManagerpE13send_resolvedpEBa_
FN:54,_RNvXININtNtCs2gD7la8YEGu_3fvm12call_manager7default0pEINtB5_18DefaultCallManagerpENtNtNtCslBoGNiFC398_4core3ops5deref5Deref5derefB9_
FN:374,_RNCNCNCINvMs1_NtNtCs2gD7la8YEGu_3fvm12call_manager7defaultINtBc_18DefaultCallManagerpE13send_resolvedpEs_00s_0Bg_
FN:28,_RNvXININtNtCs2gD7la8YEGu_3fvm12call_manager7defaults3_0pEINtB5_23InnerDefaultCallManagerpENtNtNtCslBoGNiFC398_4core3ops5deref8DerefMut9deref_mutB9_
FN:206,_RNvXININtNtCs2gD7la8YEGu_3fvm12call_manager7defaults0_0pEINtB5_18DefaultCallManagerpENtB7_11CallManager5nonceB9_
FN:184,_RNvXININtNtCs2gD7la8YEGu_3fvm12call_manager7defaults0_0pEINtB5_18DefaultCallManagerpENtB7_11CallManager7machineB9_
FN:399,_RNCNCNCINvMs1_NtNtCs2gD7la8YEGu_3fvm12call_manager7defaultINtBc_18DefaultCallManagerpE13send_resolvedpEs_0s_00Bg_
FN:154,_RINvXININtNtCs2gD7la8YEGu_3fvm12call_manager7defaults0_0pEINtB6_18DefaultCallManagerpENtB8_11CallManager16with_transactionpEBa_
FN:313,_RNCINvMs1_NtNtCs2gD7la8YEGu_3fvm12call_manager7defaultINtB8_18DefaultCallManagerpE13send_resolvedpE0Bc_
FN:247,_RNCINvMs1_NtNtCs5xYBAi2tWzh_3fvm12call_manager7defaultINtB8_18DefaultCallManagerpE20create_account_actorpE0Bc_
FN:399,_RNCNCNCINvMs1_NtNtCs5xYBAi2tWzh_3fvm12call_manager7defaultINtBc_18DefaultCallManagerpE13send_resolvedpEs_0s_00Bg_
FN:28,_RNvXININtNtCs5xYBAi2tWzh_3fvm12call_manager7defaults2_0pEINtB5_23InnerDefaultCallManagerpENtNtNtCslBoGNiFC398_4core3ops5deref5Deref5derefB9_
FN:395,_RNCNCINvMs1_NtNtCs5xYBAi2tWzh_3fvm12call_manager7defaultINtBa_18DefaultCallManagerpE13send_resolvedpEs_0s_0Be_
FN:206,_RNvXININtNtCs5xYBAi2tWzh_3fvm12call_manager7defaults0_0pEINtB5_18DefaultCallManagerpENtB7_11CallManager5nonceB9_
FN:85,_RINvXININtNtCs5xYBAi2tWzh_3fvm12call_manager7defaults0_0pEINtB6_18DefaultCallManagerpENtB8_11CallManager4sendpEBa_
FN:212,_RNvXININtNtCs5xYBAi2tWzh_3fvm12call_manager7defaults0_0pEINtB5_18DefaultCallManagerpENtB7_11CallManager14next_actor_idxB9_
FN:298,_RINvMs1_NtNtCs5xYBAi2tWzh_3fvm12call_manager7defaultINtB6_18DefaultCallManagerpE13send_resolvedpEBa_
FN:313,_RNCINvMs1_NtNtCs5xYBAi2tWzh_3fvm12call_manager7defaultINtB8_18DefaultCallManagerpE13send_resolvedpE0Bc_
FN:461,_RINvMs1_NtNtCs5xYBAi2tWzh_3fvm12call_manager7defaultINtB6_18DefaultCallManagerpE7map_mutppEBa_
FN:202,_RNvXININtNtCs5xYBAi2tWzh_3fvm12call_manager7defaults0_0pEINtB5_18DefaultCallManagerpENtB7_11CallManager6originB9_
FN:103,_RNCINvXININtNtCs5xYBAi2tWzh_3fvm12call_manager7defaults0_0pEINtB8_18DefaultCallManagerpENtBa_11CallManager4sendpE0Bc_
FN:72,_RNvXININtNtCs5xYBAi2tWzh_3fvm12call_manager7defaults0_0pEINtB5_18DefaultCallManagerpENtB7_11CallManager3newB9_
FN:342,_RNCINvMs1_NtNtCs5xYBAi2tWzh_3fvm12call_manager7defaultINtB8_18DefaultCallManagerpE13send_resolvedpEs_0Bc_
FN:269,_RINvMs1_NtNtCs5xYBAi2tWzh_3fvm12call_manager7defaultINtB6_18DefaultCallManagerpE14send_uncheckedpEBa_
FN:184,_RNvXININtNtCs5xYBAi2tWzh_3fvm12call_manager7defaults0_0pEINtB5_18DefaultCallManagerpENtB7_11CallManager7machineB9_
FN:28,_RNvXININtNtCs5xYBAi2tWzh_3fvm12call_manager7defaults3_0pEINtB5_23InnerDefaultCallManagerpENtNtNtCslBoGNiFC398_4core3ops5deref8DerefMut9deref_mutB9_
FN:54,_RNvXININtNtCs5xYBAi2tWzh_3fvm12call_manager7default0pEINtB5_18DefaultCallManagerpENtNtNtCslBoGNiFC398_4core3ops5deref5Deref5derefB9_
FN:377,_RNCNCNCINvMs1_NtNtCs5xYBAi2tWzh_3fvm12call_manager7defaultINtBc_18DefaultCallManagerpE13send_resolvedpEs_00s0_0Bg_
FN:465,_RNCINvMs1_NtNtCs5xYBAi2tWzh_3fvm12call_manager7defaultINtB8_18DefaultCallManagerpE7map_mutppE0Bc_
FN:135,_RNCINvXININtNtCs5xYBAi2tWzh_3fvm12call_manager7defaults0_0pEINtB8_18DefaultCallManagerpENtBa_11CallManager4sendpEs_0Bc_
FN:227,_RINvMs1_NtNtCs5xYBAi2tWzh_3fvm12call_manager7defaultINtB6_18DefaultCallManagerpE20create_account_actorpEBa_
FN:188,_RNvXININtNtCs5xYBAi2tWzh_3fvm12call_manager7defaults0_0pEINtB5_18DefaultCallManagerpENtB7_11CallManager11machine_mutB9_
FN:196,_RNvXININtNtCs5xYBAi2tWzh_3fvm12call_manager7defaults0_0pEINtB5_18DefaultCallManagerpENtB7_11CallManager15gas_tracker_mutB9_
FN:61,_RNvXININtNtCs5xYBAi2tWzh_3fvm12call_manager7defaults_0pEINtB5_18DefaultCallManagerpENtNtNtCslBoGNiFC398_4core3ops5deref8DerefMut9deref_mutB9_
FN:354,_RNCNCNCINvMs1_NtNtCs5xYBAi2tWzh_3fvm12call_manager7defaultINtBc_18DefaultCallManagerpE13send_resolvedpEs_000Bg_
FN:192,_RNvXININtNtCs5xYBAi2tWzh_3fvm12call_manager7defaults0_0pEINtB5_18DefaultCallManagerpENtB7_11CallManager11gas_trackerB9_
FN:167,_RNvXININtNtCs5xYBAi2tWzh_3fvm12call_manager7defaults0_0pEINtB5_18DefaultCallManagerpENtB7_11CallManager6finishB9_
FN:350,_RNCNCINvMs1_NtNtCs5xYBAi2tWzh_3fvm12call_manager7defaultINtBa_18DefaultCallManagerpE13send_resolvedpEs_00Be_
FN:154,_RINvXININtNtCs5xYBAi2tWzh_3fvm12call_manager7defaults0_0pEINtB6_18DefaultCallManagerpENtB8_11CallManager16with_transactionpEBa_
FN:374,_RNCNCNCINvMs1_NtNtCs5xYBAi2tWzh_3fvm12call_manager7defaultINtBc_18DefaultCallManagerpE13send_resolvedpEs_00s_0Bg_
FNDA:0,_RNvXININtNtCs2gD7la8YEGu_3fvm12call_manager7defaults0_0pEINtB5_18DefaultCallManagerpENtB7_11CallManager11machine_mutB9_
FNDA:0,_RNCNCINvMs1_NtNtCs2gD7la8YEGu_3fvm12call_manager7defaultINtBa_18DefaultCallManagerpE13send_resolvedpEs_0s_0Be_
FNDA:0,_RNvXININtNtCs2gD7la8YEGu_3fvm12call_manager7defaults0_0pEINtB5_18DefaultCallManagerpENtB7_11CallManager11gas_trackerB9_
FNDA:0,_RINvXININtNtCs2gD7la8YEGu_3fvm12call_manager7defaults0_0pEINtB6_18DefaultCallManagerpENtB8_11CallManager4sendpEBa_
FNDA:0,_RINvMs1_NtNtCs2gD7la8YEGu_3fvm12call_manager7defaultINtB6_18DefaultCallManagerpE14send_uncheckedpEBa_
FNDA:0,_RNCNCNCINvMs1_NtNtCs2gD7la8YEGu_3fvm12call_manager7defaultINtBc_18DefaultCallManagerpE13send_resolvedpEs_00s0_0Bg_
FNDA:0,_RINvMs1_NtNtCs2gD7la8YEGu_3fvm12call_manager7defaultINtB6_18DefaultCallManagerpE20create_account_actorpEBa_
FNDA:0,_RNvXININtNtCs2gD7la8YEGu_3fvm12call_manager7defaults0_0pEINtB5_18DefaultCallManagerpENtB7_11CallManager15gas_tracker_mutB9_
FNDA:0,_RNCNCINvMs1_NtNtCs2gD7la8YEGu_3fvm12call_manager7defaultINtBa_18DefaultCallManagerpE13send_resolvedpEs_00Be_
FNDA:0,_RNvXININtNtCs2gD7la8YEGu_3fvm12call_manager7defaults0_0pEINtB5_18DefaultCallManagerpENtB7_11CallManager6originB9_
FNDA:0,_RNvXININtNtCs2gD7la8YEGu_3fvm12call_manager7defaults2_0pEINtB5_23InnerDefaultCallManagerpENtNtNtCslBoGNiFC398_4core3ops5deref5Deref5derefB9_
FNDA:0,_RNCINvMs1_NtNtCs2gD7la8YEGu_3fvm12call_manager7defaultINtB8_18DefaultCallManagerpE20create_account_actorpE0Bc_
FNDA:0,_RNCINvMs1_NtNtCs2gD7la8YEGu_3fvm12call_manager7defaultINtB8_18DefaultCallManagerpE7map_mutppE0Bc_
FNDA:0,_RNCNCNCINvMs1_NtNtCs2gD7la8YEGu_3fvm12call_manager7defaultINtBc_18DefaultCallManagerpE13send_resolvedpEs_000Bg_
FNDA:0,_RINvMs1_NtNtCs2gD7la8YEGu_3fvm12call_manager7defaultINtB6_18DefaultCallManagerpE7map_mutppEBa_
FNDA:0,_RNCINvMs1_NtNtCs2gD7la8YEGu_3fvm12call_manager7defaultINtB8_18DefaultCallManagerpE13send_resolvedpEs_0Bc_
FNDA:0,_RNCINvXININtNtCs2gD7la8YEGu_3fvm12call_manager7defaults0_0pEINtB8_18DefaultCallManagerpENtBa_11CallManager4sendpE0Bc_
FNDA:0,_RNvXININtNtCs2gD7la8YEGu_3fvm12call_manager7defaults_0pEINtB5_18DefaultCallManagerpENtNtNtCslBoGNiFC398_4core3ops5deref8DerefMut9deref_mutB9_
FNDA:0,_RNCINvXININtNtCs2gD7la8YEGu_3fvm12call_manager7defaults0_0pEINtB8_18DefaultCallManagerpENtBa_11CallManager4sendpEs_0Bc_
FNDA:0,_RNvXININtNtCs2gD7la8YEGu_3fvm12call_manager7defaults0_0pEINtB5_18DefaultCallManagerpENtB7_11CallManager3newB9_
FNDA:0,_RNvXININtNtCs2gD7la8YEGu_3fvm12call_manager7defaults0_0pEINtB5_18DefaultCallManagerpENtB7_11CallManager6finishB9_
FNDA:0,_RNvXININtNtCs2gD7la8YEGu_3fvm12call_manager7defaults0_0pEINtB5_18DefaultCallManagerpENtB7_11CallManager14next_actor_idxB9_
FNDA:0,_RINvMs1_NtNtCs2gD7la8YEGu_3fvm12call_manager7defaultINtB6_18DefaultCallManagerpE13send_resolvedpEBa_
FNDA:0,_RNvXININtNtCs2gD7la8YEGu_3fvm12call_manager7default0pEINtB5_18DefaultCallManagerpENtNtNtCslBoGNiFC398_4core3ops5deref5Deref5derefB9_
FNDA:0,_RNCNCNCINvMs1_NtNtCs2gD7la8YEGu_3fvm12call_manager7defaultINtBc_18DefaultCallManagerpE13send_resolvedpEs_00s_0Bg_
FNDA:0,_RNvXININtNtCs2gD7la8YEGu_3fvm12call_manager7defaults3_0pEINtB5_23InnerDefaultCallManagerpENtNtNtCslBoGNiFC398_4core3ops5deref8DerefMut9deref_mutB9_
FNDA:0,_RNvXININtNtCs2gD7la8YEGu_3fvm12call_manager7defaults0_0pEINtB5_18DefaultCallManagerpENtB7_11CallManager5nonceB9_
FNDA:0,_RNvXININtNtCs2gD7la8YEGu_3fvm12call_manager7defaults0_0pEINtB5_18DefaultCallManagerpENtB7_11CallManager7machineB9_
FNDA:0,_RNCNCNCINvMs1_NtNtCs2gD7la8YEGu_3fvm12call_manager7defaultINtBc_18DefaultCallManagerpE13send_resolvedpEs_0s_00Bg_
FNDA:0,_RINvXININtNtCs2gD7la8YEGu_3fvm12call_manager7defaults0_0pEINtB6_18DefaultCallManagerpENtB8_11CallManager16with_transactionpEBa_
FNDA:0,_RNCINvMs1_NtNtCs2gD7la8YEGu_3fvm12call_manager7defaultINtB8_18DefaultCallManagerpE13send_resolvedpE0Bc_
FNDA:0,_RNCINvMs1_NtNtCs5xYBAi2tWzh_3fvm12call_manager7defaultINtB8_18DefaultCallManagerpE20create_account_actorpE0Bc_
FNDA:0,_RNCNCNCINvMs1_NtNtCs5xYBAi2tWzh_3fvm12call_manager7defaultINtBc_18DefaultCallManagerpE13send_resolvedpEs_0s_00Bg_
FNDA:0,_RNvXININtNtCs5xYBAi2tWzh_3fvm12call_manager7defaults2_0pEINtB5_23InnerDefaultCallManagerpENtNtNtCslBoGNiFC398_4core3ops5deref5Deref5derefB9_
FNDA:0,_RNCNCINvMs1_NtNtCs5xYBAi2tWzh_3fvm12call_manager7defaultINtBa_18DefaultCallManagerpE13send_resolvedpEs_0s_0Be_
FNDA:0,_RNvXININtNtCs5xYBAi2tWzh_3fvm12call_manager7defaults0_0pEINtB5_18DefaultCallManagerpENtB7_11CallManager5nonceB9_
FNDA:0,_RINvXININtNtCs5xYBAi2tWzh_3fvm12call_manager7defaults0_0pEINtB6_18DefaultCallManagerpENtB8_11CallManager4sendpEBa_
FNDA:0,_RNvXININtNtCs5xYBAi2tWzh_3fvm12call_manager7defaults0_0pEINtB5_18DefaultCallManagerpENtB7_11CallManager14next_actor_idxB9_
FNDA:0,_RINvMs1_NtNtCs5xYBAi2tWzh_3fvm12call_manager7defaultINtB6_18DefaultCallManagerpE13send_resolvedpEBa_
FNDA:0,_RNCINvMs1_NtNtCs5xYBAi2tWzh_3fvm12call_manager7defaultINtB8_18DefaultCallManagerpE13send_resolvedpE0Bc_
FNDA:0,_RINvMs1_NtNtCs5xYBAi2tWzh_3fvm12call_manager7defaultINtB6_18DefaultCallManagerpE7map_mutppEBa_
FNDA:0,_RNvXININtNtCs5xYBAi2tWzh_3fvm12call_manager7defaults0_0pEINtB5_18DefaultCallManagerpENtB7_11CallManager6originB9_
FNDA:0,_RNCINvXININtNtCs5xYBAi2tWzh_3fvm12call_manager7defaults0_0pEINtB8_18DefaultCallManagerpENtBa_11CallManager4sendpE0Bc_
FNDA:0,_RNvXININtNtCs5xYBAi2tWzh_3fvm12call_manager7defaults0_0pEINtB5_18DefaultCallManagerpENtB7_11CallManager3newB9_
FNDA:0,_RNCINvMs1_NtNtCs5xYBAi2tWzh_3fvm12call_manager7defaultINtB8_18DefaultCallManagerpE13send_resolvedpEs_0Bc_
FNDA:0,_RINvMs1_NtNtCs5xYBAi2tWzh_3fvm12call_manager7defaultINtB6_18DefaultCallManagerpE14send_uncheckedpEBa_
FNDA:0,_RNvXININtNtCs5xYBAi2tWzh_3fvm12call_manager7defaults0_0pEINtB5_18DefaultCallManagerpENtB7_11CallManager7machineB9_
FNDA:0,_RNvXININtNtCs5xYBAi2tWzh_3fvm12call_manager7defaults3_0pEINtB5_23InnerDefaultCallManagerpENtNtNtCslBoGNiFC398_4core3ops5deref8DerefMut9deref_mutB9_
FNDA:0,_RNvXININtNtCs5xYBAi2tWzh_3fvm12call_manager7default0pEINtB5_18DefaultCallManagerpENtNtNtCslBoGNiFC398_4core3ops5deref5Deref5derefB9_
FNDA:0,_RNCNCNCINvMs1_NtNtCs5xYBAi2tWzh_3fvm12call_manager7defaultINtBc_18DefaultCallManagerpE13send_resolvedpEs_00s0_0Bg_
FNDA:0,_RNCINvMs1_NtNtCs5xYBAi2tWzh_3fvm12call_manager7defaultINtB8_18DefaultCallManagerpE7map_mutppE0Bc_
FNDA:0,_RNCINvXININtNtCs5xYBAi2tWzh_3fvm12call_manager7defaults0_0pEINtB8_18DefaultCallManagerpENtBa_11CallManager4sendpEs_0Bc_
FNDA:0,_RINvMs1_NtNtCs5xYBAi2tWzh_3fvm12call_manager7defaultINtB6_18DefaultCallManagerpE20create_account_actorpEBa_
FNDA:0,_RNvXININtNtCs5xYBAi2tWzh_3fvm12call_manager7defaults0_0pEINtB5_18DefaultCallManagerpENtB7_11CallManager11machine_mutB9_
FNDA:0,_RNvXININtNtCs5xYBAi2tWzh_3fvm12call_manager7defaults0_0pEINtB5_18DefaultCallManagerpENtB7_11CallManager15gas_tracker_mutB9_
FNDA:0,_RNvXININtNtCs5xYBAi2tWzh_3fvm12call_manager7defaults_0pEINtB5_18DefaultCallManagerpENtNtNtCslBoGNiFC398_4core3ops5deref8DerefMut9deref_mutB9_
FNDA:0,_RNCNCNCINvMs1_NtNtCs5xYBAi2tWzh_3fvm12call_manager7defaultINtBc_18DefaultCallManagerpE13send_resolvedpEs_000Bg_
FNDA:0,_RNvXININtNtCs5xYBAi2tWzh_3fvm12call_manager7defaults0_0pEINtB5_18DefaultCallManagerpENtB7_11CallManager11gas_trackerB9_
FNDA:0,_RNvXININtNtCs5xYBAi2tWzh_3fvm12call_manager7defaults0_0pEINtB5_18DefaultCallManagerpENtB7_11CallManager6finishB9_
FNDA:0,_RNCNCINvMs1_NtNtCs5xYBAi2tWzh_3fvm12call_manager7defaultINtBa_18DefaultCallManagerpE13send_resolvedpEs_00Be_
FNDA:0,_RINvXININtNtCs5xYBAi2tWzh_3fvm12call_manager7defaults0_0pEINtB6_18DefaultCallManagerpENtB8_11CallManager16with_transactionpEBa_
FNDA:0,_RNCNCNCINvMs1_NtNtCs5xYBAi2tWzh_3fvm12call_manager7defaultINtBc_18DefaultCallManagerpE13send_resolvedpEs_00s_0Bg_
FNF:31
FNH:0
DA:28,0
DA:54,0
DA:55,0
DA:56,0
DA:61,0
DA:62,0
DA:63,0
DA:72,0
DA:73,0
DA:74,0
DA:75,0
DA:76,0
DA:77,0
DA:78,0
DA:79,0
DA:80,0
DA:81,0
DA:82,0
DA:83,0
DA:85,0
DA:86,0
DA:87,0
DA:88,0
DA:89,0
DA:90,0
DA:91,0
DA:92,0
DA:93,0
DA:94,0
DA:95,0
DA:96,0
DA:97,0
DA:98,0
DA:99,0
DA:100,0
DA:101,0
DA:102,0
DA:103,0
DA:104,0
DA:105,0
DA:106,0
DA:107,0
DA:122,0
DA:123,0
DA:124,0
DA:125,0
DA:126,0
DA:127,0
DA:128,0
DA:129,0
DA:130,0
DA:131,0
DA:132,0
DA:133,0
DA:134,0
DA:135,0
DA:136,0
DA:137,0
DA:138,0
DA:140,0
DA:141,0
DA:142,0
DA:143,0
DA:145,0
DA:147,0
DA:149,0
DA:151,0
DA:152,0
DA:154,0
DA:155,0
DA:156,0
DA:157,0
DA:158,0
DA:159,0
DA:160,0
DA:161,0
DA:163,0
DA:164,0
DA:165,0
DA:167,0
DA:168,0
DA:169,0
DA:170,0
DA:171,0
DA:172,0
DA:173,0
DA:174,0
DA:175,0
DA:176,0
DA:177,0
DA:178,0
DA:179,0
DA:180,0
DA:184,0
DA:185,0
DA:186,0
DA:188,0
DA:189,0
DA:190,0
DA:192,0
DA:193,0
DA:194,0
DA:196,0
DA:197,0
DA:198,0
DA:202,0
DA:203,0
DA:204,0
DA:206,0
DA:207,0
DA:208,0
DA:212,0
DA:213,0
DA:214,0
DA:215,0
DA:216,0
DA:227,0
DA:229,0
DA:230,0
DA:231,0
DA:232,0
DA:233,0
DA:236,0
DA:237,0
DA:238,0
DA:239,0
DA:240,0
DA:241,0
DA:242,0
DA:247,0
DA:248,0
DA:249,0
DA:250,0
DA:251,0
DA:254,0
DA:255,0
DA:257,0
DA:258,0
DA:259,0
DA:260,0
DA:261,0
DA:262,0
DA:263,0
DA:265,0
DA:266,0
DA:269,0
DA:270,0
DA:271,0
DA:272,0
DA:273,0
DA:274,0
DA:275,0
DA:276,0
DA:277,0
DA:278,0
DA:279,0
DA:281,0
DA:282,0
DA:283,0
DA:286,0
DA:288,0
DA:294,0
DA:295,0
DA:298,0
DA:299,0
DA:300,0
DA:301,0
DA:302,0
DA:303,0
DA:304,0
DA:305,0
DA:306,0
DA:307,0
DA:308,0
DA:310,0
DA:311,0
DA:312,0
DA:313,0
DA:316,0
DA:319,0
DA:320,0
DA:321,0
DA:324,0
DA:325,0
DA:326,0
DA:327,0
DA:328,0
DA:329,0
DA:330,0
DA:331,0
DA:332,0
DA:334,0
DA:339,0
DA:340,0
DA:341,0
DA:342,0
DA:343,0
DA:344,0
DA:345,0
DA:346,0
DA:347,0
DA:348,0
DA:349,0
DA:350,0
DA:352,0
DA:353,0
DA:354,0
DA:355,0
DA:358,0
DA:359,0
DA:360,0
DA:361,0
DA:362,0
DA:365,0
DA:366,0
DA:367,0
DA:368,0
DA:371,0
DA:374,0
DA:375,0
DA:376,0
DA:377,0
DA:381,0
DA:386,0
DA:387,0
DA:388,0
DA:389,0
DA:390,0
DA:391,0
DA:392,0
DA:393,0
DA:394,0
DA:395,0
DA:396,0
DA:397,0
DA:399,0
DA:400,0
DA:401,0
DA:402,0
DA:403,0
DA:404,0
DA:406,0
DA:409,0
DA:410,0
DA:411,0
DA:412,0
DA:413,0
DA:414,0
DA:416,0
DA:417,0
DA:418,0
DA:420,0
DA:421,0
DA:422,0
DA:423,0
DA:424,0
DA:425,0
DA:426,0
DA:427,0
DA:428,0
DA:429,0
DA:432,0
DA:433,0
DA:434,0
DA:435,0
DA:436,0
DA:437,0
DA:438,0
DA:439,0
DA:444,0
DA:445,0
DA:446,0
DA:447,0
DA:448,0
DA:449,0
DA:450,0
DA:451,0
DA:453,0
DA:455,0
DA:457,0
DA:458,0
DA:459,0
DA:461,0
DA:462,0
DA:463,0
DA:464,0
DA:465,0
DA:466,0
BRF:0
BRH:0
LF:306
LH:0
end_of_record
SF:/home/mriise/Projects/ref-fvm/fvm/src/call_manager/mod.rs
FN:133,_RNvXNtCs2gD7la8YEGu_3fvm12call_managerNtB2_16InvocationResultNtNtCslBoGNiFC398_4core7default7Default7default
FN:118,_RNvYpNtNtCs2gD7la8YEGu_3fvm12call_manager11CallManager10charge_gasB7_
FN:124,_RNvXs0_NtCs2gD7la8YEGu_3fvm12call_managerNtB5_16InvocationResultNtNtCslBoGNiFC398_4core5clone5Clone5cloneB7_
FN:141,_RNvMs_NtCs2gD7la8YEGu_3fvm12call_managerNtB4_16InvocationResult9exit_code
FN:107,_RNvYpNtNtCs2gD7la8YEGu_3fvm12call_manager11CallManager10state_treeB7_
FN:92,_RNvYpNtNtCs2gD7la8YEGu_3fvm12call_manager11CallManager7contextB7_
FN:87,_RNvYpNtNtCs2gD7la8YEGu_3fvm12call_manager11CallManager10price_listB7_
FN:97,_RNvYpNtNtCs2gD7la8YEGu_3fvm12call_manager11CallManager10blockstoreB7_
FN:124,_RNvXs1_NtCs2gD7la8YEGu_3fvm12call_managerNtB5_16InvocationResultNtNtCslBoGNiFC398_4core3fmt5Debug3fmt
FN:102,_RNvYpNtNtCs2gD7la8YEGu_3fvm12call_manager11CallManager7externsB7_
FN:112,_RNvYpNtNtCs2gD7la8YEGu_3fvm12call_manager11CallManager14state_tree_mutB7_
FN:87,_RNvYNtNtCs4BSQmiRtlYl_3fvm5dummy16DummyCallManagerNtNtCs5xYBAi2tWzh_3fvm12call_manager11CallManager10price_listB6_
FN:97,_RNvYNtNtCs4BSQmiRtlYl_3fvm5dummy16DummyCallManagerNtNtCs5xYBAi2tWzh_3fvm12call_manager11CallManager10blockstoreB6_
FN:107,_RNvYpNtNtCs5xYBAi2tWzh_3fvm12call_manager11CallManager10state_treeB7_
FN:133,_RNvXNtCs5xYBAi2tWzh_3fvm12call_managerNtB2_16InvocationResultNtNtCslBoGNiFC398_4core7default7Default7default
FN:102,_RNvYpNtNtCs5xYBAi2tWzh_3fvm12call_manager11CallManager7externsB7_
FN:92,_RNvYpNtNtCs5xYBAi2tWzh_3fvm12call_manager11CallManager7contextB7_
FN:87,_RNvYpNtNtCs5xYBAi2tWzh_3fvm12call_manager11CallManager10price_listB7_
FN:124,_RNvXs0_NtCs5xYBAi2tWzh_3fvm12call_managerNtB5_16InvocationResultNtNtCslBoGNiFC398_4core5clone5Clone5cloneB7_
FN:97,_RNvYpNtNtCs5xYBAi2tWzh_3fvm12call_manager11CallManager10blockstoreB7_
FN:141,_RNvMs_NtCs5xYBAi2tWzh_3fvm12call_managerNtB4_16InvocationResult9exit_code
FN:118,_RNvYpNtNtCs5xYBAi2tWzh_3fvm12call_manager11CallManager10charge_gasB7_
FN:112,_RNvYpNtNtCs5xYBAi2tWzh_3fvm12call_manager11CallManager14state_tree_mutB7_
FN:124,_RNvXs1_NtCs5xYBAi2tWzh_3fvm12call_managerNtB5_16InvocationResultNtNtCslBoGNiFC398_4core3fmt5Debug3fmt
FNDA:0,_RNvXNtCs2gD7la8YEGu_3fvm12call_managerNtB2_16InvocationResultNtNtCslBoGNiFC398_4core7default7Default7default
FNDA:0,_RNvYpNtNtCs2gD7la8YEGu_3fvm12call_manager11CallManager10charge_gasB7_
FNDA:0,_RNvXs0_NtCs2gD7la8YEGu_3fvm12call_managerNtB5_16InvocationResultNtNtCslBoGNiFC398_4core5clone5Clone5cloneB7_
FNDA:0,_RNvMs_NtCs2gD7la8YEGu_3fvm12call_managerNtB4_16InvocationResult9exit_code
FNDA:0,_RNvYpNtNtCs2gD7la8YEGu_3fvm12call_manager11CallManager10state_treeB7_
FNDA:0,_RNvYpNtNtCs2gD7la8YEGu_3fvm12call_manager11CallManager7contextB7_
FNDA:0,_RNvYpNtNtCs2gD7la8YEGu_3fvm12call_manager11CallManager10price_listB7_
FNDA:0,_RNvYpNtNtCs2gD7la8YEGu_3fvm12call_manager11CallManager10blockstoreB7_
FNDA:0,_RNvXs1_NtCs2gD7la8YEGu_3fvm12call_managerNtB5_16InvocationResultNtNtCslBoGNiFC398_4core3fmt5Debug3fmt
FNDA:0,_RNvYpNtNtCs2gD7la8YEGu_3fvm12call_manager11CallManager7externsB7_
FNDA:0,_RNvYpNtNtCs2gD7la8YEGu_3fvm12call_manager11CallManager14state_tree_mutB7_
FNDA:38,_RNvYNtNtCs4BSQmiRtlYl_3fvm5dummy16DummyCallManagerNtNtCs5xYBAi2tWzh_3fvm12call_manager11CallManager10price_listB6_
FNDA:5,_RNvYNtNtCs4BSQmiRtlYl_3fvm5dummy16DummyCallManagerNtNtCs5xYBAi2tWzh_3fvm12call_manager11CallManager10blockstoreB6_
FNDA:0,_RNvYpNtNtCs5xYBAi2tWzh_3fvm12call_manager11CallManager10state_treeB7_
FNDA:0,_RNvXNtCs5xYBAi2tWzh_3fvm12call_managerNtB2_16InvocationResultNtNtCslBoGNiFC398_4core7default7Default7default
FNDA:0,_RNvYpNtNtCs5xYBAi2tWzh_3fvm12call_manager11CallManager7externsB7_
FNDA:0,_RNvYpNtNtCs5xYBAi2tWzh_3fvm12call_manager11CallManager7contextB7_
FNDA:0,_RNvYpNtNtCs5xYBAi2tWzh_3fvm12call_manager11CallManager10price_listB7_
FNDA:0,_RNvXs0_NtCs5xYBAi2tWzh_3fvm12call_managerNtB5_16InvocationResultNtNtCslBoGNiFC398_4core5clone5Clone5cloneB7_
FNDA:0,_RNvYpNtNtCs5xYBAi2tWzh_3fvm12call_manager11CallManager10blockstoreB7_
FNDA:0,_RNvMs_NtCs5xYBAi2tWzh_3fvm12call_managerNtB4_16InvocationResult9exit_code
FNDA:0,_RNvYpNtNtCs5xYBAi2tWzh_3fvm12call_manager11CallManager10charge_gasB7_
FNDA:0,_RNvYpNtNtCs5xYBAi2tWzh_3fvm12call_manager11CallManager14state_tree_mutB7_
FNDA:0,_RNvXs1_NtCs5xYBAi2tWzh_3fvm12call_managerNtB5_16InvocationResultNtNtCslBoGNiFC398_4core3fmt5Debug3fmt
FNF:11
FNH:2
DA:87,38
DA:88,38
DA:89,38
DA:92,0
DA:93,0
DA:94,0
DA:97,5
DA:98,5
DA:99,5
DA:102,0
DA:103,0
DA:104,0
DA:107,0
DA:108,0
DA:109,0
DA:112,0
DA:113,0
DA:114,0
DA:118,0
DA:119,0
DA:120,0
DA:124,0
DA:133,0
DA:134,0
DA:135,0
DA:141,0
DA:142,0
DA:143,0
DA:144,0
DA:146,0
BRF:0
BRH:0
LF:31
LH:6
end_of_record
SF:/home/mriise/Projects/ref-fvm/fvm/src/executor/default.rs
FN:109,_RNCNvXININtNtCs2gD7la8YEGu_3fvm8executor7defaults0_0pEINtB7_15DefaultExecutorpENtB9_8Executor15execute_messages_0Bb_
FN:43,_RNvXININtNtCs2gD7la8YEGu_3fvm8executor7defaults_0pEINtB5_15DefaultExecutorpENtNtNtCslBoGNiFC398_4core3ops5deref8DerefMut9deref_mutB9_
FN:55,_RNvXININtNtCs2gD7la8YEGu_3fvm8executor7defaults0_0pEINtB5_15DefaultExecutorpENtB7_8Executor15execute_messageB9_
FN:37,_RNvXININtNtCs2gD7la8YEGu_3fvm8executor7default0pEINtB5_15DefaultExecutorpENtNtNtCslBoGNiFC398_4core3ops5deref5Deref5derefB9_
FN:271,_RNCNvMs1_NtNtCs2gD7la8YEGu_3fvm8executor7defaultINtB7_15DefaultExecutorpE17preflight_message0Bb_
FN:376,_RNCNvMs1_NtNtCs2gD7la8YEGu_3fvm8executor7defaultINtB7_15DefaultExecutorpE14finish_message0Bb_
FN:344,_RNCNvMs1_NtNtCs2gD7la8YEGu_3fvm8executor7defaultINtB7_15DefaultExecutorpE17preflight_messages0_0Bb_
FN:206,_RNvXININtNtCs2gD7la8YEGu_3fvm8executor7defaults0_0pEINtB5_15DefaultExecutorpENtB7_8Executor5flushB9_
FN:352,_RNvMs1_NtNtCs2gD7la8YEGu_3fvm8executor7defaultINtB5_15DefaultExecutorpE14finish_messageB9_
FN:428,_RNCINvMs1_NtNtCs2gD7la8YEGu_3fvm8executor7defaultINtB8_15DefaultExecutorpE11map_machineppE0Bc_
FN:223,_RNvMs1_NtNtCs2gD7la8YEGu_3fvm8executor7defaultINtB5_15DefaultExecutorpE12into_machineB9_
FN:420,_RINvMs1_NtNtCs2gD7la8YEGu_3fvm8executor7defaultINtB6_15DefaultExecutorpE11map_machineppEBa_
FN:238,_RNvMs1_NtNtCs2gD7la8YEGu_3fvm8executor7defaultINtB5_15DefaultExecutorpE17preflight_messageB9_
FN:90,_RNCNCNCNvXININtNtCs2gD7la8YEGu_3fvm8executor7defaults0_0pEINtBb_15DefaultExecutorpENtBd_8Executor15execute_message000Bf_
FN:69,_RNCNvXININtNtCs2gD7la8YEGu_3fvm8executor7defaults0_0pEINtB7_15DefaultExecutorpENtB9_8Executor15execute_message0Bb_
FN:385,_RNCNCNvMs1_NtNtCs2gD7la8YEGu_3fvm8executor7defaultINtB9_15DefaultExecutorpE14finish_message00Bd_
FN:186,_RNCNvXININtNtCs2gD7la8YEGu_3fvm8executor7defaults0_0pEINtB7_15DefaultExecutorpENtB9_8Executor15execute_messages0_0Bb_
FN:83,_RNCNCNvXININtNtCs2gD7la8YEGu_3fvm8executor7defaults0_0pEINtB9_15DefaultExecutorpENtBb_8Executor15execute_message00Bd_
FN:429,_RNCINvMs1_NtNtCs2gD7la8YEGu_3fvm8executor7defaultINtB8_15DefaultExecutorpE11map_machineppEs_0Bc_
FN:290,_RNCNvMs1_NtNtCs2gD7la8YEGu_3fvm8executor7defaultINtB7_15DefaultExecutorpE17preflight_messages_0Bb_
FN:217,_RNvMs1_NtNtCs2gD7la8YEGu_3fvm8executor7defaultINtB5_15DefaultExecutorINtNtNtB9_6kernel7default13DefaultKernelINtNtNtB9_12call_manager7default18DefaultCallManagerINtNtCsc0YPw4IdecV_5alloc5boxed3BoxINtNtNtB9_7machine7default14DefaultMachineNtNtCslbkBntY5hAO_19fvm_ipld_blockstore6memory16MemoryBlockstoreNtNtB9_4test12DummyExternsEEEEE3newB9_
FN:238,_RNvMs1_NtNtCs5xYBAi2tWzh_3fvm8executor7defaultINtB5_15DefaultExecutorpE17preflight_messageB9_
FN:90,_RNCNCNCNvXININtNtCs5xYBAi2tWzh_3fvm8executor7defaults0_0pEINtBb_15DefaultExecutorpENtBd_8Executor15execute_message000Bf_
FN:37,_RNvXININtNtCs5xYBAi2tWzh_3fvm8executor7default0pEINtB5_15DefaultExecutorpENtNtNtCslBoGNiFC398_4core3ops5deref5Deref5derefB9_
FN:429,_RNCINvMs1_NtNtCs5xYBAi2tWzh_3fvm8executor7defaultINtB8_15DefaultExecutorpE11map_machineppEs_0Bc_
FN:109,_RNCNvXININtNtCs5xYBAi2tWzh_3fvm8executor7defaults0_0pEINtB7_15DefaultExecutorpENtB9_8Executor15execute_messages_0Bb_
FN:186,_RNCNvXININtNtCs5xYBAi2tWzh_3fvm8executor7defaults0_0pEINtB7_15DefaultExecutorpENtB9_8Executor15execute_messages0_0Bb_
FN:352,_RNvMs1_NtNtCs5xYBAi2tWzh_3fvm8executor7defaultINtB5_15DefaultExecutorpE14finish_messageB9_
FN:420,_RINvMs1_NtNtCs5xYBAi2tWzh_3fvm8executor7defaultINtB6_15DefaultExecutorpE11map_machineppEBa_
FN:223,_RNvMs1_NtNtCs5xYBAi2tWzh_3fvm8executor7defaultINtB5_15DefaultExecutorpE12into_machineB9_
FN:376,_RNCNvMs1_NtNtCs5xYBAi2tWzh_3fvm8executor7defaultINtB7_15DefaultExecutorpE14finish_message0Bb_
FN:69,_RNCNvXININtNtCs5xYBAi2tWzh_3fvm8executor7defaults0_0pEINtB7_15DefaultExecutorpENtB9_8Executor15execute_message0Bb_
FN:344,_RNCNvMs1_NtNtCs5xYBAi2tWzh_3fvm8executor7defaultINtB7_15DefaultExecutorpE17preflight_messages0_0Bb_
FN:385,_RNCNCNvMs1_NtNtCs5xYBAi2tWzh_3fvm8executor7defaultINtB9_15DefaultExecutorpE14finish_message00Bd_
FN:206,_RNvXININtNtCs5xYBAi2tWzh_3fvm8executor7defaults0_0pEINtB5_15DefaultExecutorpENtB7_8Executor5flushB9_
FN:217,_RNvMs1_NtNtCs5xYBAi2tWzh_3fvm8executor7defaultINtB5_15DefaultExecutorpE3newB9_
FN:83,_RNCNCNvXININtNtCs5xYBAi2tWzh_3fvm8executor7defaults0_0pEINtB9_15DefaultExecutorpENtBb_8Executor15execute_message00Bd_
FN:290,_RNCNvMs1_NtNtCs5xYBAi2tWzh_3fvm8executor7defaultINtB7_15DefaultExecutorpE17preflight_messages_0Bb_
FN:271,_RNCNvMs1_NtNtCs5xYBAi2tWzh_3fvm8executor7defaultINtB7_15DefaultExecutorpE17preflight_message0Bb_
FN:43,_RNvXININtNtCs5xYBAi2tWzh_3fvm8executor7defaults_0pEINtB5_15DefaultExecutorpENtNtNtCslBoGNiFC398_4core3ops5deref8DerefMut9deref_mutB9_
FN:428,_RNCINvMs1_NtNtCs5xYBAi2tWzh_3fvm8executor7defaultINtB8_15DefaultExecutorpE11map_machineppE0Bc_
FN:55,_RNvXININtNtCs5xYBAi2tWzh_3fvm8executor7defaults0_0pEINtB5_15DefaultExecutorpENtB7_8Executor15execute_messageB9_
FNDA:0,_RNCNvXININtNtCs2gD7la8YEGu_3fvm8executor7defaults0_0pEINtB7_15DefaultExecutorpENtB9_8Executor15execute_messages_0Bb_
FNDA:0,_RNvXININtNtCs2gD7la8YEGu_3fvm8executor7defaults_0pEINtB5_15DefaultExecutorpENtNtNtCslBoGNiFC398_4core3ops5deref8DerefMut9deref_mutB9_
FNDA:0,_RNvXININtNtCs2gD7la8YEGu_3fvm8executor7defaults0_0pEINtB5_15DefaultExecutorpENtB7_8Executor15execute_messageB9_
FNDA:0,_RNvXININtNtCs2gD7la8YEGu_3fvm8executor7default0pEINtB5_15DefaultExecutorpENtNtNtCslBoGNiFC398_4core3ops5deref5Deref5derefB9_
FNDA:0,_RNCNvMs1_NtNtCs2gD7la8YEGu_3fvm8executor7defaultINtB7_15DefaultExecutorpE17preflight_message0Bb_
FNDA:0,_RNCNvMs1_NtNtCs2gD7la8YEGu_3fvm8executor7defaultINtB7_15DefaultExecutorpE14finish_message0Bb_
FNDA:0,_RNCNvMs1_NtNtCs2gD7la8YEGu_3fvm8executor7defaultINtB7_15DefaultExecutorpE17preflight_messages0_0Bb_
FNDA:0,_RNvXININtNtCs2gD7la8YEGu_3fvm8executor7defaults0_0pEINtB5_15DefaultExecutorpENtB7_8Executor5flushB9_
FNDA:0,_RNvMs1_NtNtCs2gD7la8YEGu_3fvm8executor7defaultINtB5_15DefaultExecutorpE14finish_messageB9_
FNDA:0,_RNCINvMs1_NtNtCs2gD7la8YEGu_3fvm8executor7defaultINtB8_15DefaultExecutorpE11map_machineppE0Bc_
FNDA:0,_RNvMs1_NtNtCs2gD7la8YEGu_3fvm8executor7defaultINtB5_15DefaultExecutorpE12into_machineB9_
FNDA:0,_RINvMs1_NtNtCs2gD7la8YEGu_3fvm8executor7defaultINtB6_15DefaultExecutorpE11map_machineppEBa_
FNDA:0,_RNvMs1_NtNtCs2gD7la8YEGu_3fvm8executor7defaultINtB5_15DefaultExecutorpE17preflight_messageB9_
FNDA:0,_RNCNCNCNvXININtNtCs2gD7la8YEGu_3fvm8executor7defaults0_0pEINtBb_15DefaultExecutorpENtBd_8Executor15execute_message000Bf_
FNDA:0,_RNCNvXININtNtCs2gD7la8YEGu_3fvm8executor7defaults0_0pEINtB7_15DefaultExecutorpENtB9_8Executor15execute_message0Bb_
FNDA:0,_RNCNCNvMs1_NtNtCs2gD7la8YEGu_3fvm8executor7defaultINtB9_15DefaultExecutorpE14finish_message00Bd_
FNDA:0,_RNCNvXININtNtCs2gD7la8YEGu_3fvm8executor7defaults0_0pEINtB7_15DefaultExecutorpENtB9_8Executor15execute_messages0_0Bb_
FNDA:0,_RNCNCNvXININtNtCs2gD7la8YEGu_3fvm8executor7defaults0_0pEINtB9_15DefaultExecutorpENtBb_8Executor15execute_message00Bd_
FNDA:0,_RNCINvMs1_NtNtCs2gD7la8YEGu_3fvm8executor7defaultINtB8_15DefaultExecutorpE11map_machineppEs_0Bc_
FNDA:0,_RNCNvMs1_NtNtCs2gD7la8YEGu_3fvm8executor7defaultINtB7_15DefaultExecutorpE17preflight_messages_0Bb_
FNDA:1,_RNvMs1_NtNtCs2gD7la8YEGu_3fvm8executor7defaultINtB5_15DefaultExecutorINtNtNtB9_6kernel7default13DefaultKernelINtNtNtB9_12call_manager7default18DefaultCallManagerINtNtCsc0YPw4IdecV_5alloc5boxed3BoxINtNtNtB9_7machine7default14DefaultMachineNtNtCslbkBntY5hAO_19fvm_ipld_blockstore6memory16MemoryBlockstoreNtNtB9_4test12DummyExternsEEEEE3newB9_
FNDA:0,_RNvMs1_NtNtCs5xYBAi2tWzh_3fvm8executor7defaultINtB5_15DefaultExecutorpE17preflight_messageB9_
FNDA:0,_RNCNCNCNvXININtNtCs5xYBAi2tWzh_3fvm8executor7defaults0_0pEINtBb_15DefaultExecutorpENtBd_8Executor15execute_message000Bf_
FNDA:0,_RNvXININtNtCs5xYBAi2tWzh_3fvm8executor7default0pEINtB5_15DefaultExecutorpENtNtNtCslBoGNiFC398_4core3ops5deref5Deref5derefB9_
FNDA:0,_RNCINvMs1_NtNtCs5xYBAi2tWzh_3fvm8executor7defaultINtB8_15DefaultExecutorpE11map_machineppEs_0Bc_
FNDA:0,_RNCNvXININtNtCs5xYBAi2tWzh_3fvm8executor7defaults0_0pEINtB7_15DefaultExecutorpENtB9_8Executor15execute_messages_0Bb_
FNDA:0,_RNCNvXININtNtCs5xYBAi2tWzh_3fvm8executor7defaults0_0pEINtB7_15DefaultExecutorpENtB9_8Executor15execute_messages0_0Bb_
FNDA:0,_RNvMs1_NtNtCs5xYBAi2tWzh_3fvm8executor7defaultINtB5_15DefaultExecutorpE14finish_messageB9_
FNDA:0,_RINvMs1_NtNtCs5xYBAi2tWzh_3fvm8executor7defaultINtB6_15DefaultExecutorpE11map_machineppEBa_
FNDA:0,_RNvMs1_NtNtCs5xYBAi2tWzh_3fvm8executor7defaultINtB5_15DefaultExecutorpE12into_machineB9_
FNDA:0,_RNCNvMs1_NtNtCs5xYBAi2tWzh_3fvm8executor7defaultINtB7_15DefaultExecutorpE14finish_message0Bb_
FNDA:0,_RNCNvXININtNtCs5xYBAi2tWzh_3fvm8executor7defaults0_0pEINtB7_15DefaultExecutorpENtB9_8Executor15execute_message0Bb_
FNDA:0,_RNCNvMs1_NtNtCs5xYBAi2tWzh_3fvm8executor7defaultINtB7_15DefaultExecutorpE17preflight_messages0_0Bb_
FNDA:0,_RNCNCNvMs1_NtNtCs5xYBAi2tWzh_3fvm8executor7defaultINtB9_15DefaultExecutorpE14finish_message00Bd_
FNDA:0,_RNvXININtNtCs5xYBAi2tWzh_3fvm8executor7defaults0_0pEINtB5_15DefaultExecutorpENtB7_8Executor5flushB9_
FNDA:0,_RNvMs1_NtNtCs5xYBAi2tWzh_3fvm8executor7defaultINtB5_15DefaultExecutorpE3newB9_
FNDA:0,_RNCNCNvXININtNtCs5xYBAi2tWzh_3fvm8executor7defaults0_0pEINtB9_15DefaultExecutorpENtBb_8Executor15execute_message00Bd_
FNDA:0,_RNCNvMs1_NtNtCs5xYBAi2tWzh_3fvm8executor7defaultINtB7_15DefaultExecutorpE17preflight_messages_0Bb_
FNDA:0,_RNCNvMs1_NtNtCs5xYBAi2tWzh_3fvm8executor7defaultINtB7_15DefaultExecutorpE17preflight_message0Bb_
FNDA:0,_RNvXININtNtCs5xYBAi2tWzh_3fvm8executor7defaults_0pEINtB5_15DefaultExecutorpENtNtNtCslBoGNiFC398_4core3ops5deref8DerefMut9deref_mutB9_
FNDA:0,_RNCINvMs1_NtNtCs5xYBAi2tWzh_3fvm8executor7defaultINtB8_15DefaultExecutorpE11map_machineppE0Bc_
FNDA:0,_RNvXININtNtCs5xYBAi2tWzh_3fvm8executor7defaults0_0pEINtB5_15DefaultExecutorpENtB7_8Executor15execute_messageB9_
FNF:21
FNH:1
DA:37,0
DA:38,0
DA:39,0
DA:43,0
DA:44,0
DA:45,0
DA:55,0
DA:56,0
DA:57,0
DA:58,0
DA:59,0
DA:60,0
DA:62,0
DA:63,0
DA:64,0
DA:65,0
DA:69,0
DA:70,0
DA:73,0
DA:74,0
DA:75,0
DA:77,0
DA:78,0
DA:80,0
DA:83,0
DA:85,0
DA:88,0
DA:89,0
DA:90,0
DA:91,0
DA:92,0
DA:94,0
DA:95,0
DA:96,0
DA:97,0
DA:98,0
DA:99,0
DA:100,0
DA:101,0
DA:104,0
DA:105,0
DA:106,0
DA:107,0
DA:108,0
DA:109,0
DA:110,0
DA:111,0
DA:112,0
DA:113,0
DA:114,0
DA:115,0
DA:116,0
DA:117,0
DA:119,0
DA:120,0
DA:121,0
DA:122,0
DA:123,0
DA:124,0
DA:125,0
DA:126,0
DA:127,0
DA:129,0
DA:130,0
DA:131,0
DA:132,0
DA:133,0
DA:134,0
DA:138,0
DA:139,0
DA:140,0
DA:141,0
DA:144,0
DA:145,0
DA:146,0
DA:147,0
DA:148,0
DA:149,0
DA:151,0
DA:152,0
DA:153,0
DA:154,0
DA:155,0
DA:156,0
DA:157,0
DA:158,0
DA:159,0
DA:160,0
DA:161,0
DA:162,0
DA:163,0
DA:164,0
DA:165,0
DA:166,0
DA:167,0
DA:168,0
DA:169,0
DA:170,0
DA:171,0
DA:172,0
DA:173,0
DA:177,0
DA:178,0
DA:180,0
DA:183,0
DA:184,0
DA:185,0
DA:186,0
DA:187,0
DA:188,0
DA:189,0
DA:190,0
DA:191,0
DA:192,0
DA:193,0
DA:194,0
DA:195,0
DA:196,0
DA:197,0
DA:198,0
DA:199,0
DA:200,0
DA:201,0
DA:203,0
DA:206,0
DA:207,0
DA:208,0
DA:209,0
DA:217,1
DA:218,1
DA:219,1
DA:223,0
DA:224,0
DA:225,0
DA:238,0
DA:242,0
DA:244,0
DA:245,0
DA:246,0
DA:247,0
DA:248,0
DA:250,0
DA:251,0
DA:252,0
DA:253,0
DA:254,0
DA:255,0
DA:256,0
DA:257,0
DA:258,0
DA:259,0
DA:260,0
DA:261,0
DA:262,0
DA:263,0
DA:268,0
DA:269,0
DA:270,0
DA:271,0
DA:273,0
DA:275,0
DA:276,0
DA:277,0
DA:278,0
DA:279,0
DA:283,0
DA:284,0
DA:285,0
DA:287,0
DA:288,0
DA:289,0
DA:290,0
DA:292,0
DA:294,0
DA:295,0
DA:296,0
DA:297,0
DA:298,0
DA:303,0
DA:304,0
DA:305,0
DA:306,0
DA:307,0
DA:308,0
DA:309,0
DA:310,0
DA:311,0
DA:312,0
DA:313,0
DA:314,0
DA:315,0
DA:316,0
DA:317,0
DA:318,0
DA:319,0
DA:320,0
DA:321,0
DA:322,0
DA:323,0
DA:324,0
DA:325,0
DA:326,0
DA:327,0
DA:328,0
DA:329,0
DA:330,0
DA:331,0
DA:332,0
DA:333,0
DA:334,0
DA:335,0
DA:336,0
DA:337,0
DA:338,0
DA:339,0
DA:340,0
DA:341,0
DA:342,0
DA:343,0
DA:344,0
DA:345,0
DA:346,0
DA:347,0
DA:349,0
DA:350,0
DA:352,0
DA:353,0
DA:354,0
DA:355,0
DA:356,0
DA:357,0
DA:358,0
DA:359,0
DA:360,0
DA:361,0
DA:362,0
DA:363,0
DA:364,0
DA:365,0
DA:366,0
DA:367,0
DA:368,0
DA:369,0
DA:370,0
DA:371,0
DA:372,0
DA:373,0
DA:374,0
DA:375,0
DA:376,0
DA:377,0
DA:378,0
DA:379,0
DA:380,0
DA:381,0
DA:382,0
DA:383,0
DA:384,0
DA:385,0
DA:386,0
DA:387,0
DA:388,0
DA:389,0
DA:390,0
DA:391,0
DA:393,0
DA:395,0
DA:397,0
DA:400,0
DA:402,0
DA:404,0
DA:405,0
DA:406,0
DA:407,0
DA:408,0
DA:409,0
DA:410,0
DA:411,0
DA:412,0
DA:413,0
DA:414,0
DA:415,0
DA:416,0
DA:417,0
DA:418,0
DA:420,0
DA:421,0
DA:422,0
DA:423,0
DA:424,0
DA:425,0
DA:426,0
DA:427,0
DA:428,0
DA:429,0
DA:430,0
DA:431,0
DA:432,0
DA:433,0
DA:434,0
BRF:0
BRH:0
LF:317
LH:3
end_of_record
SF:/home/mriise/Projects/ref-fvm/fvm/src/executor/mod.rs
FN:119,_RNvMs_NtCs2gD7la8YEGu_3fvm8executorNtB4_8ApplyRet17assign_from_slice
FN:130,_RNvXs7_NtCs2gD7la8YEGu_3fvm8executorNtB5_9ApplyKindNtNtCslBoGNiFC398_4core3cmp9PartialEq2eqB7_
FN:130,_RNvXsa_NtCs2gD7la8YEGu_3fvm8executorNtB5_9ApplyKindNtNtCslBoGNiFC398_4core3fmt5Debug3fmt
FN:96,_RINvMs_NtCs2gD7la8YEGu_3fvm8executorNtB5_8ApplyRet18prevalidation_failpEB7_
FN:72,_RNvXs2_NtCs2gD7la8YEGu_3fvm8executorNtB5_8ApplyRetNtNtCslBoGNiFC398_4core5clone5Clone5cloneB7_
FN:48,_RNvXs1_NtCs2gD7la8YEGu_3fvm8executorNtB5_12ApplyFailureNtNtCslBoGNiFC398_4core5clone5Clone5cloneB7_
FN:130,_RNvXs9_NtCs2gD7la8YEGu_3fvm8executorNtB5_9ApplyKindNtNtCslBoGNiFC398_4core5clone5Clone5cloneB7_
FN:72,_RNvXs3_NtCs2gD7la8YEGu_3fvm8executorNtB5_8ApplyRetNtNtCslBoGNiFC398_4core3fmt5Debug3fmt
FN:48,_RNvXs0_NtCs2gD7la8YEGu_3fvm8executorNtB5_12ApplyFailureNtNtCslBoGNiFC398_4core3fmt5Debug3fmt
FN:57,_RNvXNtCs2gD7la8YEGu_3fvm8executorNtB2_12ApplyFailureNtNtCslBoGNiFC398_4core3fmt7Display3fmt
FN:57,_RNvXNtCs5xYBAi2tWzh_3fvm8executorNtB2_12ApplyFailureNtNtCslBoGNiFC398_4core3fmt7Display3fmt
FN:119,_RNvMs_NtCs5xYBAi2tWzh_3fvm8executorNtB4_8ApplyRet17assign_from_slice
FN:48,_RNvXs0_NtCs5xYBAi2tWzh_3fvm8executorNtB5_12ApplyFailureNtNtCslBoGNiFC398_4core3fmt5Debug3fmt
FN:72,_RNvXs3_NtCs5xYBAi2tWzh_3fvm8executorNtB5_8ApplyRetNtNtCslBoGNiFC398_4core3fmt5Debug3fmt
FN:130,_RNvXsa_NtCs5xYBAi2tWzh_3fvm8executorNtB5_9ApplyKindNtNtCslBoGNiFC398_4core3fmt5Debug3fmt
FN:48,_RNvXs1_NtCs5xYBAi2tWzh_3fvm8executorNtB5_12ApplyFailureNtNtCslBoGNiFC398_4core5clone5Clone5cloneB7_
FN:72,_RNvXs2_NtCs5xYBAi2tWzh_3fvm8executorNtB5_8ApplyRetNtNtCslBoGNiFC398_4core5clone5Clone5cloneB7_
FN:96,_RINvMs_NtCs5xYBAi2tWzh_3fvm8executorNtB5_8ApplyRet18prevalidation_failpEB7_
FN:130,_RNvXs7_NtCs5xYBAi2tWzh_3fvm8executorNtB5_9ApplyKindNtNtCslBoGNiFC398_4core3cmp9PartialEq2eqB7_
FN:130,_RNvXs9_NtCs5xYBAi2tWzh_3fvm8executorNtB5_9ApplyKindNtNtCslBoGNiFC398_4core5clone5Clone5cloneB7_
FNDA:0,_RNvMs_NtCs2gD7la8YEGu_3fvm8executorNtB4_8ApplyRet17assign_from_slice
FNDA:0,_RNvXs7_NtCs2gD7la8YEGu_3fvm8executorNtB5_9ApplyKindNtNtCslBoGNiFC398_4core3cmp9PartialEq2eqB7_
FNDA:0,_RNvXsa_NtCs2gD7la8YEGu_3fvm8executorNtB5_9ApplyKindNtNtCslBoGNiFC398_4core3fmt5Debug3fmt
FNDA:0,_RINvMs_NtCs2gD7la8YEGu_3fvm8executorNtB5_8ApplyRet18prevalidation_failpEB7_
FNDA:0,_RNvXs2_NtCs2gD7la8YEGu_3fvm8executorNtB5_8ApplyRetNtNtCslBoGNiFC398_4core5clone5Clone5cloneB7_
FNDA:0,_RNvXs1_NtCs2gD7la8YEGu_3fvm8executorNtB5_12ApplyFailureNtNtCslBoGNiFC398_4core5clone5Clone5cloneB7_
FNDA:0,_RNvXs9_NtCs2gD7la8YEGu_3fvm8executorNtB5_9ApplyKindNtNtCslBoGNiFC398_4core5clone5Clone5cloneB7_
FNDA:0,_RNvXs3_NtCs2gD7la8YEGu_3fvm8executorNtB5_8ApplyRetNtNtCslBoGNiFC398_4core3fmt5Debug3fmt
FNDA:0,_RNvXs0_NtCs2gD7la8YEGu_3fvm8executorNtB5_12ApplyFailureNtNtCslBoGNiFC398_4core3fmt5Debug3fmt
FNDA:0,_RNvXNtCs2gD7la8YEGu_3fvm8executorNtB2_12ApplyFailureNtNtCslBoGNiFC398_4core3fmt7Display3fmt
FNDA:0,_RNvXNtCs5xYBAi2tWzh_3fvm8executorNtB2_12ApplyFailureNtNtCslBoGNiFC398_4core3fmt7Display3fmt
FNDA:0,_RNvMs_NtCs5xYBAi2tWzh_3fvm8executorNtB4_8ApplyRet17assign_from_slice
FNDA:0,_RNvXs0_NtCs5xYBAi2tWzh_3fvm8executorNtB5_12ApplyFailureNtNtCslBoGNiFC398_4core3fmt5Debug3fmt
FNDA:0,_RNvXs3_NtCs5xYBAi2tWzh_3fvm8executorNtB5_8ApplyRetNtNtCslBoGNiFC398_4core3fmt5Debug3fmt
FNDA:0,_RNvXsa_NtCs5xYBAi2tWzh_3fvm8executorNtB5_9ApplyKindNtNtCslBoGNiFC398_4core3fmt5Debug3fmt
FNDA:0,_RNvXs1_NtCs5xYBAi2tWzh_3fvm8executorNtB5_12ApplyFailureNtNtCslBoGNiFC398_4core5clone5Clone5cloneB7_
FNDA:0,_RNvXs2_NtCs5xYBAi2tWzh_3fvm8executorNtB5_8ApplyRetNtNtCslBoGNiFC398_4core5clone5Clone5cloneB7_
FNDA:0,_RINvMs_NtCs5xYBAi2tWzh_3fvm8executorNtB5_8ApplyRet18prevalidation_failpEB7_
FNDA:0,_RNvXs7_NtCs5xYBAi2tWzh_3fvm8executorNtB5_9ApplyKindNtNtCslBoGNiFC398_4core3cmp9PartialEq2eqB7_
FNDA:0,_RNvXs9_NtCs5xYBAi2tWzh_3fvm8executorNtB5_9ApplyKindNtNtCslBoGNiFC398_4core5clone5Clone5cloneB7_
FNF:10
FNH:0
DA:48,0
DA:57,0
DA:58,0
DA:59,0
DA:60,0
DA:61,0
DA:63,0
DA:64,0
DA:67,0
DA:68,0
DA:72,0
DA:96,0
DA:97,0
DA:98,0
DA:99,0
DA:100,0
DA:101,0
DA:102,0
DA:103,0
DA:104,0
DA:105,0
DA:106,0
DA:107,0
DA:108,0
DA:109,0
DA:110,0
DA:111,0
DA:112,0
DA:113,0
DA:114,0
DA:115,0
DA:116,0
DA:117,0
DA:119,0
DA:120,0
DA:121,0
DA:130,0
BRF:0
BRH:0
LF:41
LH:0
end_of_record
SF:/home/mriise/Projects/ref-fvm/fvm/src/executor/threaded.rs
FN:33,_RNvXININtNtCs2gD7la8YEGu_3fvm8executor8threaded0pEINtB5_16ThreadedExecutorpENtB7_8Executor15execute_messageB9_
FN:41,_RNCNvXININtNtCs2gD7la8YEGu_3fvm8executor8threaded0pEINtB7_16ThreadedExecutorpENtB9_8Executor15execute_message0Bb_
FN:48,_RNvXININtNtCs2gD7la8YEGu_3fvm8executor8threaded0pEINtB5_16ThreadedExecutorpENtB7_8Executor5flushB9_
FN:42,_RNCNCNvXININtNtCs2gD7la8YEGu_3fvm8executor8threaded0pEINtB9_16ThreadedExecutorpENtBb_8Executor15execute_message00Bd_
FN:48,_RNvXININtNtCs5xYBAi2tWzh_3fvm8executor8threaded0pEINtB5_16ThreadedExecutorpENtB7_8Executor5flushB9_
FN:33,_RNvXININtNtCs5xYBAi2tWzh_3fvm8executor8threaded0pEINtB5_16ThreadedExecutorpENtB7_8Executor15execute_messageB9_
FN:42,_RNCNCNvXININtNtCs5xYBAi2tWzh_3fvm8executor8threaded0pEINtB9_16ThreadedExecutorpENtBb_8Executor15execute_message00Bd_
FN:41,_RNCNvXININtNtCs5xYBAi2tWzh_3fvm8executor8threaded0pEINtB7_16ThreadedExecutorpENtB9_8Executor15execute_message0Bb_
FNDA:0,_RNvXININtNtCs2gD7la8YEGu_3fvm8executor8threaded0pEINtB5_16ThreadedExecutorpENtB7_8Executor15execute_messageB9_
FNDA:0,_RNCNvXININtNtCs2gD7la8YEGu_3fvm8executor8threaded0pEINtB7_16ThreadedExecutorpENtB9_8Executor15execute_message0Bb_
FNDA:0,_RNvXININtNtCs2gD7la8YEGu_3fvm8executor8threaded0pEINtB5_16ThreadedExecutorpENtB7_8Executor5flushB9_
FNDA:0,_RNCNCNvXININtNtCs2gD7la8YEGu_3fvm8executor8threaded0pEINtB9_16ThreadedExecutorpENtBb_8Executor15execute_message00Bd_
FNDA:0,_RNvXININtNtCs5xYBAi2tWzh_3fvm8executor8threaded0pEINtB5_16ThreadedExecutorpENtB7_8Executor5flushB9_
FNDA:0,_RNvXININtNtCs5xYBAi2tWzh_3fvm8executor8threaded0pEINtB5_16ThreadedExecutorpENtB7_8Executor15execute_messageB9_
FNDA:0,_RNCNCNvXININtNtCs5xYBAi2tWzh_3fvm8executor8threaded0pEINtB9_16ThreadedExecutorpENtBb_8Executor15execute_message00Bd_
FNDA:0,_RNCNvXININtNtCs5xYBAi2tWzh_3fvm8executor8threaded0pEINtB7_16ThreadedExecutorpENtB9_8Executor15execute_message0Bb_
FNF:4
FNH:0
DA:33,0
DA:34,0
DA:35,0
DA:36,0
DA:37,0
DA:38,0
DA:39,0
DA:40,0
DA:41,0
DA:42,0
DA:43,0
DA:44,0
DA:45,0
DA:46,0
DA:48,0
DA:49,0
DA:50,0
BRF:0
BRH:0
LF:20
LH:0
end_of_record
SF:/home/mriise/Projects/ref-fvm/fvm/src/gas/charge.rs
FN:27,_RNvMNtNtCs2gD7la8YEGu_3fvm3gas6chargeNtB2_9GasCharge5total
FN:17,_RNvMNtNtCs2gD7la8YEGu_3fvm3gas6chargeNtB2_9GasCharge3new
FN:27,_RNvMNtNtCs5xYBAi2tWzh_3fvm3gas6chargeNtB2_9GasCharge5total
FN:17,_RNvMNtNtCs5xYBAi2tWzh_3fvm3gas6chargeNtB2_9GasCharge3new
FNDA:3,_RNvMNtNtCs2gD7la8YEGu_3fvm3gas6chargeNtB2_9GasCharge5total
FNDA:3,_RNvMNtNtCs2gD7la8YEGu_3fvm3gas6chargeNtB2_9GasCharge3new
FNDA:43,_RNvMNtNtCs5xYBAi2tWzh_3fvm3gas6chargeNtB2_9GasCharge5total
FNDA:43,_RNvMNtNtCs5xYBAi2tWzh_3fvm3gas6chargeNtB2_9GasCharge3new
FNF:2
FNH:2
DA:17,46
DA:18,46
DA:19,46
DA:20,46
DA:21,46
DA:22,46
DA:23,46
DA:27,46
DA:28,46
DA:29,46
BRF:0
BRH:0
LF:10
LH:10
end_of_record
SF:/home/mriise/Projects/ref-fvm/fvm/src/gas/mod.rs
FN:24,_RNvXse_NtCs2gD7la8YEGu_3fvm3gasNtB5_3GasNtNtCslBoGNiFC398_4core3cmp3Ord3cmpB7_
FN:24,_RINvXs9_NtCs2gD7la8YEGu_3fvm3gasNtB6_3GasNtNtCslBoGNiFC398_4core4hash4Hash4hashpEB8_
FN:24,_RNvXsd_NtCs2gD7la8YEGu_3fvm3gasNtB5_3GasNtNtCslBoGNiFC398_4core3cmp9PartialEq2neB7_
FN:137,_RNvXs6_NtCs2gD7la8YEGu_3fvm3gasNtB5_3GasINtNtNtCslBoGNiFC398_4core3ops5arith3MulxE3mulB7_
FN:146,_RNvXs7_NtCs2gD7la8YEGu_3fvm3gasNtB5_3GasINtNtNtCslBoGNiFC398_4core3ops5arith3MullE3mulB7_
FN:74,_RNvMs0_NtCs2gD7la8YEGu_3fvm3gasNtB5_3Gas8round_upB7_
FN:80,_RNvMs0_NtCs2gD7la8YEGu_3fvm3gasNtB5_3Gas10round_downB7_
FN:119,_RNvXs4_NtCs2gD7la8YEGu_3fvm3gasNtB5_3GasNtNtNtCslBoGNiFC398_4core3ops5arith9SubAssign10sub_assignB7_
FN:24,_RNvXsi_NtCs2gD7la8YEGu_3fvm3gasNtB5_3GasNtNtCslBoGNiFC398_4core7default7Default7defaultB7_
FN:68,_RNvMs0_NtCs2gD7la8YEGu_3fvm3gasNtB5_3Gas12is_saturatedB7_
FN:24,_RNvXsh_NtCs2gD7la8YEGu_3fvm3gasNtB5_3GasNtNtCslBoGNiFC398_4core5clone5Clone5cloneB7_
FN:86,_RNvMs0_NtCs2gD7la8YEGu_3fvm3gasNtB5_3Gas11as_milligasB7_
FN:187,_RNvMs8_NtCs2gD7la8YEGu_3fvm3gasNtB5_10GasTracker9gas_limit
FN:128,_RNvXs5_NtCs2gD7la8YEGu_3fvm3gasNtB5_3GasNtNtNtCslBoGNiFC398_4core3ops5arith3Sub3subB7_
FN:96,_RNvXs1_NtCs2gD7la8YEGu_3fvm3gasNtB5_3GasNtNtCs2t1zYmUCWAW_10num_traits10identities4Zero7is_zero
FN:197,_RNvMs8_NtCs2gD7la8YEGu_3fvm3gasNtB5_10GasTracker13gas_available
FN:63,_RNvMs0_NtCs2gD7la8YEGu_3fvm3gasNtB5_3Gas3newB7_
FN:192,_RNvMs8_NtCs2gD7la8YEGu_3fvm3gasNtB5_10GasTracker8gas_used
FN:168,_RNvMs8_NtCs2gD7la8YEGu_3fvm3gasNtB5_10GasTracker10charge_gas
FN:24,_RNvXsd_NtCs2gD7la8YEGu_3fvm3gasNtB5_3GasNtNtCslBoGNiFC398_4core3cmp9PartialEq2eqB7_
FN:159,_RNvMs8_NtCs2gD7la8YEGu_3fvm3gasNtB5_10GasTracker3new
FN:105,_RNvXs2_NtCs2gD7la8YEGu_3fvm3gasNtB5_3GasNtNtNtCslBoGNiFC398_4core3ops5arith3Add3addB7_
FN:42,_RNvXs_NtCs2gD7la8YEGu_3fvm3gasNtB4_3GasNtNtCslBoGNiFC398_4core3fmt7Display3fmt
FN:204,_RNvNtCs2gD7la8YEGu_3fvm3gas15milligas_to_gasB3_
FN:28,_RNvXNtCs2gD7la8YEGu_3fvm3gasNtB2_3GasNtNtCslBoGNiFC398_4core3fmt5Debug3fmt
FN:112,_RNvXs3_NtCs2gD7la8YEGu_3fvm3gasNtB5_3GasNtNtNtCslBoGNiFC398_4core3ops5arith9AddAssign10add_assignB7_
FN:56,_RNvMs0_NtCs2gD7la8YEGu_3fvm3gasNtB5_3Gas13from_milligasB7_
FN:92,_RNvXs1_NtCs2gD7la8YEGu_3fvm3gasNtB5_3GasNtNtCs2t1zYmUCWAW_10num_traits10identities4Zero4zero
FN:182,_RNvMs8_NtCs2gD7la8YEGu_3fvm3gasNtB5_10GasTracker12apply_charge
FN:24,_RNvXsf_NtCs2gD7la8YEGu_3fvm3gasNtB5_3GasNtNtCslBoGNiFC398_4core3cmp10PartialOrd11partial_cmpB7_
FN:235,_RNvNtNtCs2gD7la8YEGu_3fvm3gas5testss_21milligas_to_gas_round
FN:222,_RNvNtNtCs2gD7la8YEGu_3fvm3gas5testss_17basic_gas_tracker
FN:234,_RNCNvNtNtCs2gD7la8YEGu_3fvm3gas5tests21milligas_to_gas_round0B7_
FN:220,_RNCNvNtNtCs2gD7la8YEGu_3fvm3gas5tests17basic_gas_tracker0B7_
FN:63,_RNvMs0_NtCs5xYBAi2tWzh_3fvm3gasNtB5_3Gas3newCs4BSQmiRtlYl_3fvm
FN:146,_RNvXs7_NtCs5xYBAi2tWzh_3fvm3gasNtB5_3GasINtNtNtCslBoGNiFC398_4core3ops5arith3MullE3mulCs4BSQmiRtlYl_3fvm
FN:137,_RNvXs6_NtCs5xYBAi2tWzh_3fvm3gasNtB5_3GasINtNtNtCslBoGNiFC398_4core3ops5arith3MulxE3mulCs4BSQmiRtlYl_3fvm
FN:24,_RNvXsd_NtCs5xYBAi2tWzh_3fvm3gasNtB5_3GasNtNtCslBoGNiFC398_4core3cmp9PartialEq2eqCs4BSQmiRtlYl_3fvm
FN:105,_RNvXs2_NtCs5xYBAi2tWzh_3fvm3gasNtB5_3GasNtNtNtCslBoGNiFC398_4core3ops5arith3Add3addCs4BSQmiRtlYl_3fvm
FN:204,_RNvNtCs5xYBAi2tWzh_3fvm3gas15milligas_to_gasB3_
FN:80,_RNvMs0_NtCs5xYBAi2tWzh_3fvm3gasNtB5_3Gas10round_downB7_
FN:24,_RNvXsi_NtCs5xYBAi2tWzh_3fvm3gasNtB5_3GasNtNtCslBoGNiFC398_4core7default7Default7defaultB7_
FN:119,_RNvXs4_NtCs5xYBAi2tWzh_3fvm3gasNtB5_3GasNtNtNtCslBoGNiFC398_4core3ops5arith9SubAssign10sub_assignB7_
FN:24,_RNvXsd_NtCs5xYBAi2tWzh_3fvm3gasNtB5_3GasNtNtCslBoGNiFC398_4core3cmp9PartialEq2neB7_
FN:24,_RNvXse_NtCs5xYBAi2tWzh_3fvm3gasNtB5_3GasNtNtCslBoGNiFC398_4core3cmp3Ord3cmpB7_
FN:146,_RNvXs7_NtCs5xYBAi2tWzh_3fvm3gasNtB5_3GasINtNtNtCslBoGNiFC398_4core3ops5arith3MullE3mulB7_
FN:74,_RNvMs0_NtCs5xYBAi2tWzh_3fvm3gasNtB5_3Gas8round_upB7_
FN:68,_RNvMs0_NtCs5xYBAi2tWzh_3fvm3gasNtB5_3Gas12is_saturatedB7_
FN:137,_RNvXs6_NtCs5xYBAi2tWzh_3fvm3gasNtB5_3GasINtNtNtCslBoGNiFC398_4core3ops5arith3MulxE3mulB7_
FN:24,_RNvXsh_NtCs5xYBAi2tWzh_3fvm3gasNtB5_3GasNtNtCslBoGNiFC398_4core5clone5Clone5cloneB7_
FN:24,_RNvXsf_NtCs5xYBAi2tWzh_3fvm3gasNtB5_3GasNtNtCslBoGNiFC398_4core3cmp10PartialOrd11partial_cmpB7_
FN:42,_RNvXs_NtCs5xYBAi2tWzh_3fvm3gasNtB4_3GasNtNtCslBoGNiFC398_4core3fmt7Display3fmt
FN:168,_RNvMs8_NtCs5xYBAi2tWzh_3fvm3gasNtB5_10GasTracker10charge_gas
FN:86,_RNvMs0_NtCs5xYBAi2tWzh_3fvm3gasNtB5_3Gas11as_milligasB7_
FN:92,_RNvXs1_NtCs5xYBAi2tWzh_3fvm3gasNtB5_3GasNtNtCs2t1zYmUCWAW_10num_traits10identities4Zero4zero
FN:105,_RNvXs2_NtCs5xYBAi2tWzh_3fvm3gasNtB5_3GasNtNtNtCslBoGNiFC398_4core3ops5arith3Add3addB7_
FN:112,_RNvXs3_NtCs5xYBAi2tWzh_3fvm3gasNtB5_3GasNtNtNtCslBoGNiFC398_4core3ops5arith9AddAssign10add_assignB7_
FN:56,_RNvMs0_NtCs5xYBAi2tWzh_3fvm3gasNtB5_3Gas13from_milligasB7_
FN:159,_RNvMs8_NtCs5xYBAi2tWzh_3fvm3gasNtB5_10GasTracker3new
FN:182,_RNvMs8_NtCs5xYBAi2tWzh_3fvm3gasNtB5_10GasTracker12apply_charge
FN:128,_RNvXs5_NtCs5xYBAi2tWzh_3fvm3gasNtB5_3GasNtNtNtCslBoGNiFC398_4core3ops5arith3Sub3subB7_
FN:192,_RNvMs8_NtCs5xYBAi2tWzh_3fvm3gasNtB5_10GasTracker8gas_used
FN:28,_RNvXNtCs5xYBAi2tWzh_3fvm3gasNtB2_3GasNtNtCslBoGNiFC398_4core3fmt5Debug3fmt
FN:96,_RNvXs1_NtCs5xYBAi2tWzh_3fvm3gasNtB5_3GasNtNtCs2t1zYmUCWAW_10num_traits10identities4Zero7is_zero
FN:24,_RINvXs9_NtCs5xYBAi2tWzh_3fvm3gasNtB6_3GasNtNtCslBoGNiFC398_4core4hash4Hash4hashNtNtNtNtCsduPDAHU5p59_3std11collections4hash3map13DefaultHasherEB8_
FN:24,_RNvXsd_NtCs5xYBAi2tWzh_3fvm3gasNtB5_3GasNtNtCslBoGNiFC398_4core3cmp9PartialEq2eqB7_
FN:187,_RNvMs8_NtCs5xYBAi2tWzh_3fvm3gasNtB5_10GasTracker9gas_limit
FN:197,_RNvMs8_NtCs5xYBAi2tWzh_3fvm3gasNtB5_10GasTracker13gas_available
FN:63,_RNvMs0_NtCs5xYBAi2tWzh_3fvm3gasNtB5_3Gas3newB7_
FNDA:0,_RNvXse_NtCs2gD7la8YEGu_3fvm3gasNtB5_3GasNtNtCslBoGNiFC398_4core3cmp3Ord3cmpB7_
FNDA:0,_RINvXs9_NtCs2gD7la8YEGu_3fvm3gasNtB6_3GasNtNtCslBoGNiFC398_4core4hash4Hash4hashpEB8_
FNDA:0,_RNvXsd_NtCs2gD7la8YEGu_3fvm3gasNtB5_3GasNtNtCslBoGNiFC398_4core3cmp9PartialEq2neB7_
FNDA:0,_RNvXs6_NtCs2gD7la8YEGu_3fvm3gasNtB5_3GasINtNtNtCslBoGNiFC398_4core3ops5arith3MulxE3mulB7_
FNDA:0,_RNvXs7_NtCs2gD7la8YEGu_3fvm3gasNtB5_3GasINtNtNtCslBoGNiFC398_4core3ops5arith3MullE3mulB7_
FNDA:0,_RNvMs0_NtCs2gD7la8YEGu_3fvm3gasNtB5_3Gas8round_upB7_
FNDA:0,_RNvMs0_NtCs2gD7la8YEGu_3fvm3gasNtB5_3Gas10round_downB7_
FNDA:0,_RNvXs4_NtCs2gD7la8YEGu_3fvm3gasNtB5_3GasNtNtNtCslBoGNiFC398_4core3ops5arith9SubAssign10sub_assignB7_
FNDA:0,_RNvXsi_NtCs2gD7la8YEGu_3fvm3gasNtB5_3GasNtNtCslBoGNiFC398_4core7default7Default7defaultB7_
FNDA:0,_RNvMs0_NtCs2gD7la8YEGu_3fvm3gasNtB5_3Gas12is_saturatedB7_
FNDA:0,_RNvXsh_NtCs2gD7la8YEGu_3fvm3gasNtB5_3GasNtNtCslBoGNiFC398_4core5clone5Clone5cloneB7_
FNDA:0,_RNvMs0_NtCs2gD7la8YEGu_3fvm3gasNtB5_3Gas11as_milligasB7_
FNDA:0,_RNvMs8_NtCs2gD7la8YEGu_3fvm3gasNtB5_10GasTracker9gas_limit
FNDA:0,_RNvXs5_NtCs2gD7la8YEGu_3fvm3gasNtB5_3GasNtNtNtCslBoGNiFC398_4core3ops5arith3Sub3subB7_
FNDA:0,_RNvXs1_NtCs2gD7la8YEGu_3fvm3gasNtB5_3GasNtNtCs2t1zYmUCWAW_10num_traits10identities4Zero7is_zero
FNDA:0,_RNvMs8_NtCs2gD7la8YEGu_3fvm3gasNtB5_10GasTracker13gas_available
FNDA:52,_RNvMs0_NtCs2gD7la8YEGu_3fvm3gasNtB5_3Gas3newB7_
FNDA:2,_RNvMs8_NtCs2gD7la8YEGu_3fvm3gasNtB5_10GasTracker8gas_used
FNDA:3,_RNvMs8_NtCs2gD7la8YEGu_3fvm3gasNtB5_10GasTracker10charge_gas
FNDA:2,_RNvXsd_NtCs2gD7la8YEGu_3fvm3gasNtB5_3GasNtNtCslBoGNiFC398_4core3cmp9PartialEq2eqB7_
FNDA:1,_RNvMs8_NtCs2gD7la8YEGu_3fvm3gasNtB5_10GasTracker3new
FNDA:3,_RNvXs2_NtCs2gD7la8YEGu_3fvm3gasNtB5_3GasNtNtNtCslBoGNiFC398_4core3ops5arith3Add3addB7_
FNDA:0,_RNvXs_NtCs2gD7la8YEGu_3fvm3gasNtB4_3GasNtNtCslBoGNiFC398_4core3fmt7Display3fmt
FNDA:4,_RNvNtCs2gD7la8YEGu_3fvm3gas15milligas_to_gasB3_
FNDA:0,_RNvXNtCs2gD7la8YEGu_3fvm3gasNtB2_3GasNtNtCslBoGNiFC398_4core3fmt5Debug3fmt
FNDA:3,_RNvXs3_NtCs2gD7la8YEGu_3fvm3gasNtB5_3GasNtNtNtCslBoGNiFC398_4core3ops5arith9AddAssign10add_assignB7_
FNDA:0,_RNvMs0_NtCs2gD7la8YEGu_3fvm3gasNtB5_3Gas13from_milligasB7_
FNDA:15,_RNvXs1_NtCs2gD7la8YEGu_3fvm3gasNtB5_3GasNtNtCs2t1zYmUCWAW_10num_traits10identities4Zero4zero
FNDA:3,_RNvMs8_NtCs2gD7la8YEGu_3fvm3gasNtB5_10GasTracker12apply_charge
FNDA:3,_RNvXsf_NtCs2gD7la8YEGu_3fvm3gasNtB5_3GasNtNtCslBoGNiFC398_4core3cmp10PartialOrd11partial_cmpB7_
FNDA:1,_RNvNtNtCs2gD7la8YEGu_3fvm3gas5testss_21milligas_to_gas_round
FNDA:1,_RNvNtNtCs2gD7la8YEGu_3fvm3gas5testss_17basic_gas_tracker
FNDA:1,_RNCNvNtNtCs2gD7la8YEGu_3fvm3gas5tests21milligas_to_gas_round0B7_
FNDA:1,_RNCNvNtNtCs2gD7la8YEGu_3fvm3gas5tests17basic_gas_tracker0B7_
FNDA:44,_RNvMs0_NtCs5xYBAi2tWzh_3fvm3gasNtB5_3Gas3newCs4BSQmiRtlYl_3fvm
FNDA:5,_RNvXs7_NtCs5xYBAi2tWzh_3fvm3gasNtB5_3GasINtNtNtCslBoGNiFC398_4core3ops5arith3MullE3mulCs4BSQmiRtlYl_3fvm
FNDA:68,_RNvXs6_NtCs5xYBAi2tWzh_3fvm3gasNtB5_3GasINtNtNtCslBoGNiFC398_4core3ops5arith3MulxE3mulCs4BSQmiRtlYl_3fvm
FNDA:119,_RNvXsd_NtCs5xYBAi2tWzh_3fvm3gasNtB5_3GasNtNtCslBoGNiFC398_4core3cmp9PartialEq2eqCs4BSQmiRtlYl_3fvm
FNDA:62,_RNvXs2_NtCs5xYBAi2tWzh_3fvm3gasNtB5_3GasNtNtNtCslBoGNiFC398_4core3ops5arith3Add3addCs4BSQmiRtlYl_3fvm
FNDA:0,_RNvNtCs5xYBAi2tWzh_3fvm3gas15milligas_to_gasB3_
FNDA:0,_RNvMs0_NtCs5xYBAi2tWzh_3fvm3gasNtB5_3Gas10round_downB7_
FNDA:0,_RNvXsi_NtCs5xYBAi2tWzh_3fvm3gasNtB5_3GasNtNtCslBoGNiFC398_4core7default7Default7defaultB7_
FNDA:0,_RNvXs4_NtCs5xYBAi2tWzh_3fvm3gasNtB5_3GasNtNtNtCslBoGNiFC398_4core3ops5arith9SubAssign10sub_assignB7_
FNDA:0,_RNvXsd_NtCs5xYBAi2tWzh_3fvm3gasNtB5_3GasNtNtCslBoGNiFC398_4core3cmp9PartialEq2neB7_
FNDA:0,_RNvXse_NtCs5xYBAi2tWzh_3fvm3gasNtB5_3GasNtNtCslBoGNiFC398_4core3cmp3Ord3cmpB7_
FNDA:0,_RNvXs7_NtCs5xYBAi2tWzh_3fvm3gasNtB5_3GasINtNtNtCslBoGNiFC398_4core3ops5arith3MullE3mulB7_
FNDA:0,_RNvMs0_NtCs5xYBAi2tWzh_3fvm3gasNtB5_3Gas8round_upB7_
FNDA:0,_RNvMs0_NtCs5xYBAi2tWzh_3fvm3gasNtB5_3Gas12is_saturatedB7_
FNDA:0,_RNvXs6_NtCs5xYBAi2tWzh_3fvm3gasNtB5_3GasINtNtNtCslBoGNiFC398_4core3ops5arith3MulxE3mulB7_
FNDA:0,_RNvXsh_NtCs5xYBAi2tWzh_3fvm3gasNtB5_3GasNtNtCslBoGNiFC398_4core5clone5Clone5cloneB7_
FNDA:43,_RNvXsf_NtCs5xYBAi2tWzh_3fvm3gasNtB5_3GasNtNtCslBoGNiFC398_4core3cmp10PartialOrd11partial_cmpB7_
FNDA:0,_RNvXs_NtCs5xYBAi2tWzh_3fvm3gasNtB4_3GasNtNtCslBoGNiFC398_4core3fmt7Display3fmt
FNDA:43,_RNvMs8_NtCs5xYBAi2tWzh_3fvm3gasNtB5_10GasTracker10charge_gas
FNDA:0,_RNvMs0_NtCs5xYBAi2tWzh_3fvm3gasNtB5_3Gas11as_milligasB7_
FNDA:56,_RNvXs1_NtCs5xYBAi2tWzh_3fvm3gasNtB5_3GasNtNtCs2t1zYmUCWAW_10num_traits10identities4Zero4zero
FNDA:43,_RNvXs2_NtCs5xYBAi2tWzh_3fvm3gasNtB5_3GasNtNtNtCslBoGNiFC398_4core3ops5arith3Add3addB7_
FNDA:43,_RNvXs3_NtCs5xYBAi2tWzh_3fvm3gasNtB5_3GasNtNtNtCslBoGNiFC398_4core3ops5arith9AddAssign10add_assignB7_
FNDA:1,_RNvMs0_NtCs5xYBAi2tWzh_3fvm3gasNtB5_3Gas13from_milligasB7_
FNDA:18,_RNvMs8_NtCs5xYBAi2tWzh_3fvm3gasNtB5_10GasTracker3new
FNDA:36,_RNvMs8_NtCs5xYBAi2tWzh_3fvm3gasNtB5_10GasTracker12apply_charge
FNDA:5,_RNvXs5_NtCs5xYBAi2tWzh_3fvm3gasNtB5_3GasNtNtNtCslBoGNiFC398_4core3ops5arith3Sub3subB7_
FNDA:12,_RNvMs8_NtCs5xYBAi2tWzh_3fvm3gasNtB5_10GasTracker8gas_used
FNDA:0,_RNvXNtCs5xYBAi2tWzh_3fvm3gasNtB2_3GasNtNtCslBoGNiFC398_4core3fmt5Debug3fmt
FNDA:0,_RNvXs1_NtCs5xYBAi2tWzh_3fvm3gasNtB5_3GasNtNtCs2t1zYmUCWAW_10num_traits10identities4Zero7is_zero
FNDA:0,_RINvXs9_NtCs5xYBAi2tWzh_3fvm3gasNtB6_3GasNtNtCslBoGNiFC398_4core4hash4Hash4hashNtNtNtNtCsduPDAHU5p59_3std11collections4hash3map13DefaultHasherEB8_
FNDA:0,_RNvXsd_NtCs5xYBAi2tWzh_3fvm3gasNtB5_3GasNtNtCslBoGNiFC398_4core3cmp9PartialEq2eqB7_
FNDA:0,_RNvMs8_NtCs5xYBAi2tWzh_3fvm3gasNtB5_10GasTracker9gas_limit
FNDA:5,_RNvMs8_NtCs5xYBAi2tWzh_3fvm3gasNtB5_10GasTracker13gas_available
FNDA:95,_RNvMs0_NtCs5xYBAi2tWzh_3fvm3gasNtB5_3Gas3newB7_
FNF:33
FNH:20
DA:24,121
DA:28,0
DA:29,0
DA:30,0
DA:32,0
DA:33,0
DA:34,0
DA:35,0
DA:36,0
DA:38,0
DA:42,0
DA:43,0
DA:44,0
DA:46,0
DA:47,0
DA:48,0
DA:50,0
DA:56,1
DA:57,1
DA:58,1
DA:63,191
DA:64,191
DA:65,191
DA:68,0
DA:69,0
DA:70,0
DA:74,0
DA:75,0
DA:76,0
DA:80,0
DA:81,0
DA:82,0
DA:86,0
DA:87,0
DA:88,0
DA:92,71
DA:93,71
DA:94,71
DA:96,0
DA:97,0
DA:98,0
DA:105,108
DA:106,108
DA:107,108
DA:112,46
DA:113,46
DA:114,46
DA:119,0
DA:120,0
DA:121,0
DA:128,5
DA:129,5
DA:130,5
DA:137,68
DA:138,68
DA:139,68
DA:146,5
DA:147,5
DA:148,5
DA:159,19
DA:160,19
DA:161,19
DA:162,19
DA:163,19
DA:164,19
DA:168,46
DA:169,46
DA:171,46
DA:172,46
DA:173,3
DA:174,3
DA:175,3
DA:177,43
DA:179,46
DA:182,39
DA:183,39
DA:184,39
DA:187,0
DA:188,0
DA:189,0
DA:192,14
DA:193,14
DA:194,14
DA:197,5
DA:198,5
DA:199,5
DA:204,4
DA:205,4
DA:206,4
DA:207,1
DA:208,3
DA:209,1
DA:210,2
DA:211,4
DA:212,4
DA:220,1
DA:222,1
DA:223,1
DA:224,1
DA:225,1
DA:226,1
DA:227,1
DA:228,1
DA:229,1
DA:230,1
DA:231,1
DA:232,1
DA:234,1
DA:235,1
DA:236,1
DA:237,1
DA:238,1
DA:239,1
DA:240,1
BRF:0
BRH:0
LF:119
LH:78
end_of_record
SF:/home/mriise/Projects/ref-fvm/fvm/src/gas/outputs.rs
FN:6,_RNvXs0_NtNtCs2gD7la8YEGu_3fvm3gas7outputsNtB5_10GasOutputsNtNtCslBoGNiFC398_4core7default7Default7defaultB9_
FN:20,_RNvMNtNtCs2gD7la8YEGu_3fvm3gas7outputsNtB2_10GasOutputs7compute
FN:6,_RNvXs_NtNtCs2gD7la8YEGu_3fvm3gas7outputsNtB4_10GasOutputsNtNtCslBoGNiFC398_4core5clone5Clone5cloneB8_
FN:62,_RNvNtNtCs2gD7la8YEGu_3fvm3gas7outputs31compute_gas_overestimation_burn
FN:20,_RNvMNtNtCs5xYBAi2tWzh_3fvm3gas7outputsNtB2_10GasOutputs7compute
FN:6,_RNvXs0_NtNtCs5xYBAi2tWzh_3fvm3gas7outputsNtB5_10GasOutputsNtNtCslBoGNiFC398_4core7default7Default7defaultB9_
FN:62,_RNvNtNtCs5xYBAi2tWzh_3fvm3gas7outputs31compute_gas_overestimation_burn
FN:6,_RNvXs_NtNtCs5xYBAi2tWzh_3fvm3gas7outputsNtB4_10GasOutputsNtNtCslBoGNiFC398_4core5clone5Clone5cloneB8_
FNDA:0,_RNvXs0_NtNtCs2gD7la8YEGu_3fvm3gas7outputsNtB5_10GasOutputsNtNtCslBoGNiFC398_4core7default7Default7defaultB9_
FNDA:0,_RNvMNtNtCs2gD7la8YEGu_3fvm3gas7outputsNtB2_10GasOutputs7compute
FNDA:0,_RNvXs_NtNtCs2gD7la8YEGu_3fvm3gas7outputsNtB4_10GasOutputsNtNtCslBoGNiFC398_4core5clone5Clone5cloneB8_
FNDA:0,_RNvNtNtCs2gD7la8YEGu_3fvm3gas7outputs31compute_gas_overestimation_burn
FNDA:0,_RNvMNtNtCs5xYBAi2tWzh_3fvm3gas7outputsNtB2_10GasOutputs7compute
FNDA:0,_RNvXs0_NtNtCs5xYBAi2tWzh_3fvm3gas7outputsNtB5_10GasOutputsNtNtCslBoGNiFC398_4core7default7Default7defaultB9_
FNDA:0,_RNvNtNtCs5xYBAi2tWzh_3fvm3gas7outputs31compute_gas_overestimation_burn
FNDA:0,_RNvXs_NtNtCs5xYBAi2tWzh_3fvm3gas7outputsNtB4_10GasOutputsNtNtCslBoGNiFC398_4core5clone5Clone5cloneB8_
FNF:4
FNH:0
DA:6,0
DA:20,0
DA:21,0
DA:22,0
DA:23,0
DA:24,0
DA:25,0
DA:26,0
DA:27,0
DA:28,0
DA:29,0
DA:30,0
DA:31,0
DA:32,0
DA:33,0
DA:34,0
DA:35,0
DA:37,0
DA:38,0
DA:39,0
DA:40,0
DA:41,0
DA:42,0
DA:43,0
DA:44,0
DA:45,0
DA:46,0
DA:47,0
DA:48,0
DA:49,0
DA:50,0
DA:51,0
DA:52,0
DA:53,0
DA:54,0
DA:55,0
DA:56,0
DA:57,0
DA:58,0
DA:59,0
DA:62,0
DA:63,0
DA:64,0
DA:65,0
DA:66,0
DA:67,0
DA:68,0
DA:69,0
DA:70,0
DA:71,0
DA:72,0
DA:73,0
DA:74,0
DA:75,0
DA:76,0
DA:77,0
DA:79,0
DA:80,0
DA:81,0
DA:82,0
DA:83,0
DA:84,0
DA:85,0
BRF:0
BRH:0
LF:64
LH:0
end_of_record
SF:/home/mriise/Projects/ref-fvm/fvm/src/gas/price_list.rs
FN:445,_RNvMs_NtNtCs2gD7la8YEGu_3fvm3gas10price_listNtB4_9PriceList20on_method_invocationB8_
FN:571,_RNvMs_NtNtCs2gD7la8YEGu_3fvm3gas10price_listNtB4_9PriceList14on_verify_postB8_
FN:435,_RNvMs_NtNtCs2gD7la8YEGu_3fvm3gas10price_listNtB4_9PriceList21on_chain_return_valueB8_
FN:284,_RNvXsm_NtNtCs2gD7la8YEGu_3fvm3gas10price_listNtB5_4StepNtNtCslBoGNiFC398_4core3cmp9PartialEq2neB9_
FN:645,_RNvMs_NtNtCs2gD7la8YEGu_3fvm3gas10price_listNtB4_9PriceList15on_block_createB8_
FN:480,_RNvMs_NtNtCs2gD7la8YEGu_3fvm3gas10price_listNtB4_9PriceList15on_delete_actorB8_
FN:506,_RNvMs_NtNtCs2gD7la8YEGu_3fvm3gas10price_listNtB4_9PriceList30on_compute_unsealed_sector_cidB8_
FN:423,_RNvMs_NtNtCs2gD7la8YEGu_3fvm3gas10price_listNtB4_9PriceList16on_chain_messageB8_
FN:275,_RNvXs9_NtNtCs2gD7la8YEGu_3fvm3gas10price_listNtB5_11ScalingCostNtNtCslBoGNiFC398_4core3cmp9PartialEq2neB9_
FN:520,_RNvMs_NtNtCs2gD7la8YEGu_3fvm3gas10price_listNtB4_9PriceList14on_verify_sealB8_
FN:309,_RNvXsq_NtNtCs2gD7la8YEGu_3fvm3gas10price_listNtB5_9PriceListNtNtCslBoGNiFC398_4core3fmt5Debug3fmt
FN:281,_RNvXsf_NtNtCs2gD7la8YEGu_3fvm3gas10price_listNtB5_8StepCostNtNtCslBoGNiFC398_4core3cmp9PartialEq2eqB9_
FN:309,_RNvXss_NtNtCs2gD7la8YEGu_3fvm3gas10price_listNtB5_9PriceListNtNtCslBoGNiFC398_4core3cmp9PartialEq2neB9_
FN:284,_RNvXsm_NtNtCs2gD7la8YEGu_3fvm3gas10price_listNtB5_4StepNtNtCslBoGNiFC398_4core3cmp9PartialEq2eqB9_
FN:470,_RNvMs_NtNtCs2gD7la8YEGu_3fvm3gas10price_listNtB4_9PriceList15on_create_actorB8_
FN:275,_RNvXs9_NtNtCs2gD7la8YEGu_3fvm3gas10price_listNtB5_11ScalingCostNtNtCslBoGNiFC398_4core3cmp9PartialEq2eqB9_
FN:500,_RNvMs_NtNtCs2gD7la8YEGu_3fvm3gas10price_listNtB4_9PriceList10on_hashingB8_
FN:415,_RNvXsw_NtNtCs2gD7la8YEGu_3fvm3gas10price_listNtB5_13WasmGasPricesNtNtCslBoGNiFC398_4core3fmt5Debug3fmt
FN:590,_RNvMs_NtNtCs2gD7la8YEGu_3fvm3gas10price_listNtB4_9PriceList25on_verify_consensus_faultB8_
FN:415,_RNvXsA_NtNtCs2gD7la8YEGu_3fvm3gas10price_listNtB5_13WasmGasPricesNtNtCslBoGNiFC398_4core3cmp9PartialEq2neB9_
FN:623,_RNvMs_NtNtCs2gD7la8YEGu_3fvm3gas10price_listNtB4_9PriceList22on_block_open_per_byteB8_
FN:464,_RNvMs_NtNtCs2gD7la8YEGu_3fvm3gas10price_listNtB4_9PriceList10on_syscall
FN:561,_RNvMs_NtNtCs2gD7la8YEGu_3fvm3gas10price_listNtB4_9PriceList24on_verify_replica_updateB8_
FN:524,_RNvMs_NtNtCs2gD7la8YEGu_3fvm3gas10price_listNtB4_9PriceList25on_verify_aggregate_sealsB8_
FN:415,_RINvXsB_NtNtCs2gD7la8YEGu_3fvm3gas10price_listNtB6_13WasmGasPricesNtNtCslBoGNiFC398_4core4hash4Hash4hashpEBa_
FN:577,_RNCNvMs_NtNtCs2gD7la8YEGu_3fvm3gas10price_listNtB6_9PriceList14on_verify_posts_0Ba_
FN:674,_RNvMs_NtNtCs2gD7la8YEGu_3fvm3gas10price_listNtB4_9PriceList13on_block_statB8_
FN:543,_RNCNvMs_NtNtCs2gD7la8YEGu_3fvm3gas10price_listNtB6_9PriceList25on_verify_aggregate_sealss_0Ba_
FN:658,_RNvMs_NtNtCs2gD7la8YEGu_3fvm3gas10price_listNtB4_9PriceList13on_block_linkB8_
FN:281,_RNvXsf_NtNtCs2gD7la8YEGu_3fvm3gas10price_listNtB5_8StepCostNtNtCslBoGNiFC398_4core3cmp9PartialEq2neB9_
FN:275,_RNvXs5_NtNtCs2gD7la8YEGu_3fvm3gas10price_listNtB5_11ScalingCostNtNtCslBoGNiFC398_4core5clone5Clone5cloneB9_
FN:284,_RNvXsj_NtNtCs2gD7la8YEGu_3fvm3gas10price_listNtB5_4StepNtNtCslBoGNiFC398_4core3fmt5Debug3fmt
FN:309,_RNvXss_NtNtCs2gD7la8YEGu_3fvm3gas10price_listNtB5_9PriceListNtNtCslBoGNiFC398_4core3cmp9PartialEq2eqB9_
FN:613,_RNvMs_NtNtCs2gD7la8YEGu_3fvm3gas10price_listNtB4_9PriceList18on_block_open_baseB8_
FN:688,_RNvXs0_NtNtCs2gD7la8YEGu_3fvm3gas10price_listNtB5_13WasmGasPricesNtNtCshVNiQj7SZ3v_19fvm_wasm_instrument12gas_metering5Rules16instruction_cost
FN:601,_RNvMs_NtNtCs2gD7la8YEGu_3fvm3gas10price_listNtB4_9PriceList17on_get_randomnessB8_
FN:532,_RNCNvMs_NtNtCs2gD7la8YEGu_3fvm3gas10price_listNtB6_9PriceList25on_verify_aggregate_seals0Ba_
FN:284,_RNvXsi_NtNtCs2gD7la8YEGu_3fvm3gas10price_listNtB5_4StepNtNtCslBoGNiFC398_4core5clone5Clone5cloneB9_
FN:415,_RNvXsv_NtNtCs2gD7la8YEGu_3fvm3gas10price_listNtB5_13WasmGasPricesNtNtCslBoGNiFC398_4core5clone5Clone5cloneB9_
FN:415,_RNvXsA_NtNtCs2gD7la8YEGu_3fvm3gas10price_listNtB5_13WasmGasPricesNtNtCslBoGNiFC398_4core3cmp9PartialEq2eqB9_
FN:711,_RNvXs0_NtNtCs2gD7la8YEGu_3fvm3gas10price_listNtB5_13WasmGasPricesNtNtCshVNiQj7SZ3v_19fvm_wasm_instrument12gas_metering5Rules16memory_grow_cost
FN:309,_RNvXsp_NtNtCs2gD7la8YEGu_3fvm3gas10price_listNtB5_9PriceListNtNtCslBoGNiFC398_4core5clone5Clone5cloneB9_
FN:275,_RNvXs6_NtNtCs2gD7la8YEGu_3fvm3gas10price_listNtB5_11ScalingCostNtNtCslBoGNiFC398_4core3fmt5Debug3fmt
FN:291,_RNvMNtNtCs2gD7la8YEGu_3fvm3gas10price_listNtB2_8StepCost6lookup
FN:281,_RNvXsd_NtNtCs2gD7la8YEGu_3fvm3gas10price_listNtB5_8StepCostNtNtCslBoGNiFC398_4core3fmt5Debug3fmt
FN:490,_RNvMs_NtNtCs2gD7la8YEGu_3fvm3gas10price_listNtB4_9PriceList19on_verify_signatureB8_
FN:635,_RNvMs_NtNtCs2gD7la8YEGu_3fvm3gas10price_listNtB4_9PriceList13on_block_readB8_
FN:575,_RNCNvMs_NtNtCs2gD7la8YEGu_3fvm3gas10price_listNtB6_9PriceList14on_verify_post0Ba_
FN:281,_RNvXsc_NtNtCs2gD7la8YEGu_3fvm3gas10price_listNtB5_8StepCostNtNtCslBoGNiFC398_4core5clone5Clone5cloneB9_
FN:680,_RNvNtNtCs2gD7la8YEGu_3fvm3gas10price_list29price_list_by_network_version
FN:281,_RNvXsf_NtNtCs5xYBAi2tWzh_3fvm3gas10price_listNtB5_8StepCostNtNtCslBoGNiFC398_4core3cmp9PartialEq2eqCs4BSQmiRtlYl_3fvm
FN:309,_RNvXss_NtNtCs5xYBAi2tWzh_3fvm3gas10price_listNtB5_9PriceListNtNtCslBoGNiFC398_4core3cmp9PartialEq2eqCs4BSQmiRtlYl_3fvm
FN:674,_RNvMs_NtNtCs5xYBAi2tWzh_3fvm3gas10price_listNtB4_9PriceList13on_block_statCs4BSQmiRtlYl_3fvm
FN:415,_RNvXsA_NtNtCs5xYBAi2tWzh_3fvm3gas10price_listNtB5_13WasmGasPricesNtNtCslBoGNiFC398_4core3cmp9PartialEq2eqCs4BSQmiRtlYl_3fvm
FN:623,_RNvMs_NtNtCs5xYBAi2tWzh_3fvm3gas10price_listNtB4_9PriceList22on_block_open_per_byteCs4BSQmiRtlYl_3fvm
FN:613,_RNvMs_NtNtCs5xYBAi2tWzh_3fvm3gas10price_listNtB4_9PriceList18on_block_open_baseCs4BSQmiRtlYl_3fvm
FN:658,_RNvMs_NtNtCs5xYBAi2tWzh_3fvm3gas10price_listNtB4_9PriceList13on_block_linkCs4BSQmiRtlYl_3fvm
FN:284,_RNvXsm_NtNtCs5xYBAi2tWzh_3fvm3gas10price_listNtB5_4StepNtNtCslBoGNiFC398_4core3cmp9PartialEq2eqCs4BSQmiRtlYl_3fvm
FN:275,_RNvXs9_NtNtCs5xYBAi2tWzh_3fvm3gas10price_listNtB5_11ScalingCostNtNtCslBoGNiFC398_4core3cmp9PartialEq2eqCs4BSQmiRtlYl_3fvm
FN:645,_RNvMs_NtNtCs5xYBAi2tWzh_3fvm3gas10price_listNtB4_9PriceList15on_block_createCs4BSQmiRtlYl_3fvm
FN:635,_RNvMs_NtNtCs5xYBAi2tWzh_3fvm3gas10price_listNtB4_9PriceList13on_block_readCs4BSQmiRtlYl_3fvm
FN:281,_RNvXsd_NtNtCs5xYBAi2tWzh_3fvm3gas10price_listNtB5_8StepCostNtNtCslBoGNiFC398_4core3fmt5Debug3fmt
FN:415,_RNvXsw_NtNtCs5xYBAi2tWzh_3fvm3gas10price_listNtB5_13WasmGasPricesNtNtCslBoGNiFC398_4core3fmt5Debug3fmt
FN:309,_RNvXsq_NtNtCs5xYBAi2tWzh_3fvm3gas10price_listNtB5_9PriceListNtNtCslBoGNiFC398_4core3fmt5Debug3fmt
FN:680,_RNvNtNtCs5xYBAi2tWzh_3fvm3gas10price_list29price_list_by_network_version
FN:415,_RINvXsB_NtNtCs5xYBAi2tWzh_3fvm3gas10price_listNtB6_13WasmGasPricesNtNtCslBoGNiFC398_4core4hash4Hash4hashNtNtNtNtCsduPDAHU5p59_3std11collections4hash3map13DefaultHasherEBa_
FN:711,_RNvXs0_NtNtCs5xYBAi2tWzh_3fvm3gas10price_listNtB5_13WasmGasPricesNtNtCshVNiQj7SZ3v_19fvm_wasm_instrument12gas_metering5Rules16memory_grow_cost
FN:415,_RNvXsA_NtNtCs5xYBAi2tWzh_3fvm3gas10price_listNtB5_13WasmGasPricesNtNtCslBoGNiFC398_4core3cmp9PartialEq2eqB9_
FN:281,_RNvXsc_NtNtCs5xYBAi2tWzh_3fvm3gas10price_listNtB5_8StepCostNtNtCslBoGNiFC398_4core5clone5Clone5cloneB9_
FN:464,_RNvMs_NtNtCs5xYBAi2tWzh_3fvm3gas10price_listNtB4_9PriceList10on_syscall
FN:275,_RNvXs6_NtNtCs5xYBAi2tWzh_3fvm3gas10price_listNtB5_11ScalingCostNtNtCslBoGNiFC398_4core3fmt5Debug3fmt
FN:284,_RNvXsj_NtNtCs5xYBAi2tWzh_3fvm3gas10price_listNtB5_4StepNtNtCslBoGNiFC398_4core3fmt5Debug3fmt
FN:291,_RNvMNtNtCs5xYBAi2tWzh_3fvm3gas10price_listNtB2_8StepCost6lookup
FN:688,_RNvXs0_NtNtCs5xYBAi2tWzh_3fvm3gas10price_listNtB5_13WasmGasPricesNtNtCshVNiQj7SZ3v_19fvm_wasm_instrument12gas_metering5Rules16instruction_cost
FN:601,_RNvMs_NtNtCs5xYBAi2tWzh_3fvm3gas10price_listNtB4_9PriceList17on_get_randomnessB8_
FN:520,_RNvMs_NtNtCs5xYBAi2tWzh_3fvm3gas10price_listNtB4_9PriceList14on_verify_sealB8_
FN:309,_RNvXss_NtNtCs5xYBAi2tWzh_3fvm3gas10price_listNtB5_9PriceListNtNtCslBoGNiFC398_4core3cmp9PartialEq2neB9_
FN:532,_RNCNvMs_NtNtCs5xYBAi2tWzh_3fvm3gas10price_listNtB6_9PriceList25on_verify_aggregate_seals0Ba_
FN:623,_RNvMs_NtNtCs5xYBAi2tWzh_3fvm3gas10price_listNtB4_9PriceList22on_block_open_per_byteB8_
FN:506,_RNvMs_NtNtCs5xYBAi2tWzh_3fvm3gas10price_listNtB4_9PriceList30on_compute_unsealed_sector_cidB8_
FN:500,_RNvMs_NtNtCs5xYBAi2tWzh_3fvm3gas10price_listNtB4_9PriceList10on_hashingB8_
FN:613,_RNvMs_NtNtCs5xYBAi2tWzh_3fvm3gas10price_listNtB4_9PriceList18on_block_open_baseB8_
FN:577,_RNCNvMs_NtNtCs5xYBAi2tWzh_3fvm3gas10price_listNtB6_9PriceList14on_verify_posts_0Ba_
FN:635,_RNvMs_NtNtCs5xYBAi2tWzh_3fvm3gas10price_listNtB4_9PriceList13on_block_readB8_
FN:415,_RNvXsA_NtNtCs5xYBAi2tWzh_3fvm3gas10price_listNtB5_13WasmGasPricesNtNtCslBoGNiFC398_4core3cmp9PartialEq2neB9_
FN:590,_RNvMs_NtNtCs5xYBAi2tWzh_3fvm3gas10price_listNtB4_9PriceList25on_verify_consensus_faultB8_
FN:423,_RNvMs_NtNtCs5xYBAi2tWzh_3fvm3gas10price_listNtB4_9PriceList16on_chain_messageB8_
FN:284,_RNvXsm_NtNtCs5xYBAi2tWzh_3fvm3gas10price_listNtB5_4StepNtNtCslBoGNiFC398_4core3cmp9PartialEq2neB9_
FN:415,_RNvXsv_NtNtCs5xYBAi2tWzh_3fvm3gas10price_listNtB5_13WasmGasPricesNtNtCslBoGNiFC398_4core5clone5Clone5cloneB9_
FN:309,_RNvXsp_NtNtCs5xYBAi2tWzh_3fvm3gas10price_listNtB5_9PriceListNtNtCslBoGNiFC398_4core5clone5Clone5cloneB9_
FN:645,_RNvMs_NtNtCs5xYBAi2tWzh_3fvm3gas10price_listNtB4_9PriceList15on_block_createB8_
FN:571,_RNvMs_NtNtCs5xYBAi2tWzh_3fvm3gas10price_listNtB4_9PriceList14on_verify_postB8_
FN:490,_RNvMs_NtNtCs5xYBAi2tWzh_3fvm3gas10price_listNtB4_9PriceList19on_verify_signatureB8_
FN:284,_RNvXsi_NtNtCs5xYBAi2tWzh_3fvm3gas10price_listNtB5_4StepNtNtCslBoGNiFC398_4core5clone5Clone5cloneB9_
FN:309,_RNvXss_NtNtCs5xYBAi2tWzh_3fvm3gas10price_listNtB5_9PriceListNtNtCslBoGNiFC398_4core3cmp9PartialEq2eqB9_
FN:575,_RNCNvMs_NtNtCs5xYBAi2tWzh_3fvm3gas10price_listNtB6_9PriceList14on_verify_post0Ba_
FN:674,_RNvMs_NtNtCs5xYBAi2tWzh_3fvm3gas10price_listNtB4_9PriceList13on_block_statB8_
FN:275,_RNvXs5_NtNtCs5xYBAi2tWzh_3fvm3gas10price_listNtB5_11ScalingCostNtNtCslBoGNiFC398_4core5clone5Clone5cloneB9_
FN:275,_RNvXs9_NtNtCs5xYBAi2tWzh_3fvm3gas10price_listNtB5_11ScalingCostNtNtCslBoGNiFC398_4core3cmp9PartialEq2neB9_
FN:275,_RNvXs9_NtNtCs5xYBAi2tWzh_3fvm3gas10price_listNtB5_11ScalingCostNtNtCslBoGNiFC398_4core3cmp9PartialEq2eqB9_
FN:284,_RNvXsm_NtNtCs5xYBAi2tWzh_3fvm3gas10price_listNtB5_4StepNtNtCslBoGNiFC398_4core3cmp9PartialEq2eqB9_
FN:445,_RNvMs_NtNtCs5xYBAi2tWzh_3fvm3gas10price_listNtB4_9PriceList20on_method_invocationB8_
FN:524,_RNvMs_NtNtCs5xYBAi2tWzh_3fvm3gas10price_listNtB4_9PriceList25on_verify_aggregate_sealsB8_
FN:435,_RNvMs_NtNtCs5xYBAi2tWzh_3fvm3gas10price_listNtB4_9PriceList21on_chain_return_valueB8_
FN:480,_RNvMs_NtNtCs5xYBAi2tWzh_3fvm3gas10price_listNtB4_9PriceList15on_delete_actorB8_
FN:281,_RNvXsf_NtNtCs5xYBAi2tWzh_3fvm3gas10price_listNtB5_8StepCostNtNtCslBoGNiFC398_4core3cmp9PartialEq2eqB9_
FN:561,_RNvMs_NtNtCs5xYBAi2tWzh_3fvm3gas10price_listNtB4_9PriceList24on_verify_replica_updateB8_
FN:470,_RNvMs_NtNtCs5xYBAi2tWzh_3fvm3gas10price_listNtB4_9PriceList15on_create_actorB8_
FN:281,_RNvXsf_NtNtCs5xYBAi2tWzh_3fvm3gas10price_listNtB5_8StepCostNtNtCslBoGNiFC398_4core3cmp9PartialEq2neB9_
FN:543,_RNCNvMs_NtNtCs5xYBAi2tWzh_3fvm3gas10price_listNtB6_9PriceList25on_verify_aggregate_sealss_0Ba_
FN:658,_RNvMs_NtNtCs5xYBAi2tWzh_3fvm3gas10price_listNtB4_9PriceList13on_block_linkB8_
FNDA:0,_RNvMs_NtNtCs2gD7la8YEGu_3fvm3gas10price_listNtB4_9PriceList20on_method_invocationB8_
FNDA:0,_RNvMs_NtNtCs2gD7la8YEGu_3fvm3gas10price_listNtB4_9PriceList14on_verify_postB8_
FNDA:0,_RNvMs_NtNtCs2gD7la8YEGu_3fvm3gas10price_listNtB4_9PriceList21on_chain_return_valueB8_
FNDA:0,_RNvXsm_NtNtCs2gD7la8YEGu_3fvm3gas10price_listNtB5_4StepNtNtCslBoGNiFC398_4core3cmp9PartialEq2neB9_
FNDA:0,_RNvMs_NtNtCs2gD7la8YEGu_3fvm3gas10price_listNtB4_9PriceList15on_block_createB8_
FNDA:0,_RNvMs_NtNtCs2gD7la8YEGu_3fvm3gas10price_listNtB4_9PriceList15on_delete_actorB8_
FNDA:0,_RNvMs_NtNtCs2gD7la8YEGu_3fvm3gas10price_listNtB4_9PriceList30on_compute_unsealed_sector_cidB8_
FNDA:0,_RNvMs_NtNtCs2gD7la8YEGu_3fvm3gas10price_listNtB4_9PriceList16on_chain_messageB8_
FNDA:0,_RNvXs9_NtNtCs2gD7la8YEGu_3fvm3gas10price_listNtB5_11ScalingCostNtNtCslBoGNiFC398_4core3cmp9PartialEq2neB9_
FNDA:0,_RNvMs_NtNtCs2gD7la8YEGu_3fvm3gas10price_listNtB4_9PriceList14on_verify_sealB8_
FNDA:0,_RNvXsq_NtNtCs2gD7la8YEGu_3fvm3gas10price_listNtB5_9PriceListNtNtCslBoGNiFC398_4core3fmt5Debug3fmt
FNDA:0,_RNvXsf_NtNtCs2gD7la8YEGu_3fvm3gas10price_listNtB5_8StepCostNtNtCslBoGNiFC398_4core3cmp9PartialEq2eqB9_
FNDA:0,_RNvXss_NtNtCs2gD7la8YEGu_3fvm3gas10price_listNtB5_9PriceListNtNtCslBoGNiFC398_4core3cmp9PartialEq2neB9_
FNDA:0,_RNvXsm_NtNtCs2gD7la8YEGu_3fvm3gas10price_listNtB5_4StepNtNtCslBoGNiFC398_4core3cmp9PartialEq2eqB9_
FNDA:0,_RNvMs_NtNtCs2gD7la8YEGu_3fvm3gas10price_listNtB4_9PriceList15on_create_actorB8_
FNDA:0,_RNvXs9_NtNtCs2gD7la8YEGu_3fvm3gas10price_listNtB5_11ScalingCostNtNtCslBoGNiFC398_4core3cmp9PartialEq2eqB9_
FNDA:0,_RNvMs_NtNtCs2gD7la8YEGu_3fvm3gas10price_listNtB4_9PriceList10on_hashingB8_
FNDA:0,_RNvXsw_NtNtCs2gD7la8YEGu_3fvm3gas10price_listNtB5_13WasmGasPricesNtNtCslBoGNiFC398_4core3fmt5Debug3fmt
FNDA:0,_RNvMs_NtNtCs2gD7la8YEGu_3fvm3gas10price_listNtB4_9PriceList25on_verify_consensus_faultB8_
FNDA:0,_RNvXsA_NtNtCs2gD7la8YEGu_3fvm3gas10price_listNtB5_13WasmGasPricesNtNtCslBoGNiFC398_4core3cmp9PartialEq2neB9_
FNDA:0,_RNvMs_NtNtCs2gD7la8YEGu_3fvm3gas10price_listNtB4_9PriceList22on_block_open_per_byteB8_
FNDA:0,_RNvMs_NtNtCs2gD7la8YEGu_3fvm3gas10price_listNtB4_9PriceList10on_syscall
FNDA:0,_RNvMs_NtNtCs2gD7la8YEGu_3fvm3gas10price_listNtB4_9PriceList24on_verify_replica_updateB8_
FNDA:0,_RNvMs_NtNtCs2gD7la8YEGu_3fvm3gas10price_listNtB4_9PriceList25on_verify_aggregate_sealsB8_
FNDA:0,_RINvXsB_NtNtCs2gD7la8YEGu_3fvm3gas10price_listNtB6_13WasmGasPricesNtNtCslBoGNiFC398_4core4hash4Hash4hashpEBa_
FNDA:0,_RNCNvMs_NtNtCs2gD7la8YEGu_3fvm3gas10price_listNtB6_9PriceList14on_verify_posts_0Ba_
FNDA:0,_RNvMs_NtNtCs2gD7la8YEGu_3fvm3gas10price_listNtB4_9PriceList13on_block_statB8_
FNDA:0,_RNCNvMs_NtNtCs2gD7la8YEGu_3fvm3gas10price_listNtB6_9PriceList25on_verify_aggregate_sealss_0Ba_
FNDA:0,_RNvMs_NtNtCs2gD7la8YEGu_3fvm3gas10price_listNtB4_9PriceList13on_block_linkB8_
FNDA:0,_RNvXsf_NtNtCs2gD7la8YEGu_3fvm3gas10price_listNtB5_8StepCostNtNtCslBoGNiFC398_4core3cmp9PartialEq2neB9_
FNDA:0,_RNvXs5_NtNtCs2gD7la8YEGu_3fvm3gas10price_listNtB5_11ScalingCostNtNtCslBoGNiFC398_4core5clone5Clone5cloneB9_
FNDA:0,_RNvXsj_NtNtCs2gD7la8YEGu_3fvm3gas10price_listNtB5_4StepNtNtCslBoGNiFC398_4core3fmt5Debug3fmt
FNDA:0,_RNvXss_NtNtCs2gD7la8YEGu_3fvm3gas10price_listNtB5_9PriceListNtNtCslBoGNiFC398_4core3cmp9PartialEq2eqB9_
FNDA:0,_RNvMs_NtNtCs2gD7la8YEGu_3fvm3gas10price_listNtB4_9PriceList18on_block_open_baseB8_
FNDA:0,_RNvXs0_NtNtCs2gD7la8YEGu_3fvm3gas10price_listNtB5_13WasmGasPricesNtNtCshVNiQj7SZ3v_19fvm_wasm_instrument12gas_metering5Rules16instruction_cost
FNDA:0,_RNvMs_NtNtCs2gD7la8YEGu_3fvm3gas10price_listNtB4_9PriceList17on_get_randomnessB8_
FNDA:0,_RNCNvMs_NtNtCs2gD7la8YEGu_3fvm3gas10price_listNtB6_9PriceList25on_verify_aggregate_seals0Ba_
FNDA:0,_RNvXsi_NtNtCs2gD7la8YEGu_3fvm3gas10price_listNtB5_4StepNtNtCslBoGNiFC398_4core5clone5Clone5cloneB9_
FNDA:0,_RNvXsv_NtNtCs2gD7la8YEGu_3fvm3gas10price_listNtB5_13WasmGasPricesNtNtCslBoGNiFC398_4core5clone5Clone5cloneB9_
FNDA:0,_RNvXsA_NtNtCs2gD7la8YEGu_3fvm3gas10price_listNtB5_13WasmGasPricesNtNtCslBoGNiFC398_4core3cmp9PartialEq2eqB9_
FNDA:0,_RNvXs0_NtNtCs2gD7la8YEGu_3fvm3gas10price_listNtB5_13WasmGasPricesNtNtCshVNiQj7SZ3v_19fvm_wasm_instrument12gas_metering5Rules16memory_grow_cost
FNDA:0,_RNvXsp_NtNtCs2gD7la8YEGu_3fvm3gas10price_listNtB5_9PriceListNtNtCslBoGNiFC398_4core5clone5Clone5cloneB9_
FNDA:0,_RNvXs6_NtNtCs2gD7la8YEGu_3fvm3gas10price_listNtB5_11ScalingCostNtNtCslBoGNiFC398_4core3fmt5Debug3fmt
FNDA:0,_RNvMNtNtCs2gD7la8YEGu_3fvm3gas10price_listNtB2_8StepCost6lookup
FNDA:0,_RNvXsd_NtNtCs2gD7la8YEGu_3fvm3gas10price_listNtB5_8StepCostNtNtCslBoGNiFC398_4core3fmt5Debug3fmt
FNDA:0,_RNvMs_NtNtCs2gD7la8YEGu_3fvm3gas10price_listNtB4_9PriceList19on_verify_signatureB8_
FNDA:0,_RNvMs_NtNtCs2gD7la8YEGu_3fvm3gas10price_listNtB4_9PriceList13on_block_readB8_
FNDA:0,_RNCNvMs_NtNtCs2gD7la8YEGu_3fvm3gas10price_listNtB6_9PriceList14on_verify_post0Ba_
FNDA:2,_RNvXsc_NtNtCs2gD7la8YEGu_3fvm3gas10price_listNtB5_8StepCostNtNtCslBoGNiFC398_4core5clone5Clone5cloneB9_
FNDA:1,_RNvNtNtCs2gD7la8YEGu_3fvm3gas10price_list29price_list_by_network_version
FNDA:4,_RNvXsf_NtNtCs5xYBAi2tWzh_3fvm3gas10price_listNtB5_8StepCostNtNtCslBoGNiFC398_4core3cmp9PartialEq2eqCs4BSQmiRtlYl_3fvm
FNDA:2,_RNvXss_NtNtCs5xYBAi2tWzh_3fvm3gas10price_listNtB5_9PriceListNtNtCslBoGNiFC398_4core3cmp9PartialEq2eqCs4BSQmiRtlYl_3fvm
FNDA:6,_RNvMs_NtNtCs5xYBAi2tWzh_3fvm3gas10price_listNtB4_9PriceList13on_block_statCs4BSQmiRtlYl_3fvm
FNDA:1,_RNvXsA_NtNtCs5xYBAi2tWzh_3fvm3gas10price_listNtB5_13WasmGasPricesNtNtCslBoGNiFC398_4core3cmp9PartialEq2eqCs4BSQmiRtlYl_3fvm
FNDA:1,_RNvMs_NtNtCs5xYBAi2tWzh_3fvm3gas10price_listNtB4_9PriceList22on_block_open_per_byteCs4BSQmiRtlYl_3fvm
FNDA:1,_RNvMs_NtNtCs5xYBAi2tWzh_3fvm3gas10price_listNtB4_9PriceList18on_block_open_baseCs4BSQmiRtlYl_3fvm
FNDA:5,_RNvMs_NtNtCs5xYBAi2tWzh_3fvm3gas10price_listNtB4_9PriceList13on_block_linkCs4BSQmiRtlYl_3fvm
FNDA:32,_RNvXsm_NtNtCs5xYBAi2tWzh_3fvm3gas10price_listNtB5_4StepNtNtCslBoGNiFC398_4core3cmp9PartialEq2eqCs4BSQmiRtlYl_3fvm
FNDA:6,_RNvXs9_NtNtCs5xYBAi2tWzh_3fvm3gas10price_listNtB5_11ScalingCostNtNtCslBoGNiFC398_4core3cmp9PartialEq2eqCs4BSQmiRtlYl_3fvm
FNDA:21,_RNvMs_NtNtCs5xYBAi2tWzh_3fvm3gas10price_listNtB4_9PriceList15on_block_createCs4BSQmiRtlYl_3fvm
FNDA:9,_RNvMs_NtNtCs5xYBAi2tWzh_3fvm3gas10price_listNtB4_9PriceList13on_block_readCs4BSQmiRtlYl_3fvm
FNDA:0,_RNvXsd_NtNtCs5xYBAi2tWzh_3fvm3gas10price_listNtB5_8StepCostNtNtCslBoGNiFC398_4core3fmt5Debug3fmt
FNDA:0,_RNvXsw_NtNtCs5xYBAi2tWzh_3fvm3gas10price_listNtB5_13WasmGasPricesNtNtCslBoGNiFC398_4core3fmt5Debug3fmt
FNDA:0,_RNvXsq_NtNtCs5xYBAi2tWzh_3fvm3gas10price_listNtB5_9PriceListNtNtCslBoGNiFC398_4core3fmt5Debug3fmt
FNDA:20,_RNvNtNtCs5xYBAi2tWzh_3fvm3gas10price_list29price_list_by_network_version
FNDA:0,_RINvXsB_NtNtCs5xYBAi2tWzh_3fvm3gas10price_listNtB6_13WasmGasPricesNtNtCslBoGNiFC398_4core4hash4Hash4hashNtNtNtNtCsduPDAHU5p59_3std11collections4hash3map13DefaultHasherEBa_
FNDA:0,_RNvXs0_NtNtCs5xYBAi2tWzh_3fvm3gas10price_listNtB5_13WasmGasPricesNtNtCshVNiQj7SZ3v_19fvm_wasm_instrument12gas_metering5Rules16memory_grow_cost
FNDA:0,_RNvXsA_NtNtCs5xYBAi2tWzh_3fvm3gas10price_listNtB5_13WasmGasPricesNtNtCslBoGNiFC398_4core3cmp9PartialEq2eqB9_
FNDA:4,_RNvXsc_NtNtCs5xYBAi2tWzh_3fvm3gas10price_listNtB5_8StepCostNtNtCslBoGNiFC398_4core5clone5Clone5cloneB9_
FNDA:0,_RNvMs_NtNtCs5xYBAi2tWzh_3fvm3gas10price_listNtB4_9PriceList10on_syscall
FNDA:0,_RNvXs6_NtNtCs5xYBAi2tWzh_3fvm3gas10price_listNtB5_11ScalingCostNtNtCslBoGNiFC398_4core3fmt5Debug3fmt
FNDA:0,_RNvXsj_NtNtCs5xYBAi2tWzh_3fvm3gas10price_listNtB5_4StepNtNtCslBoGNiFC398_4core3fmt5Debug3fmt
FNDA:0,_RNvMNtNtCs5xYBAi2tWzh_3fvm3gas10price_listNtB2_8StepCost6lookup
FNDA:0,_RNvXs0_NtNtCs5xYBAi2tWzh_3fvm3gas10price_listNtB5_13WasmGasPricesNtNtCshVNiQj7SZ3v_19fvm_wasm_instrument12gas_metering5Rules16instruction_cost
FNDA:0,_RNvMs_NtNtCs5xYBAi2tWzh_3fvm3gas10price_listNtB4_9PriceList17on_get_randomnessB8_
FNDA:0,_RNvMs_NtNtCs5xYBAi2tWzh_3fvm3gas10price_listNtB4_9PriceList14on_verify_sealB8_
FNDA:0,_RNvXss_NtNtCs5xYBAi2tWzh_3fvm3gas10price_listNtB5_9PriceListNtNtCslBoGNiFC398_4core3cmp9PartialEq2neB9_
FNDA:0,_RNCNvMs_NtNtCs5xYBAi2tWzh_3fvm3gas10price_listNtB6_9PriceList25on_verify_aggregate_seals0Ba_
FNDA:0,_RNvMs_NtNtCs5xYBAi2tWzh_3fvm3gas10price_listNtB4_9PriceList22on_block_open_per_byteB8_
FNDA:0,_RNvMs_NtNtCs5xYBAi2tWzh_3fvm3gas10price_listNtB4_9PriceList30on_compute_unsealed_sector_cidB8_
FNDA:0,_RNvMs_NtNtCs5xYBAi2tWzh_3fvm3gas10price_listNtB4_9PriceList10on_hashingB8_
FNDA:0,_RNvMs_NtNtCs5xYBAi2tWzh_3fvm3gas10price_listNtB4_9PriceList18on_block_open_baseB8_
FNDA:0,_RNCNvMs_NtNtCs5xYBAi2tWzh_3fvm3gas10price_listNtB6_9PriceList14on_verify_posts_0Ba_
FNDA:0,_RNvMs_NtNtCs5xYBAi2tWzh_3fvm3gas10price_listNtB4_9PriceList13on_block_readB8_
FNDA:0,_RNvXsA_NtNtCs5xYBAi2tWzh_3fvm3gas10price_listNtB5_13WasmGasPricesNtNtCslBoGNiFC398_4core3cmp9PartialEq2neB9_
FNDA:0,_RNvMs_NtNtCs5xYBAi2tWzh_3fvm3gas10price_listNtB4_9PriceList25on_verify_consensus_faultB8_
FNDA:0,_RNvMs_NtNtCs5xYBAi2tWzh_3fvm3gas10price_listNtB4_9PriceList16on_chain_messageB8_
FNDA:0,_RNvXsm_NtNtCs5xYBAi2tWzh_3fvm3gas10price_listNtB5_4StepNtNtCslBoGNiFC398_4core3cmp9PartialEq2neB9_
FNDA:0,_RNvXsv_NtNtCs5xYBAi2tWzh_3fvm3gas10price_listNtB5_13WasmGasPricesNtNtCslBoGNiFC398_4core5clone5Clone5cloneB9_
FNDA:0,_RNvXsp_NtNtCs5xYBAi2tWzh_3fvm3gas10price_listNtB5_9PriceListNtNtCslBoGNiFC398_4core5clone5Clone5cloneB9_
FNDA:0,_RNvMs_NtNtCs5xYBAi2tWzh_3fvm3gas10price_listNtB4_9PriceList15on_block_createB8_
FNDA:0,_RNvMs_NtNtCs5xYBAi2tWzh_3fvm3gas10price_listNtB4_9PriceList14on_verify_postB8_
FNDA:0,_RNvMs_NtNtCs5xYBAi2tWzh_3fvm3gas10price_listNtB4_9PriceList19on_verify_signatureB8_
FNDA:0,_RNvXsi_NtNtCs5xYBAi2tWzh_3fvm3gas10price_listNtB5_4StepNtNtCslBoGNiFC398_4core5clone5Clone5cloneB9_
FNDA:0,_RNvXss_NtNtCs5xYBAi2tWzh_3fvm3gas10price_listNtB5_9PriceListNtNtCslBoGNiFC398_4core3cmp9PartialEq2eqB9_
FNDA:0,_RNCNvMs_NtNtCs5xYBAi2tWzh_3fvm3gas10price_listNtB6_9PriceList14on_verify_post0Ba_
FNDA:0,_RNvMs_NtNtCs5xYBAi2tWzh_3fvm3gas10price_listNtB4_9PriceList13on_block_statB8_
FNDA:0,_RNvXs5_NtNtCs5xYBAi2tWzh_3fvm3gas10price_listNtB5_11ScalingCostNtNtCslBoGNiFC398_4core5clone5Clone5cloneB9_
FNDA:0,_RNvXs9_NtNtCs5xYBAi2tWzh_3fvm3gas10price_listNtB5_11ScalingCostNtNtCslBoGNiFC398_4core3cmp9PartialEq2neB9_
FNDA:0,_RNvXs9_NtNtCs5xYBAi2tWzh_3fvm3gas10price_listNtB5_11ScalingCostNtNtCslBoGNiFC398_4core3cmp9PartialEq2eqB9_
FNDA:0,_RNvXsm_NtNtCs5xYBAi2tWzh_3fvm3gas10price_listNtB5_4StepNtNtCslBoGNiFC398_4core3cmp9PartialEq2eqB9_
FNDA:0,_RNvMs_NtNtCs5xYBAi2tWzh_3fvm3gas10price_listNtB4_9PriceList20on_method_invocationB8_
FNDA:0,_RNvMs_NtNtCs5xYBAi2tWzh_3fvm3gas10price_listNtB4_9PriceList25on_verify_aggregate_sealsB8_
FNDA:0,_RNvMs_NtNtCs5xYBAi2tWzh_3fvm3gas10price_listNtB4_9PriceList21on_chain_return_valueB8_
FNDA:0,_RNvMs_NtNtCs5xYBAi2tWzh_3fvm3gas10price_listNtB4_9PriceList15on_delete_actorB8_
FNDA:0,_RNvXsf_NtNtCs5xYBAi2tWzh_3fvm3gas10price_listNtB5_8StepCostNtNtCslBoGNiFC398_4core3cmp9PartialEq2eqB9_
FNDA:0,_RNvMs_NtNtCs5xYBAi2tWzh_3fvm3gas10price_listNtB4_9PriceList24on_verify_replica_updateB8_
FNDA:0,_RNvMs_NtNtCs5xYBAi2tWzh_3fvm3gas10price_listNtB4_9PriceList15on_create_actorB8_
FNDA:0,_RNvXsf_NtNtCs5xYBAi2tWzh_3fvm3gas10price_listNtB5_8StepCostNtNtCslBoGNiFC398_4core3cmp9PartialEq2neB9_
FNDA:0,_RNCNvMs_NtNtCs5xYBAi2tWzh_3fvm3gas10price_listNtB6_9PriceList25on_verify_aggregate_sealss_0Ba_
FNDA:0,_RNvMs_NtNtCs5xYBAi2tWzh_3fvm3gas10price_listNtB4_9PriceList13on_block_linkB8_
FNF:45
FNH:13
DA:275,6
DA:281,6
DA:284,32
DA:291,0
DA:292,0
DA:293,0
DA:294,0
DA:295,0
DA:296,0
DA:297,0
DA:299,0
DA:300,0
DA:301,0
DA:302,0
DA:303,0
DA:304,0
DA:309,2
DA:415,1
DA:423,0
DA:424,0
DA:425,0
DA:426,0
DA:427,0
DA:428,0
DA:429,0
DA:430,0
DA:431,0
DA:435,0
DA:436,0
DA:437,0
DA:438,0
DA:439,0
DA:440,0
DA:441,0
DA:445,0
DA:446,0
DA:447,0
DA:448,0
DA:449,0
DA:450,0
DA:451,0
DA:452,0
DA:453,0
DA:454,0
DA:455,0
DA:456,0
DA:457,0
DA:458,0
DA:459,0
DA:460,0
DA:461,0
DA:464,0
DA:465,0
DA:466,0
DA:470,0
DA:471,0
DA:472,0
DA:473,0
DA:474,0
DA:475,0
DA:476,0
DA:480,0
DA:481,0
DA:482,0
DA:483,0
DA:484,0
DA:485,0
DA:486,0
DA:490,0
DA:491,0
DA:492,0
DA:493,0
DA:495,0
DA:496,0
DA:500,0
DA:501,0
DA:502,0
DA:506,0
DA:507,0
DA:508,0
DA:509,0
DA:510,0
DA:511,0
DA:512,0
DA:513,0
DA:514,0
DA:515,0
DA:516,0
DA:520,0
DA:521,0
DA:522,0
DA:524,0
DA:525,0
DA:526,0
DA:527,0
DA:528,0
DA:529,0
DA:530,0
DA:531,0
DA:532,0
DA:533,0
DA:534,0
DA:535,0
DA:536,0
DA:537,0
DA:538,0
DA:539,0
DA:540,0
DA:541,0
DA:542,0
DA:543,0
DA:544,0
DA:545,0
DA:546,0
DA:547,0
DA:548,0
DA:549,0
DA:550,0
DA:551,0
DA:552,0
DA:553,0
DA:554,0
DA:555,0
DA:556,0
DA:557,0
DA:561,0
DA:562,0
DA:563,0
DA:564,0
DA:565,0
DA:566,0
DA:567,0
DA:571,0
DA:572,0
DA:573,0
DA:574,0
DA:575,0
DA:576,0
DA:577,0
DA:578,0
DA:579,0
DA:580,0
DA:581,0
DA:582,0
DA:583,0
DA:584,0
DA:585,0
DA:586,0
DA:590,0
DA:591,0
DA:592,0
DA:593,0
DA:594,0
DA:595,0
DA:596,0
DA:601,0
DA:602,0
DA:603,0
DA:604,0
DA:605,0
DA:606,0
DA:607,0
DA:608,0
DA:609,0
DA:613,1
DA:614,1
DA:615,1
DA:616,1
DA:617,1
DA:618,1
DA:619,1
DA:623,1
DA:624,1
DA:625,1
DA:626,1
DA:627,1
DA:628,1
DA:629,1
DA:630,1
DA:631,1
DA:635,9
DA:636,9
DA:637,9
DA:638,9
DA:639,9
DA:640,9
DA:641,9
DA:645,21
DA:646,21
DA:647,21
DA:648,21
DA:649,21
DA:650,21
DA:651,21
DA:652,21
DA:653,21
DA:654,21
DA:658,5
DA:659,5
DA:660,5
DA:661,5
DA:662,5
DA:663,5
DA:664,5
DA:665,5
DA:666,5
DA:667,5
DA:668,5
DA:669,5
DA:670,5
DA:674,6
DA:675,6
DA:676,6
DA:680,21
DA:681,21
DA:682,20
DA:683,1
DA:685,21
DA:688,0
DA:689,0
DA:690,0
DA:691,0
DA:692,0
DA:693,0
DA:694,0
DA:695,0
DA:696,0
DA:697,0
DA:706,0
DA:707,0
DA:709,0
DA:711,0
DA:712,0
DA:713,0
BRF:0
BRH:0
LF:252
LH:60
end_of_record
SF:/home/mriise/Projects/ref-fvm/fvm/src/init_actor.rs
FN:31,_RNvXNvXNvNvXs1_NtCs2gD7la8YEGu_3fvm10init_actorNtBd_5StateNtNtCsj3WkLEH4Ge0_5serde2de11Deserialize11deserialize1__NtB7_5InnerBU_11deserializeNtB2_9___VisitorNtBW_7Visitor9expecting
FN:31,_RNvXs2_NtCs2gD7la8YEGu_3fvm10init_actorNtB5_5StateNtNtCslBoGNiFC398_4core3fmt5Debug3fmt
FN:31,_RINvXNvNvXs0_NtCs2gD7la8YEGu_3fvm10init_actorNtBb_5StateNtNtCsj3WkLEH4Ge0_5serde3ser9Serialize9serialize1__NtB5_5InnerBS_9serializeINtCs66xhiZNt6H5_11serde_tuple10SerializerQINtNtCs7jq4FGjB44s_18serde_ipld_dagcbor3ser10SerializerNtNtNtCshVKh6t4RGJQ_7cbor4ii4core5utils9BufWriterEEEBd_
FN:31,_RINvXNvNvXs1_NtCs2gD7la8YEGu_3fvm10init_actorNtBb_5StateNtNtCsj3WkLEH4Ge0_5serde2de11Deserialize11deserialize1__NtB5_5InnerBS_11deserializeINtCs66xhiZNt6H5_11serde_tuple12DeserializerQINtNtCs7jq4FGjB44s_18serde_ipld_dagcbor2de12DeserializerNtNtNtCshVKh6t4RGJQ_7cbor4ii4core5utils11SliceReaderEEEBd_
FN:31,_RINvXNvXNvNvXs1_NtCs2gD7la8YEGu_3fvm10init_actorNtBe_5StateNtNtCsj3WkLEH4Ge0_5serde2de11Deserialize11deserialize1__NtB8_5InnerBV_11deserializeNtB3_9___VisitorNtBX_7Visitor9visit_seqINtNtCs7jq4FGjB44s_18serde_ipld_dagcbor2de8AccessorNtNtNtCshVKh6t4RGJQ_7cbor4ii4core5utils11SliceReaderEEBg_
FN:94,_RINvMs_NtCs2gD7la8YEGu_3fvm10init_actorNtB5_5State15resolve_addressRINtNtNtB7_10blockstore8buffered18BufferedBlockstoreNtNtCslbkBntY5hAO_19fvm_ipld_blockstore6memory16MemoryBlockstoreEEB7_
FN:42,_RINvMs_NtCs2gD7la8YEGu_3fvm10init_actorNtB5_5State4loadRNtNtCslbkBntY5hAO_19fvm_ipld_blockstore6memory16MemoryBlockstoreEB7_
FN:31,_RINvXs0_NtCs2gD7la8YEGu_3fvm10init_actorNtB6_5StateNtNtCsj3WkLEH4Ge0_5serde3ser9Serialize9serializeQINtNtCs7jq4FGjB44s_18serde_ipld_dagcbor3ser10SerializerNtNtNtCshVKh6t4RGJQ_7cbor4ii4core5utils9BufWriterEEB8_
FN:31,_RINvXs1_NtCs2gD7la8YEGu_3fvm10init_actorNtB6_5StateNtNtCsj3WkLEH4Ge0_5serde2de11Deserialize11deserializeQINtNtCs7jq4FGjB44s_18serde_ipld_dagcbor2de12DeserializerNtNtNtCshVKh6t4RGJQ_7cbor4ii4core5utils11SliceReaderEEB8_
FN:42,_RINvMs_NtCs2gD7la8YEGu_3fvm10init_actorNtB5_5State4loadINtNtNtB7_10blockstore8buffered18BufferedBlockstoreNtNtCslbkBntY5hAO_19fvm_ipld_blockstore6memory16MemoryBlockstoreEEB7_
FN:94,_RINvMs_NtCs2gD7la8YEGu_3fvm10init_actorNtB5_5State15resolve_addressRRNtNtCslbkBntY5hAO_19fvm_ipld_blockstore6memory16MemoryBlockstoreEB7_
FN:63,_RINvMs_NtCs2gD7la8YEGu_3fvm10init_actorNtB5_5State21map_address_to_new_idRRNtNtCslbkBntY5hAO_19fvm_ipld_blockstore6memory16MemoryBlockstoreEB7_
FN:31,_RINvXNvXNvNvXs1_NtCs5xYBAi2tWzh_3fvm10init_actorNtBe_5StateNtNtCsj3WkLEH4Ge0_5serde2de11Deserialize11deserialize1__NtB8_5InnerBV_11deserializeNtB3_9___VisitorNtBX_7Visitor9visit_seqpEBg_
FN:31,_RINvXNvNvXs0_NtCs5xYBAi2tWzh_3fvm10init_actorNtBb_5StateNtNtCsj3WkLEH4Ge0_5serde3ser9Serialize9serialize1__NtB5_5InnerBS_9serializepEBd_
FN:94,_RINvMs_NtCs5xYBAi2tWzh_3fvm10init_actorNtB5_5State15resolve_addresspEB7_
FN:31,_RINvXNvNvXs1_NtCs5xYBAi2tWzh_3fvm10init_actorNtBb_5StateNtNtCsj3WkLEH4Ge0_5serde2de11Deserialize11deserialize1__NtB5_5InnerBS_11deserializepEBd_
FN:63,_RINvMs_NtCs5xYBAi2tWzh_3fvm10init_actorNtB5_5State21map_address_to_new_idpEB7_
FN:31,_RINvXs1_NtCs5xYBAi2tWzh_3fvm10init_actorNtB6_5StateNtNtCsj3WkLEH4Ge0_5serde2de11Deserialize11deserializepEB8_
FN:31,_RINvXs0_NtCs5xYBAi2tWzh_3fvm10init_actorNtB6_5StateNtNtCsj3WkLEH4Ge0_5serde3ser9Serialize9serializepEB8_
FN:42,_RINvMs_NtCs5xYBAi2tWzh_3fvm10init_actorNtB5_5State4loadpEB7_
FN:31,_RNvXNvXNvNvXs1_NtCs5xYBAi2tWzh_3fvm10init_actorNtBd_5StateNtNtCsj3WkLEH4Ge0_5serde2de11Deserialize11deserialize1__NtB7_5InnerBU_11deserializeNtB2_9___VisitorNtBW_7Visitor9expecting
FN:31,_RNvXs2_NtCs5xYBAi2tWzh_3fvm10init_actorNtB5_5StateNtNtCslBoGNiFC398_4core3fmt5Debug3fmt
FNDA:0,_RNvXNvXNvNvXs1_NtCs2gD7la8YEGu_3fvm10init_actorNtBd_5StateNtNtCsj3WkLEH4Ge0_5serde2de11Deserialize11deserialize1__NtB7_5InnerBU_11deserializeNtB2_9___VisitorNtBW_7Visitor9expecting
FNDA:0,_RNvXs2_NtCs2gD7la8YEGu_3fvm10init_actorNtB5_5StateNtNtCslBoGNiFC398_4core3fmt5Debug3fmt
FNDA:2,_RINvXNvNvXs0_NtCs2gD7la8YEGu_3fvm10init_actorNtBb_5StateNtNtCsj3WkLEH4Ge0_5serde3ser9Serialize9serialize1__NtB5_5InnerBS_9serializeINtCs66xhiZNt6H5_11serde_tuple10SerializerQINtNtCs7jq4FGjB44s_18serde_ipld_dagcbor3ser10SerializerNtNtNtCshVKh6t4RGJQ_7cbor4ii4core5utils9BufWriterEEEBd_
FNDA:1,_RINvXNvNvXs1_NtCs2gD7la8YEGu_3fvm10init_actorNtBb_5StateNtNtCsj3WkLEH4Ge0_5serde2de11Deserialize11deserialize1__NtB5_5InnerBS_11deserializeINtCs66xhiZNt6H5_11serde_tuple12DeserializerQINtNtCs7jq4FGjB44s_18serde_ipld_dagcbor2de12DeserializerNtNtNtCshVKh6t4RGJQ_7cbor4ii4core5utils11SliceReaderEEEBd_
FNDA:1,_RINvXNvXNvNvXs1_NtCs2gD7la8YEGu_3fvm10init_actorNtBe_5StateNtNtCsj3WkLEH4Ge0_5serde2de11Deserialize11deserialize1__NtB8_5InnerBV_11deserializeNtB3_9___VisitorNtBX_7Visitor9visit_seqINtNtCs7jq4FGjB44s_18serde_ipld_dagcbor2de8AccessorNtNtNtCshVKh6t4RGJQ_7cbor4ii4core5utils11SliceReaderEEBg_
FNDA:0,_RINvMs_NtCs2gD7la8YEGu_3fvm10init_actorNtB5_5State15resolve_addressRINtNtNtB7_10blockstore8buffered18BufferedBlockstoreNtNtCslbkBntY5hAO_19fvm_ipld_blockstore6memory16MemoryBlockstoreEEB7_
FNDA:1,_RINvMs_NtCs2gD7la8YEGu_3fvm10init_actorNtB5_5State4loadRNtNtCslbkBntY5hAO_19fvm_ipld_blockstore6memory16MemoryBlockstoreEB7_
FNDA:2,_RINvXs0_NtCs2gD7la8YEGu_3fvm10init_actorNtB6_5StateNtNtCsj3WkLEH4Ge0_5serde3ser9Serialize9serializeQINtNtCs7jq4FGjB44s_18serde_ipld_dagcbor3ser10SerializerNtNtNtCshVKh6t4RGJQ_7cbor4ii4core5utils9BufWriterEEB8_
FNDA:1,_RINvXs1_NtCs2gD7la8YEGu_3fvm10init_actorNtB6_5StateNtNtCsj3WkLEH4Ge0_5serde2de11Deserialize11deserializeQINtNtCs7jq4FGjB44s_18serde_ipld_dagcbor2de12DeserializerNtNtNtCshVKh6t4RGJQ_7cbor4ii4core5utils11SliceReaderEEB8_
FNDA:0,_RINvMs_NtCs2gD7la8YEGu_3fvm10init_actorNtB5_5State4loadINtNtNtB7_10blockstore8buffered18BufferedBlockstoreNtNtCslbkBntY5hAO_19fvm_ipld_blockstore6memory16MemoryBlockstoreEEB7_
FNDA:0,_RINvMs_NtCs2gD7la8YEGu_3fvm10init_actorNtB5_5State15resolve_addressRRNtNtCslbkBntY5hAO_19fvm_ipld_blockstore6memory16MemoryBlockstoreEB7_
FNDA:1,_RINvMs_NtCs2gD7la8YEGu_3fvm10init_actorNtB5_5State21map_address_to_new_idRRNtNtCslbkBntY5hAO_19fvm_ipld_blockstore6memory16MemoryBlockstoreEB7_
FNDA:0,_RINvXNvXNvNvXs1_NtCs5xYBAi2tWzh_3fvm10init_actorNtBe_5StateNtNtCsj3WkLEH4Ge0_5serde2de11Deserialize11deserialize1__NtB8_5InnerBV_11deserializeNtB3_9___VisitorNtBX_7Visitor9visit_seqpEBg_
FNDA:0,_RINvXNvNvXs0_NtCs5xYBAi2tWzh_3fvm10init_actorNtBb_5StateNtNtCsj3WkLEH4Ge0_5serde3ser9Serialize9serialize1__NtB5_5InnerBS_9serializepEBd_
FNDA:0,_RINvMs_NtCs5xYBAi2tWzh_3fvm10init_actorNtB5_5State15resolve_addresspEB7_
FNDA:0,_RINvXNvNvXs1_NtCs5xYBAi2tWzh_3fvm10init_actorNtBb_5StateNtNtCsj3WkLEH4Ge0_5serde2de11Deserialize11deserialize1__NtB5_5InnerBS_11deserializepEBd_
FNDA:0,_RINvMs_NtCs5xYBAi2tWzh_3fvm10init_actorNtB5_5State21map_address_to_new_idpEB7_
FNDA:0,_RINvXs1_NtCs5xYBAi2tWzh_3fvm10init_actorNtB6_5StateNtNtCsj3WkLEH4Ge0_5serde2de11Deserialize11deserializepEB8_
FNDA:0,_RINvXs0_NtCs5xYBAi2tWzh_3fvm10init_actorNtB6_5StateNtNtCsj3WkLEH4Ge0_5serde3ser9Serialize9serializepEB8_
FNDA:0,_RINvMs_NtCs5xYBAi2tWzh_3fvm10init_actorNtB5_5State4loadpEB7_
FNDA:0,_RNvXNvXNvNvXs1_NtCs5xYBAi2tWzh_3fvm10init_actorNtBd_5StateNtNtCsj3WkLEH4Ge0_5serde2de11Deserialize11deserialize1__NtB7_5InnerBU_11deserializeNtB2_9___VisitorNtBW_7Visitor9expecting
FNDA:0,_RNvXs2_NtCs5xYBAi2tWzh_3fvm10init_actorNtB5_5StateNtNtCslBoGNiFC398_4core3fmt5Debug3fmt
FNF:6
FNH:4
DA:31,2
DA:42,1
DA:43,1
DA:44,1
DA:45,1
DA:46,1
DA:47,1
DA:48,1
DA:49,1
DA:51,1
DA:52,1
DA:53,1
DA:54,1
DA:55,1
DA:56,1
DA:58,1
DA:59,1
DA:63,1
DA:64,1
DA:65,1
DA:66,1
DA:67,1
DA:68,1
DA:70,1
DA:71,1
DA:72,1
DA:73,1
DA:75,1
DA:76,1
DA:94,0
DA:95,0
DA:96,0
DA:98,0
DA:99,0
DA:101,0
DA:102,0
BRF:0
BRH:0
LF:38
LH:30
end_of_record
SF:/home/mriise/Projects/ref-fvm/fvm/src/kernel/blocks.rs
FN:23,_RNvXs8_NtNtCs2gD7la8YEGu_3fvm6kernel6blocksNtB5_9BlockStatNtNtCslBoGNiFC398_4core5clone5Clone5cloneB9_
FN:81,_RNvXs_NtNtCs2gD7la8YEGu_3fvm6kernel6blocksNtNtB6_5error12SyscallErrorINtNtCslBoGNiFC398_4core7convert4FromNtB4_13BlockPutErrorE4from
FN:150,_RNCNvMs4_NtNtCs2gD7la8YEGu_3fvm6kernel6blocksNtB7_13BlockRegistry4stat0Bb_
FN:119,_RNvMs4_NtNtCs2gD7la8YEGu_3fvm6kernel6blocksNtB5_13BlockRegistry3put
FN:95,_RNvXsf_NtNtCs2gD7la8YEGu_3fvm6kernel6blocksNtB5_18InvalidHandleErrorNtNtCslBoGNiFC398_4core3fmt7Display3fmt
FN:39,_RINvMNtNtCs2gD7la8YEGu_3fvm6kernel6blocksNtB3_5Block3newpEB7_
FN:106,_RNvXs2_NtNtCs2gD7la8YEGu_3fvm6kernel6blocksNtNtB7_5error14ExecutionErrorINtNtCslBoGNiFC398_4core7convert4FromNtB5_18InvalidHandleErrorE4from
FN:144,_RNvMs4_NtNtCs2gD7la8YEGu_3fvm6kernel6blocksNtB5_13BlockRegistry4stat
FN:29,_RNvXsa_NtNtCs2gD7la8YEGu_3fvm6kernel6blocksNtB5_5BlockNtNtCslBoGNiFC398_4core5clone5Clone5cloneB9_
FN:59,_RNvMNtNtCs2gD7la8YEGu_3fvm6kernel6blocksNtB2_5Block4size
FN:54,_RNvMNtNtCs2gD7la8YEGu_3fvm6kernel6blocksNtB2_5Block4data
FN:133,_RNvMs4_NtNtCs2gD7la8YEGu_3fvm6kernel6blocksNtB5_13BlockRegistry3get
FN:23,_RNvXs6_NtNtCs2gD7la8YEGu_3fvm6kernel6blocksNtB5_9BlockStatNtNtCslBoGNiFC398_4core3fmt5Debug3fmt
FN:100,_RNvXs1_NtNtCs2gD7la8YEGu_3fvm6kernel6blocksNtNtB7_5error12SyscallErrorINtNtCslBoGNiFC398_4core7convert4FromNtB5_18InvalidHandleErrorE4from
FN:90,_RNvXs0_NtNtCs2gD7la8YEGu_3fvm6kernel6blocksNtNtB7_5error14ExecutionErrorINtNtCslBoGNiFC398_4core7convert4FromNtB5_13BlockPutErrorE4from
FN:72,_RNvXsd_NtNtCs2gD7la8YEGu_3fvm6kernel6blocksNtB5_13BlockPutErrorNtNtCslBoGNiFC398_4core3fmt5Debug3fmt
FN:72,_RNvXsc_NtNtCs2gD7la8YEGu_3fvm6kernel6blocksNtB5_13BlockPutErrorNtNtCslBoGNiFC398_4core3fmt7Display3fmt
FN:49,_RNvMNtNtCs2gD7la8YEGu_3fvm6kernel6blocksNtB2_5Block5codec
FN:139,_RNCNvMs4_NtNtCs2gD7la8YEGu_3fvm6kernel6blocksNtB7_13BlockRegistry3get0Bb_
FN:64,_RNvMNtNtCs2gD7la8YEGu_3fvm6kernel6blocksNtB2_5Block4stat
FN:10,_RNvXs5_NtNtCs2gD7la8YEGu_3fvm6kernel6blocksNtB5_13BlockRegistryNtNtCslBoGNiFC398_4core7default7Default7defaultB9_
FN:112,_RNvMs3_NtNtCs2gD7la8YEGu_3fvm6kernel6blocksNtB5_13BlockRegistry3new
FN:152,_RNCNvMs4_NtNtCs2gD7la8YEGu_3fvm6kernel6blocksNtB7_13BlockRegistry4stats_0Bb_
FN:158,_RNvMs4_NtNtCs2gD7la8YEGu_3fvm6kernel6blocksNtB5_13BlockRegistry7is_full
FN:95,_RNvXsg_NtNtCs2gD7la8YEGu_3fvm6kernel6blocksNtB5_18InvalidHandleErrorNtNtCslBoGNiFC398_4core3fmt5Debug3fmt
FN:29,_RNvXs9_NtNtCs2gD7la8YEGu_3fvm6kernel6blocksNtB5_5BlockNtNtCslBoGNiFC398_4core3fmt5Debug3fmt
FN:54,_RNvMNtNtCs5xYBAi2tWzh_3fvm6kernel6blocksNtB2_5Block4data
FN:49,_RNvMNtNtCs5xYBAi2tWzh_3fvm6kernel6blocksNtB2_5Block5codec
FN:64,_RNvMNtNtCs5xYBAi2tWzh_3fvm6kernel6blocksNtB2_5Block4stat
FN:59,_RNvMNtNtCs5xYBAi2tWzh_3fvm6kernel6blocksNtB2_5Block4size
FN:10,_RNvXs5_NtNtCs5xYBAi2tWzh_3fvm6kernel6blocksNtB5_13BlockRegistryNtNtCslBoGNiFC398_4core7default7Default7defaultCs4BSQmiRtlYl_3fvm
FN:39,_RINvMNtNtCs5xYBAi2tWzh_3fvm6kernel6blocksNtB3_5Block3newINtNtCsc0YPw4IdecV_5alloc3vec3VechEECs4BSQmiRtlYl_3fvm
FN:39,_RINvMNtNtCs5xYBAi2tWzh_3fvm6kernel6blocksNtB3_5Block3newRShECs4BSQmiRtlYl_3fvm
FN:39,_RINvMNtNtCs5xYBAi2tWzh_3fvm6kernel6blocksNtB3_5Block3newpEB7_
FN:10,_RNvXs5_NtNtCs5xYBAi2tWzh_3fvm6kernel6blocksNtB5_13BlockRegistryNtNtCslBoGNiFC398_4core7default7Default7defaultB9_
FN:29,_RNvXsa_NtNtCs5xYBAi2tWzh_3fvm6kernel6blocksNtB5_5BlockNtNtCslBoGNiFC398_4core5clone5Clone5cloneB9_
FN:23,_RNvXs8_NtNtCs5xYBAi2tWzh_3fvm6kernel6blocksNtB5_9BlockStatNtNtCslBoGNiFC398_4core5clone5Clone5cloneB9_
FN:23,_RNvXs6_NtNtCs5xYBAi2tWzh_3fvm6kernel6blocksNtB5_9BlockStatNtNtCslBoGNiFC398_4core3fmt5Debug3fmt
FN:152,_RNCNvMs4_NtNtCs5xYBAi2tWzh_3fvm6kernel6blocksNtB7_13BlockRegistry4stats_0Bb_
FN:95,_RNvXsf_NtNtCs5xYBAi2tWzh_3fvm6kernel6blocksNtB5_18InvalidHandleErrorNtNtCslBoGNiFC398_4core3fmt7Display3fmt
FN:29,_RNvXs9_NtNtCs5xYBAi2tWzh_3fvm6kernel6blocksNtB5_5BlockNtNtCslBoGNiFC398_4core3fmt5Debug3fmt
FN:133,_RNvMs4_NtNtCs5xYBAi2tWzh_3fvm6kernel6blocksNtB5_13BlockRegistry3get
FN:144,_RNvMs4_NtNtCs5xYBAi2tWzh_3fvm6kernel6blocksNtB5_13BlockRegistry4stat
FN:150,_RNCNvMs4_NtNtCs5xYBAi2tWzh_3fvm6kernel6blocksNtB7_13BlockRegistry4stat0Bb_
FN:72,_RNvXsc_NtNtCs5xYBAi2tWzh_3fvm6kernel6blocksNtB5_13BlockPutErrorNtNtCslBoGNiFC398_4core3fmt7Display3fmt
FN:72,_RNvXsd_NtNtCs5xYBAi2tWzh_3fvm6kernel6blocksNtB5_13BlockPutErrorNtNtCslBoGNiFC398_4core3fmt5Debug3fmt
FN:112,_RNvMs3_NtNtCs5xYBAi2tWzh_3fvm6kernel6blocksNtB5_13BlockRegistry3new
FN:119,_RNvMs4_NtNtCs5xYBAi2tWzh_3fvm6kernel6blocksNtB5_13BlockRegistry3put
FN:158,_RNvMs4_NtNtCs5xYBAi2tWzh_3fvm6kernel6blocksNtB5_13BlockRegistry7is_full
FN:95,_RNvXsg_NtNtCs5xYBAi2tWzh_3fvm6kernel6blocksNtB5_18InvalidHandleErrorNtNtCslBoGNiFC398_4core3fmt5Debug3fmt
FN:139,_RNCNvMs4_NtNtCs5xYBAi2tWzh_3fvm6kernel6blocksNtB7_13BlockRegistry3get0Bb_
FN:100,_RNvXs1_NtNtCs5xYBAi2tWzh_3fvm6kernel6blocksNtNtB7_5error12SyscallErrorINtNtCslBoGNiFC398_4core7convert4FromNtB5_18InvalidHandleErrorE4from
FN:81,_RNvXs_NtNtCs5xYBAi2tWzh_3fvm6kernel6blocksNtNtB6_5error12SyscallErrorINtNtCslBoGNiFC398_4core7convert4FromNtB4_13BlockPutErrorE4from
FN:106,_RNvXs2_NtNtCs5xYBAi2tWzh_3fvm6kernel6blocksNtNtB7_5error14ExecutionErrorINtNtCslBoGNiFC398_4core7convert4FromNtB5_18InvalidHandleErrorE4from
FN:90,_RNvXs0_NtNtCs5xYBAi2tWzh_3fvm6kernel6blocksNtNtB7_5error14ExecutionErrorINtNtCslBoGNiFC398_4core7convert4FromNtB5_13BlockPutErrorE4from
FNDA:0,_RNvXs8_NtNtCs2gD7la8YEGu_3fvm6kernel6blocksNtB5_9BlockStatNtNtCslBoGNiFC398_4core5clone5Clone5cloneB9_
FNDA:0,_RNvXs_NtNtCs2gD7la8YEGu_3fvm6kernel6blocksNtNtB6_5error12SyscallErrorINtNtCslBoGNiFC398_4core7convert4FromNtB4_13BlockPutErrorE4from
FNDA:0,_RNCNvMs4_NtNtCs2gD7la8YEGu_3fvm6kernel6blocksNtB7_13BlockRegistry4stat0Bb_
FNDA:0,_RNvMs4_NtNtCs2gD7la8YEGu_3fvm6kernel6blocksNtB5_13BlockRegistry3put
FNDA:0,_RNvXsf_NtNtCs2gD7la8YEGu_3fvm6kernel6blocksNtB5_18InvalidHandleErrorNtNtCslBoGNiFC398_4core3fmt7Display3fmt
FNDA:0,_RINvMNtNtCs2gD7la8YEGu_3fvm6kernel6blocksNtB3_5Block3newpEB7_
FNDA:0,_RNvXs2_NtNtCs2gD7la8YEGu_3fvm6kernel6blocksNtNtB7_5error14ExecutionErrorINtNtCslBoGNiFC398_4core7convert4FromNtB5_18InvalidHandleErrorE4from
FNDA:0,_RNvMs4_NtNtCs2gD7la8YEGu_3fvm6kernel6blocksNtB5_13BlockRegistry4stat
FNDA:0,_RNvXsa_NtNtCs2gD7la8YEGu_3fvm6kernel6blocksNtB5_5BlockNtNtCslBoGNiFC398_4core5clone5Clone5cloneB9_
FNDA:0,_RNvMNtNtCs2gD7la8YEGu_3fvm6kernel6blocksNtB2_5Block4size
FNDA:0,_RNvMNtNtCs2gD7la8YEGu_3fvm6kernel6blocksNtB2_5Block4data
FNDA:0,_RNvMs4_NtNtCs2gD7la8YEGu_3fvm6kernel6blocksNtB5_13BlockRegistry3get
FNDA:0,_RNvXs6_NtNtCs2gD7la8YEGu_3fvm6kernel6blocksNtB5_9BlockStatNtNtCslBoGNiFC398_4core3fmt5Debug3fmt
FNDA:0,_RNvXs1_NtNtCs2gD7la8YEGu_3fvm6kernel6blocksNtNtB7_5error12SyscallErrorINtNtCslBoGNiFC398_4core7convert4FromNtB5_18InvalidHandleErrorE4from
FNDA:0,_RNvXs0_NtNtCs2gD7la8YEGu_3fvm6kernel6blocksNtNtB7_5error14ExecutionErrorINtNtCslBoGNiFC398_4core7convert4FromNtB5_13BlockPutErrorE4from
FNDA:0,_RNvXsd_NtNtCs2gD7la8YEGu_3fvm6kernel6blocksNtB5_13BlockPutErrorNtNtCslBoGNiFC398_4core3fmt5Debug3fmt
FNDA:0,_RNvXsc_NtNtCs2gD7la8YEGu_3fvm6kernel6blocksNtB5_13BlockPutErrorNtNtCslBoGNiFC398_4core3fmt7Display3fmt
FNDA:0,_RNvMNtNtCs2gD7la8YEGu_3fvm6kernel6blocksNtB2_5Block5codec
FNDA:0,_RNCNvMs4_NtNtCs2gD7la8YEGu_3fvm6kernel6blocksNtB7_13BlockRegistry3get0Bb_
FNDA:0,_RNvMNtNtCs2gD7la8YEGu_3fvm6kernel6blocksNtB2_5Block4stat
FNDA:0,_RNvXs5_NtNtCs2gD7la8YEGu_3fvm6kernel6blocksNtB5_13BlockRegistryNtNtCslBoGNiFC398_4core7default7Default7defaultB9_
FNDA:0,_RNvMs3_NtNtCs2gD7la8YEGu_3fvm6kernel6blocksNtB5_13BlockRegistry3new
FNDA:0,_RNCNvMs4_NtNtCs2gD7la8YEGu_3fvm6kernel6blocksNtB7_13BlockRegistry4stats_0Bb_
FNDA:0,_RNvMs4_NtNtCs2gD7la8YEGu_3fvm6kernel6blocksNtB5_13BlockRegistry7is_full
FNDA:0,_RNvXsg_NtNtCs2gD7la8YEGu_3fvm6kernel6blocksNtB5_18InvalidHandleErrorNtNtCslBoGNiFC398_4core3fmt5Debug3fmt
FNDA:0,_RNvXs9_NtNtCs2gD7la8YEGu_3fvm6kernel6blocksNtB5_5BlockNtNtCslBoGNiFC398_4core3fmt5Debug3fmt
FNDA:16,_RNvMNtNtCs5xYBAi2tWzh_3fvm6kernel6blocksNtB2_5Block4data
FNDA:7,_RNvMNtNtCs5xYBAi2tWzh_3fvm6kernel6blocksNtB2_5Block5codec
FNDA:1,_RNvMNtNtCs5xYBAi2tWzh_3fvm6kernel6blocksNtB2_5Block4stat
FNDA:9,_RNvMNtNtCs5xYBAi2tWzh_3fvm6kernel6blocksNtB2_5Block4size
FNDA:18,_RNvXs5_NtNtCs5xYBAi2tWzh_3fvm6kernel6blocksNtB5_13BlockRegistryNtNtCslBoGNiFC398_4core7default7Default7defaultCs4BSQmiRtlYl_3fvm
FNDA:1,_RINvMNtNtCs5xYBAi2tWzh_3fvm6kernel6blocksNtB3_5Block3newINtNtCsc0YPw4IdecV_5alloc3vec3VechEECs4BSQmiRtlYl_3fvm
FNDA:18,_RINvMNtNtCs5xYBAi2tWzh_3fvm6kernel6blocksNtB3_5Block3newRShECs4BSQmiRtlYl_3fvm
FNDA:0,_RINvMNtNtCs5xYBAi2tWzh_3fvm6kernel6blocksNtB3_5Block3newpEB7_
FNDA:0,_RNvXs5_NtNtCs5xYBAi2tWzh_3fvm6kernel6blocksNtB5_13BlockRegistryNtNtCslBoGNiFC398_4core7default7Default7defaultB9_
FNDA:0,_RNvXsa_NtNtCs5xYBAi2tWzh_3fvm6kernel6blocksNtB5_5BlockNtNtCslBoGNiFC398_4core5clone5Clone5cloneB9_
FNDA:0,_RNvXs8_NtNtCs5xYBAi2tWzh_3fvm6kernel6blocksNtB5_9BlockStatNtNtCslBoGNiFC398_4core5clone5Clone5cloneB9_
FNDA:0,_RNvXs6_NtNtCs5xYBAi2tWzh_3fvm6kernel6blocksNtB5_9BlockStatNtNtCslBoGNiFC398_4core3fmt5Debug3fmt
FNDA:2,_RNCNvMs4_NtNtCs5xYBAi2tWzh_3fvm6kernel6blocksNtB7_13BlockRegistry4stats_0Bb_
FNDA:8,_RNvXsf_NtNtCs5xYBAi2tWzh_3fvm6kernel6blocksNtB5_18InvalidHandleErrorNtNtCslBoGNiFC398_4core3fmt7Display3fmt
FNDA:0,_RNvXs9_NtNtCs5xYBAi2tWzh_3fvm6kernel6blocksNtB5_5BlockNtNtCslBoGNiFC398_4core3fmt5Debug3fmt
FNDA:17,_RNvMs4_NtNtCs5xYBAi2tWzh_3fvm6kernel6blocksNtB5_13BlockRegistry3get
FNDA:5,_RNvMs4_NtNtCs5xYBAi2tWzh_3fvm6kernel6blocksNtB5_13BlockRegistry4stat
FNDA:4,_RNCNvMs4_NtNtCs5xYBAi2tWzh_3fvm6kernel6blocksNtB7_13BlockRegistry4stat0Bb_
FNDA:1,_RNvXsc_NtNtCs5xYBAi2tWzh_3fvm6kernel6blocksNtB5_13BlockPutErrorNtNtCslBoGNiFC398_4core3fmt7Display3fmt
FNDA:0,_RNvXsd_NtNtCs5xYBAi2tWzh_3fvm6kernel6blocksNtB5_13BlockPutErrorNtNtCslBoGNiFC398_4core3fmt5Debug3fmt
FNDA:0,_RNvMs3_NtNtCs5xYBAi2tWzh_3fvm6kernel6blocksNtB5_13BlockRegistry3new
FNDA:18,_RNvMs4_NtNtCs5xYBAi2tWzh_3fvm6kernel6blocksNtB5_13BlockRegistry3put
FNDA:18,_RNvMs4_NtNtCs5xYBAi2tWzh_3fvm6kernel6blocksNtB5_13BlockRegistry7is_full
FNDA:0,_RNvXsg_NtNtCs5xYBAi2tWzh_3fvm6kernel6blocksNtB5_18InvalidHandleErrorNtNtCslBoGNiFC398_4core3fmt5Debug3fmt
FNDA:15,_RNCNvMs4_NtNtCs5xYBAi2tWzh_3fvm6kernel6blocksNtB7_13BlockRegistry3get0Bb_
FNDA:8,_RNvXs1_NtNtCs5xYBAi2tWzh_3fvm6kernel6blocksNtNtB7_5error12SyscallErrorINtNtCslBoGNiFC398_4core7convert4FromNtB5_18InvalidHandleErrorE4from
FNDA:1,_RNvXs_NtNtCs5xYBAi2tWzh_3fvm6kernel6blocksNtNtB6_5error12SyscallErrorINtNtCslBoGNiFC398_4core7convert4FromNtB4_13BlockPutErrorE4from
FNDA:8,_RNvXs2_NtNtCs5xYBAi2tWzh_3fvm6kernel6blocksNtNtB7_5error14ExecutionErrorINtNtCslBoGNiFC398_4core7convert4FromNtB5_18InvalidHandleErrorE4from
FNDA:1,_RNvXs0_NtNtCs5xYBAi2tWzh_3fvm6kernel6blocksNtNtB7_5error14ExecutionErrorINtNtCslBoGNiFC398_4core7convert4FromNtB5_13BlockPutErrorE4from
FNF:26
FNH:19
DA:10,18
DA:23,0
DA:29,0
DA:39,19
DA:40,19
DA:41,19
DA:42,19
DA:43,19
DA:44,19
DA:45,19
DA:46,19
DA:49,7
DA:50,7
DA:51,7
DA:54,16
DA:55,16
DA:56,16
DA:59,9
DA:60,9
DA:61,9
DA:64,1
DA:65,1
DA:66,1
DA:67,1
DA:68,1
DA:69,1
DA:72,1
DA:81,1
DA:82,1
DA:83,0
DA:84,1
DA:86,1
DA:90,1
DA:91,1
DA:92,1
DA:95,8
DA:100,8
DA:101,8
DA:102,8
DA:106,8
DA:107,8
DA:108,8
DA:112,0
DA:113,0
DA:114,0
DA:119,18
DA:120,18
DA:121,0
DA:122,18
DA:123,18
DA:124,1
DA:125,17
DA:126,17
DA:127,17
DA:128,17
DA:129,17
DA:130,18
DA:133,17
DA:134,17
DA:135,2
DA:136,15
DA:137,15
DA:138,15
DA:139,15
DA:140,15
DA:141,17
DA:144,5
DA:145,5
DA:146,1
DA:147,4
DA:148,4
DA:149,4
DA:150,4
DA:151,4
DA:152,4
DA:153,2
DA:154,2
DA:155,4
DA:156,5
DA:158,18
DA:159,18
DA:160,18
BRF:0
BRH:0
LF:90
LH:79
end_of_record
SF:/home/mriise/Projects/ref-fvm/fvm/src/kernel/default.rs
FN:431,_RNvXININtNtCs2gD7la8YEGu_3fvm6kernel7defaults4_0pEINtB5_13DefaultKernelpENtB7_13CircSupplyOps21total_fil_circ_supplyB9_
FN:523,_RNvXININtNtCs2gD7la8YEGu_3fvm6kernel7defaults5_0pEINtB5_13DefaultKernelpENtB7_9CryptoOps22verify_consensus_faultB9_
FN:790,_RNvXININtNtCs2gD7la8YEGu_3fvm6kernel7defaultsa_0pEINtB5_13DefaultKernelpENtB7_8DebugOps13debug_enabledB9_
FN:908,_RNCNvNtNtCs2gD7la8YEGu_3fvm6kernel7default11verify_post0B7_
FN:812,_RNvNtNtCs2gD7la8YEGu_3fvm6kernel7default18prover_id_from_u64
FN:848,_RNCNvNtNtCs2gD7la8YEGu_3fvm6kernel7default27to_fil_public_replica_infos0B7_
FN:713,_RNCNvXININtNtCs2gD7la8YEGu_3fvm6kernel7defaults9_0pEINtB7_13DefaultKernelpENtB9_8ActorOps18get_actor_code_cid0Bb_
FN:373,_RNvXININtNtCs2gD7la8YEGu_3fvm6kernel7defaults2_0pEINtB5_13DefaultKernelpENtB7_10MessageOps18msg_value_receivedB9_
FN:648,_RNvXININtNtCs2gD7la8YEGu_3fvm6kernel7defaults7_0pEINtB5_13DefaultKernelpENtB7_10NetworkOps16network_base_feeB9_
FN:382,_RNvXININtNtCs2gD7la8YEGu_3fvm6kernel7defaults3_0pEINtB5_13DefaultKernelpENtB7_7SendOps4sendB9_
FN:68,_RNvXININtNtCs2gD7la8YEGu_3fvm6kernel7default0pEINtB5_13DefaultKernelpENtB7_6Kernel10into_innerB9_
FN:663,_RNvXININtNtCs2gD7la8YEGu_3fvm6kernel7defaults8_0pEINtB5_13DefaultKernelpENtB7_13RandomnessOps27get_randomness_from_ticketsB9_
FN:737,_RNvXININtNtCs2gD7la8YEGu_3fvm6kernel7defaults9_0pEINtB5_13DefaultKernelpENtB7_8ActorOps12create_actorB9_
FN:763,_RNvXININtNtCs2gD7la8YEGu_3fvm6kernel7defaults9_0pEINtB5_13DefaultKernelpENtB7_8ActorOps22get_builtin_actor_typeB9_
FN:1025,_RNCNvNtNtCs2gD7la8YEGu_3fvm6kernel7default27compute_unsealed_sector_cid0B7_
FN:972,_RNCNvNtNtCs2gD7la8YEGu_3fvm6kernel7default22verify_aggregate_sealss2_0B7_
FN:369,_RNvXININtNtCs2gD7la8YEGu_3fvm6kernel7defaults2_0pEINtB5_13DefaultKernelpENtB7_10MessageOps17msg_method_numberB9_
FN:602,_RNvXININtNtCs2gD7la8YEGu_3fvm6kernel7defaults5_0pEINtB5_13DefaultKernelpENtB7_9CryptoOps21verify_replica_updateB9_
FN:621,_RNvXININtNtCs2gD7la8YEGu_3fvm6kernel7defaults6_0pEINtB5_13DefaultKernelpENtB7_6GasOps13gas_availableB9_
FN:205,_RNCNvXININtNtCs2gD7la8YEGu_3fvm6kernel7defaults0_0pEINtB7_13DefaultKernelpENtB9_7SelfOps15current_balance0Bb_
FN:203,_RNvXININtNtCs2gD7la8YEGu_3fvm6kernel7defaults0_0pEINtB5_13DefaultKernelpENtB7_7SelfOps15current_balanceB9_
FN:173,_RNCINvMs_NtNtCs2gD7la8YEGu_3fvm6kernel7defaultINtB7_13DefaultKernelpE11mutate_selfpE0Bb_
FN:625,_RNvXININtNtCs2gD7la8YEGu_3fvm6kernel7defaults6_0pEINtB5_13DefaultKernelpENtB7_6GasOps10charge_gasB9_
FN:786,_RNvXININtNtCs2gD7la8YEGu_3fvm6kernel7defaultsa_0pEINtB5_13DefaultKernelpENtB7_8DebugOps3logB9_
FN:702,_RNvXININtNtCs2gD7la8YEGu_3fvm6kernel7defaults9_0pEINtB5_13DefaultKernelpENtB7_8ActorOps15resolve_addressB9_
FN:938,_RNCNvNtNtCs2gD7la8YEGu_3fvm6kernel7default22verify_aggregate_seals0B7_
FN:510,_RNvXININtNtCs2gD7la8YEGu_3fvm6kernel7defaults5_0pEINtB5_13DefaultKernelpENtB7_9CryptoOps11verify_postB9_
FN:450,_RNvXININtNtCs2gD7la8YEGu_3fvm6kernel7defaults5_0pEINtB5_13DefaultKernelpENtB7_9CryptoOps16verify_signatureB9_
FN:285,_RNvXININtNtCs2gD7la8YEGu_3fvm6kernel7defaults1_0pEINtB5_13DefaultKernelpENtB7_12IpldBlockOps10block_linkB9_
FN:683,_RNvXININtNtCs2gD7la8YEGu_3fvm6kernel7defaults8_0pEINtB5_13DefaultKernelpENtB7_13RandomnessOps26get_randomness_from_beaconB9_
FN:841,_RNvNtNtCs2gD7la8YEGu_3fvm6kernel7default27to_fil_public_replica_infos
FN:406,_RNCNvXININtNtCs2gD7la8YEGu_3fvm6kernel7defaults3_0pEINtB7_13DefaultKernelpENtB9_7SendOps4send0Bb_
FN:197,_RNCNvXININtNtCs2gD7la8YEGu_3fvm6kernel7defaults0_0pEINtB7_13DefaultKernelpENtB9_7SelfOps8set_root0Bb_
FN:889,_RNvNtNtCs2gD7la8YEGu_3fvm6kernel7default11verify_post
FN:971,_RNCNvNtNtCs2gD7la8YEGu_3fvm6kernel7default22verify_aggregate_sealss1_0B7_
FN:717,_RNvXININtNtCs2gD7la8YEGu_3fvm6kernel7defaults9_0pEINtB5_13DefaultKernelpENtB7_8ActorOps17new_actor_addressB9_
FN:596,_RNCNvXININtNtCs2gD7la8YEGu_3fvm6kernel7defaults5_0pEINtB7_13DefaultKernelpENtB9_9CryptoOps22verify_aggregate_seals0Bb_
FN:75,_RNvXININtNtCs2gD7la8YEGu_3fvm6kernel7default0pEINtB5_13DefaultKernelpENtB7_6Kernel3newB9_
FN:591,_RNvXININtNtCs2gD7la8YEGu_3fvm6kernel7defaults5_0pEINtB5_13DefaultKernelpENtB7_9CryptoOps22verify_aggregate_sealsB9_
FN:1006,_RNvNtNtCs2gD7la8YEGu_3fvm6kernel7default27compute_unsealed_sector_cid
FN:819,_RNvNtNtCs2gD7la8YEGu_3fvm6kernel7default20get_required_padding
FN:501,_RNvXININtNtCs2gD7la8YEGu_3fvm6kernel7defaults5_0pEINtB5_13DefaultKernelpENtB7_9CryptoOps11verify_sealB9_
FN:211,_RNvXININtNtCs2gD7la8YEGu_3fvm6kernel7defaults0_0pEINtB5_13DefaultKernelpENtB7_7SelfOps13self_destructB9_
FN:259,_RNCNvXININtNtCs2gD7la8YEGu_3fvm6kernel7defaults1_0pEINtB7_13DefaultKernelpENtB9_12IpldBlockOps10block_open0Bb_
FN:553,_RNCNCNvXININtNtCs2gD7la8YEGu_3fvm6kernel7defaults5_0pEINtB9_13DefaultKernelpENtBb_9CryptoOps18batch_verify_seals00Bd_
FN:552,_RNCNvXININtNtCs2gD7la8YEGu_3fvm6kernel7defaults5_0pEINtB7_13DefaultKernelpENtB9_9CryptoOps18batch_verify_seals0Bb_
FN:316,_RNvXININtNtCs2gD7la8YEGu_3fvm6kernel7defaults1_0pEINtB5_13DefaultKernelpENtB7_12IpldBlockOps10block_readB9_
FN:617,_RNvXININtNtCs2gD7la8YEGu_3fvm6kernel7defaults6_0pEINtB5_13DefaultKernelpENtB7_6GasOps8gas_usedB9_
FN:156,_RNvMs_NtNtCs2gD7la8YEGu_3fvm6kernel7defaultINtB4_13DefaultKernelpE8get_selfB8_
FN:514,_RNCNvXININtNtCs2gD7la8YEGu_3fvm6kernel7defaults5_0pEINtB7_13DefaultKernelpENtB9_9CryptoOps11verify_post0Bb_
FN:98,_RNvMs_NtNtCs2gD7la8YEGu_3fvm6kernel7defaultINtB4_13DefaultKernelpE19resolve_to_key_addrB8_
FN:249,_RNvXININtNtCs2gD7la8YEGu_3fvm6kernel7defaults1_0pEINtB5_13DefaultKernelpENtB7_12IpldBlockOps10block_openB9_
FN:458,_RNCNvXININtNtCs2gD7la8YEGu_3fvm6kernel7defaults5_0pEINtB7_13DefaultKernelpENtB9_9CryptoOps16verify_signature0Bb_
FN:795,_RINvNtNtCs2gD7la8YEGu_3fvm6kernel7default19catch_and_log_panicppEB6_
FN:464,_RNvXININtNtCs2gD7la8YEGu_3fvm6kernel7defaults5_0pEINtB5_13DefaultKernelpENtB7_9CryptoOps4hashB9_
FN:293,_RNCNvXININtNtCs2gD7la8YEGu_3fvm6kernel7defaults1_0pEINtB7_13DefaultKernelpENtB9_12IpldBlockOps10block_link0Bb_
FN:545,_RNvXININtNtCs2gD7la8YEGu_3fvm6kernel7defaults5_0pEINtB5_13DefaultKernelpENtB7_9CryptoOps18batch_verify_sealsB9_
FN:279,_RNvXININtNtCs2gD7la8YEGu_3fvm6kernel7defaults1_0pEINtB5_13DefaultKernelpENtB7_12IpldBlockOps12block_createB9_
FN:165,_RINvMs_NtNtCs2gD7la8YEGu_3fvm6kernel7defaultINtB5_13DefaultKernelpE11mutate_selfpEB9_
FN:631,_RNvXININtNtCs2gD7la8YEGu_3fvm6kernel7defaults6_0pEINtB5_13DefaultKernelpENtB7_6GasOps10price_listB9_
FN:365,_RNvXININtNtCs2gD7la8YEGu_3fvm6kernel7defaults2_0pEINtB5_13DefaultKernelpENtB7_10MessageOps12msg_receiverB9_
FN:640,_RNvXININtNtCs2gD7la8YEGu_3fvm6kernel7defaults7_0pEINtB5_13DefaultKernelpENtB7_10NetworkOps13network_epochB9_
FN:706,_RNvXININtNtCs2gD7la8YEGu_3fvm6kernel7defaults9_0pEINtB5_13DefaultKernelpENtB7_8ActorOps18get_actor_code_cidB9_
FN:954,_RNCNvNtNtCs2gD7la8YEGu_3fvm6kernel7default22verify_aggregate_sealss_0B7_
FN:985,_RNvNtNtCs2gD7la8YEGu_3fvm6kernel7default21verify_replica_update
FN:494,_RNCNvXININtNtCs2gD7la8YEGu_3fvm6kernel7defaults5_0pEINtB7_13DefaultKernelpENtB9_9CryptoOps27compute_unsealed_sector_cid0Bb_
FN:607,_RNCNvXININtNtCs2gD7la8YEGu_3fvm6kernel7defaults5_0pEINtB7_13DefaultKernelpENtB9_9CryptoOps21verify_replica_update0Bb_
FN:187,_RNvXININtNtCs2gD7la8YEGu_3fvm6kernel7defaults0_0pEINtB5_13DefaultKernelpENtB7_7SelfOps4rootB9_
FN:488,_RNvXININtNtCs2gD7la8YEGu_3fvm6kernel7defaults5_0pEINtB5_13DefaultKernelpENtB7_9CryptoOps27compute_unsealed_sector_cidB9_
FN:323,_RNCNvXININtNtCs2gD7la8YEGu_3fvm6kernel7defaults1_0pEINtB7_13DefaultKernelpENtB9_12IpldBlockOps10block_read0Bb_
FN:771,_RNvXININtNtCs2gD7la8YEGu_3fvm6kernel7defaults9_0pEINtB5_13DefaultKernelpENtB7_8ActorOps21get_code_cid_for_typeB9_
FN:965,_RNCNvNtNtCs2gD7la8YEGu_3fvm6kernel7default22verify_aggregate_sealss0_0B7_
FN:506,_RNCNvXININtNtCs2gD7la8YEGu_3fvm6kernel7defaults5_0pEINtB7_13DefaultKernelpENtB9_9CryptoOps11verify_seal0Bb_
FN:196,_RNvXININtNtCs2gD7la8YEGu_3fvm6kernel7defaults0_0pEINtB5_13DefaultKernelpENtB7_7SelfOps8set_rootB9_
FN:350,_RNvXININtNtCs2gD7la8YEGu_3fvm6kernel7defaults1_0pEINtB5_13DefaultKernelpENtB7_12IpldBlockOps10block_statB9_
FN:644,_RNvXININtNtCs2gD7la8YEGu_3fvm6kernel7defaults7_0pEINtB5_13DefaultKernelpENtB7_10NetworkOps15network_versionB9_
FN:361,_RNvXININtNtCs2gD7la8YEGu_3fvm6kernel7defaults2_0pEINtB5_13DefaultKernelpENtB7_10MessageOps10msg_callerB9_
FN:863,_RNvNtNtCs2gD7la8YEGu_3fvm6kernel7default11verify_seal
FN:920,_RNvNtNtCs2gD7la8YEGu_3fvm6kernel7default22verify_aggregate_seals
FN:740,_RNCNvXININtNtCs2gD7la8YEGu_3fvm6kernel7defaults9_0pEINtB7_13DefaultKernelpENtB9_8ActorOps12create_actor0Bb_
FN:617,_RNvXs6_NtNtCs5xYBAi2tWzh_3fvm6kernel7defaultINtB5_13DefaultKernelNtNtCs4BSQmiRtlYl_3fvm5dummy16DummyCallManagerENtB7_6GasOps8gas_usedB15_
FN:293,_RNCNvXs1_NtNtCs5xYBAi2tWzh_3fvm6kernel7defaultINtB7_13DefaultKernelNtNtCs4BSQmiRtlYl_3fvm5dummy16DummyCallManagerENtB9_12IpldBlockOps10block_link0B17_
FN:249,_RNvXs1_NtNtCs5xYBAi2tWzh_3fvm6kernel7defaultINtB5_13DefaultKernelNtNtCs4BSQmiRtlYl_3fvm5dummy16DummyCallManagerENtB7_12IpldBlockOps10block_openB15_
FN:316,_RNvXs1_NtNtCs5xYBAi2tWzh_3fvm6kernel7defaultINtB5_13DefaultKernelNtNtCs4BSQmiRtlYl_3fvm5dummy16DummyCallManagerENtB7_12IpldBlockOps10block_readB15_
FN:323,_RNCNvXs1_NtNtCs5xYBAi2tWzh_3fvm6kernel7defaultINtB7_13DefaultKernelNtNtCs4BSQmiRtlYl_3fvm5dummy16DummyCallManagerENtB9_12IpldBlockOps10block_read0B17_
FN:259,_RNCNvXs1_NtNtCs5xYBAi2tWzh_3fvm6kernel7defaultINtB7_13DefaultKernelNtNtCs4BSQmiRtlYl_3fvm5dummy16DummyCallManagerENtB9_12IpldBlockOps10block_open0B17_
FN:625,_RNvXs6_NtNtCs5xYBAi2tWzh_3fvm6kernel7defaultINtB5_13DefaultKernelNtNtCs4BSQmiRtlYl_3fvm5dummy16DummyCallManagerENtB7_6GasOps10charge_gasB15_
FN:631,_RNvXs6_NtNtCs5xYBAi2tWzh_3fvm6kernel7defaultINtB5_13DefaultKernelNtNtCs4BSQmiRtlYl_3fvm5dummy16DummyCallManagerENtB7_6GasOps10price_listB15_
FN:75,_RNvXNtNtCs5xYBAi2tWzh_3fvm6kernel7defaultINtB2_13DefaultKernelNtNtCs4BSQmiRtlYl_3fvm5dummy16DummyCallManagerENtB4_6Kernel3newB12_
FN:285,_RNvXs1_NtNtCs5xYBAi2tWzh_3fvm6kernel7defaultINtB5_13DefaultKernelNtNtCs4BSQmiRtlYl_3fvm5dummy16DummyCallManagerENtB7_12IpldBlockOps10block_linkB15_
FN:68,_RNvXNtNtCs5xYBAi2tWzh_3fvm6kernel7defaultINtB2_13DefaultKernelNtNtCs4BSQmiRtlYl_3fvm5dummy16DummyCallManagerENtB4_6Kernel10into_innerB12_
FN:350,_RNvXs1_NtNtCs5xYBAi2tWzh_3fvm6kernel7defaultINtB5_13DefaultKernelNtNtCs4BSQmiRtlYl_3fvm5dummy16DummyCallManagerENtB7_12IpldBlockOps10block_statB15_
FN:279,_RNvXs1_NtNtCs5xYBAi2tWzh_3fvm6kernel7defaultINtB5_13DefaultKernelNtNtCs4BSQmiRtlYl_3fvm5dummy16DummyCallManagerENtB7_12IpldBlockOps12block_createB15_
FN:621,_RNvXs6_NtNtCs5xYBAi2tWzh_3fvm6kernel7defaultINtB5_13DefaultKernelNtNtCs4BSQmiRtlYl_3fvm5dummy16DummyCallManagerENtB7_6GasOps13gas_availableB15_
FN:1006,_RNvNtNtCs5xYBAi2tWzh_3fvm6kernel7default27compute_unsealed_sector_cid
FN:819,_RNvNtNtCs5xYBAi2tWzh_3fvm6kernel7default20get_required_padding
FN:908,_RNCNvNtNtCs5xYBAi2tWzh_3fvm6kernel7default11verify_post0B7_
FN:920,_RNvNtNtCs5xYBAi2tWzh_3fvm6kernel7default22verify_aggregate_seals
FN:889,_RNvNtNtCs5xYBAi2tWzh_3fvm6kernel7default11verify_post
FN:812,_RNvNtNtCs5xYBAi2tWzh_3fvm6kernel7default18prover_id_from_u64
FN:848,_RNCNvNtNtCs5xYBAi2tWzh_3fvm6kernel7default27to_fil_public_replica_infos0B7_
FN:965,_RNCNvNtNtCs5xYBAi2tWzh_3fvm6kernel7default22verify_aggregate_sealss0_0B7_
FN:971,_RNCNvNtNtCs5xYBAi2tWzh_3fvm6kernel7default22verify_aggregate_sealss1_0B7_
FN:972,_RNCNvNtNtCs5xYBAi2tWzh_3fvm6kernel7default22verify_aggregate_sealss2_0B7_
FN:985,_RNvNtNtCs5xYBAi2tWzh_3fvm6kernel7default21verify_replica_update
FN:938,_RNCNvNtNtCs5xYBAi2tWzh_3fvm6kernel7default22verify_aggregate_seals0B7_
FN:1025,_RNCNvNtNtCs5xYBAi2tWzh_3fvm6kernel7default27compute_unsealed_sector_cid0B7_
FN:863,_RNvNtNtCs5xYBAi2tWzh_3fvm6kernel7default11verify_seal
FN:841,_RNvNtNtCs5xYBAi2tWzh_3fvm6kernel7default27to_fil_public_replica_infos
FN:954,_RNCNvNtNtCs5xYBAi2tWzh_3fvm6kernel7default22verify_aggregate_sealss_0B7_
FN:717,_RNvXININtNtCs5xYBAi2tWzh_3fvm6kernel7defaults9_0pEINtB5_13DefaultKernelpENtB7_8ActorOps17new_actor_addressB9_
FN:382,_RNvXININtNtCs5xYBAi2tWzh_3fvm6kernel7defaults3_0pEINtB5_13DefaultKernelpENtB7_7SendOps4sendB9_
FN:640,_RNvXININtNtCs5xYBAi2tWzh_3fvm6kernel7defaults7_0pEINtB5_13DefaultKernelpENtB7_10NetworkOps13network_epochB9_
FN:617,_RNvXININtNtCs5xYBAi2tWzh_3fvm6kernel7defaults6_0pEINtB5_13DefaultKernelpENtB7_6GasOps8gas_usedB9_
FN:713,_RNCNvXININtNtCs5xYBAi2tWzh_3fvm6kernel7defaults9_0pEINtB7_13DefaultKernelpENtB9_8ActorOps18get_actor_code_cid0Bb_
FN:591,_RNvXININtNtCs5xYBAi2tWzh_3fvm6kernel7defaults5_0pEINtB5_13DefaultKernelpENtB7_9CryptoOps22verify_aggregate_sealsB9_
FN:510,_RNvXININtNtCs5xYBAi2tWzh_3fvm6kernel7defaults5_0pEINtB5_13DefaultKernelpENtB7_9CryptoOps11verify_postB9_
FN:205,_RNCNvXININtNtCs5xYBAi2tWzh_3fvm6kernel7defaults0_0pEINtB7_13DefaultKernelpENtB9_7SelfOps15current_balance0Bb_
FN:514,_RNCNvXININtNtCs5xYBAi2tWzh_3fvm6kernel7defaults5_0pEINtB7_13DefaultKernelpENtB9_9CryptoOps11verify_post0Bb_
FN:285,_RNvXININtNtCs5xYBAi2tWzh_3fvm6kernel7defaults1_0pEINtB5_13DefaultKernelpENtB7_12IpldBlockOps10block_linkB9_
FN:488,_RNvXININtNtCs5xYBAi2tWzh_3fvm6kernel7defaults5_0pEINtB5_13DefaultKernelpENtB7_9CryptoOps27compute_unsealed_sector_cidB9_
FN:75,_RNvXININtNtCs5xYBAi2tWzh_3fvm6kernel7default0pEINtB5_13DefaultKernelpENtB7_6Kernel3newB9_
FN:494,_RNCNvXININtNtCs5xYBAi2tWzh_3fvm6kernel7defaults5_0pEINtB7_13DefaultKernelpENtB9_9CryptoOps27compute_unsealed_sector_cid0Bb_
FN:173,_RNCINvMs_NtNtCs5xYBAi2tWzh_3fvm6kernel7defaultINtB7_13DefaultKernelpE11mutate_selfpE0Bb_
FN:373,_RNvXININtNtCs5xYBAi2tWzh_3fvm6kernel7defaults2_0pEINtB5_13DefaultKernelpENtB7_10MessageOps18msg_value_receivedB9_
FN:350,_RNvXININtNtCs5xYBAi2tWzh_3fvm6kernel7defaults1_0pEINtB5_13DefaultKernelpENtB7_12IpldBlockOps10block_statB9_
FN:203,_RNvXININtNtCs5xYBAi2tWzh_3fvm6kernel7defaults0_0pEINtB5_13DefaultKernelpENtB7_7SelfOps15current_balanceB9_
FN:737,_RNvXININtNtCs5xYBAi2tWzh_3fvm6kernel7defaults9_0pEINtB5_13DefaultKernelpENtB7_8ActorOps12create_actorB9_
FN:165,_RINvMs_NtNtCs5xYBAi2tWzh_3fvm6kernel7defaultINtB5_13DefaultKernelpE11mutate_selfpEB9_
FN:740,_RNCNvXININtNtCs5xYBAi2tWzh_3fvm6kernel7defaults9_0pEINtB7_13DefaultKernelpENtB9_8ActorOps12create_actor0Bb_
FN:323,_RNCNvXININtNtCs5xYBAi2tWzh_3fvm6kernel7defaults1_0pEINtB7_13DefaultKernelpENtB9_12IpldBlockOps10block_read0Bb_
FN:763,_RNvXININtNtCs5xYBAi2tWzh_3fvm6kernel7defaults9_0pEINtB5_13DefaultKernelpENtB7_8ActorOps22get_builtin_actor_typeB9_
FN:702,_RNvXININtNtCs5xYBAi2tWzh_3fvm6kernel7defaults9_0pEINtB5_13DefaultKernelpENtB7_8ActorOps15resolve_addressB9_
FN:663,_RNvXININtNtCs5xYBAi2tWzh_3fvm6kernel7defaults8_0pEINtB5_13DefaultKernelpENtB7_13RandomnessOps27get_randomness_from_ticketsB9_
FN:625,_RNvXININtNtCs5xYBAi2tWzh_3fvm6kernel7defaults6_0pEINtB5_13DefaultKernelpENtB7_6GasOps10charge_gasB9_
FN:249,_RNvXININtNtCs5xYBAi2tWzh_3fvm6kernel7defaults1_0pEINtB5_13DefaultKernelpENtB7_12IpldBlockOps10block_openB9_
FN:602,_RNvXININtNtCs5xYBAi2tWzh_3fvm6kernel7defaults5_0pEINtB5_13DefaultKernelpENtB7_9CryptoOps21verify_replica_updateB9_
FN:293,_RNCNvXININtNtCs5xYBAi2tWzh_3fvm6kernel7defaults1_0pEINtB7_13DefaultKernelpENtB9_12IpldBlockOps10block_link0Bb_
FN:523,_RNvXININtNtCs5xYBAi2tWzh_3fvm6kernel7defaults5_0pEINtB5_13DefaultKernelpENtB7_9CryptoOps22verify_consensus_faultB9_
FN:369,_RNvXININtNtCs5xYBAi2tWzh_3fvm6kernel7defaults2_0pEINtB5_13DefaultKernelpENtB7_10MessageOps17msg_method_numberB9_
FN:621,_RNvXININtNtCs5xYBAi2tWzh_3fvm6kernel7defaults6_0pEINtB5_13DefaultKernelpENtB7_6GasOps13gas_availableB9_
FN:501,_RNvXININtNtCs5xYBAi2tWzh_3fvm6kernel7defaults5_0pEINtB5_13DefaultKernelpENtB7_9CryptoOps11verify_sealB9_
FN:450,_RNvXININtNtCs5xYBAi2tWzh_3fvm6kernel7defaults5_0pEINtB5_13DefaultKernelpENtB7_9CryptoOps16verify_signatureB9_
FN:458,_RNCNvXININtNtCs5xYBAi2tWzh_3fvm6kernel7defaults5_0pEINtB7_13DefaultKernelpENtB9_9CryptoOps16verify_signature0Bb_
FN:464,_RNvXININtNtCs5xYBAi2tWzh_3fvm6kernel7defaults5_0pEINtB5_13DefaultKernelpENtB7_9CryptoOps4hashB9_
FN:771,_RNvXININtNtCs5xYBAi2tWzh_3fvm6kernel7defaults9_0pEINtB5_13DefaultKernelpENtB7_8ActorOps21get_code_cid_for_typeB9_
FN:706,_RNvXININtNtCs5xYBAi2tWzh_3fvm6kernel7defaults9_0pEINtB5_13DefaultKernelpENtB7_8ActorOps18get_actor_code_cidB9_
FN:68,_RNvXININtNtCs5xYBAi2tWzh_3fvm6kernel7default0pEINtB5_13DefaultKernelpENtB7_6Kernel10into_innerB9_
FN:631,_RNvXININtNtCs5xYBAi2tWzh_3fvm6kernel7defaults6_0pEINtB5_13DefaultKernelpENtB7_6GasOps10price_listB9_
FN:365,_RNvXININtNtCs5xYBAi2tWzh_3fvm6kernel7defaults2_0pEINtB5_13DefaultKernelpENtB7_10MessageOps12msg_receiverB9_
FN:786,_RNvXININtNtCs5xYBAi2tWzh_3fvm6kernel7defaultsa_0pEINtB5_13DefaultKernelpENtB7_8DebugOps3logB9_
FN:552,_RNCNvXININtNtCs5xYBAi2tWzh_3fvm6kernel7defaults5_0pEINtB7_13DefaultKernelpENtB9_9CryptoOps18batch_verify_seals0Bb_
FN:316,_RNvXININtNtCs5xYBAi2tWzh_3fvm6kernel7defaults1_0pEINtB5_13DefaultKernelpENtB7_12IpldBlockOps10block_readB9_
FN:545,_RNvXININtNtCs5xYBAi2tWzh_3fvm6kernel7defaults5_0pEINtB5_13DefaultKernelpENtB7_9CryptoOps18batch_verify_sealsB9_
FN:279,_RNvXININtNtCs5xYBAi2tWzh_3fvm6kernel7defaults1_0pEINtB5_13DefaultKernelpENtB7_12IpldBlockOps12block_createB9_
FN:196,_RNvXININtNtCs5xYBAi2tWzh_3fvm6kernel7defaults0_0pEINtB5_13DefaultKernelpENtB7_7SelfOps8set_rootB9_
FN:648,_RNvXININtNtCs5xYBAi2tWzh_3fvm6kernel7defaults7_0pEINtB5_13DefaultKernelpENtB7_10NetworkOps16network_base_feeB9_
FN:596,_RNCNvXININtNtCs5xYBAi2tWzh_3fvm6kernel7defaults5_0pEINtB7_13DefaultKernelpENtB9_9CryptoOps22verify_aggregate_seals0Bb_
FN:361,_RNvXININtNtCs5xYBAi2tWzh_3fvm6kernel7defaults2_0pEINtB5_13DefaultKernelpENtB7_10MessageOps10msg_callerB9_
FN:406,_RNCNvXININtNtCs5xYBAi2tWzh_3fvm6kernel7defaults3_0pEINtB7_13DefaultKernelpENtB9_7SendOps4send0Bb_
FN:98,_RNvMs_NtNtCs5xYBAi2tWzh_3fvm6kernel7defaultINtB4_13DefaultKernelpE19resolve_to_key_addrB8_
FN:187,_RNvXININtNtCs5xYBAi2tWzh_3fvm6kernel7defaults0_0pEINtB5_13DefaultKernelpENtB7_7SelfOps4rootB9_
FN:156,_RNvMs_NtNtCs5xYBAi2tWzh_3fvm6kernel7defaultINtB4_13DefaultKernelpE8get_selfB8_
FN:431,_RNvXININtNtCs5xYBAi2tWzh_3fvm6kernel7defaults4_0pEINtB5_13DefaultKernelpENtB7_13CircSupplyOps21total_fil_circ_supplyB9_
FN:607,_RNCNvXININtNtCs5xYBAi2tWzh_3fvm6kernel7defaults5_0pEINtB7_13DefaultKernelpENtB9_9CryptoOps21verify_replica_update0Bb_
FN:259,_RNCNvXININtNtCs5xYBAi2tWzh_3fvm6kernel7defaults1_0pEINtB7_13DefaultKernelpENtB9_12IpldBlockOps10block_open0Bb_
FN:790,_RNvXININtNtCs5xYBAi2tWzh_3fvm6kernel7defaultsa_0pEINtB5_13DefaultKernelpENtB7_8DebugOps13debug_enabledB9_
FN:211,_RNvXININtNtCs5xYBAi2tWzh_3fvm6kernel7defaults0_0pEINtB5_13DefaultKernelpENtB7_7SelfOps13self_destructB9_
FN:553,_RNCNCNvXININtNtCs5xYBAi2tWzh_3fvm6kernel7defaults5_0pEINtB9_13DefaultKernelpENtBb_9CryptoOps18batch_verify_seals00Bd_
FN:683,_RNvXININtNtCs5xYBAi2tWzh_3fvm6kernel7defaults8_0pEINtB5_13DefaultKernelpENtB7_13RandomnessOps26get_randomness_from_beaconB9_
FN:644,_RNvXININtNtCs5xYBAi2tWzh_3fvm6kernel7defaults7_0pEINtB5_13DefaultKernelpENtB7_10NetworkOps15network_versionB9_
FN:506,_RNCNvXININtNtCs5xYBAi2tWzh_3fvm6kernel7defaults5_0pEINtB7_13DefaultKernelpENtB9_9CryptoOps11verify_seal0Bb_
FN:197,_RNCNvXININtNtCs5xYBAi2tWzh_3fvm6kernel7defaults0_0pEINtB7_13DefaultKernelpENtB9_7SelfOps8set_root0Bb_
FN:795,_RINvNtNtCs5xYBAi2tWzh_3fvm6kernel7default19catch_and_log_panicppEB6_
FNDA:0,_RNvXININtNtCs2gD7la8YEGu_3fvm6kernel7defaults4_0pEINtB5_13DefaultKernelpENtB7_13CircSupplyOps21total_fil_circ_supplyB9_
FNDA:0,_RNvXININtNtCs2gD7la8YEGu_3fvm6kernel7defaults5_0pEINtB5_13DefaultKernelpENtB7_9CryptoOps22verify_consensus_faultB9_
FNDA:0,_RNvXININtNtCs2gD7la8YEGu_3fvm6kernel7defaultsa_0pEINtB5_13DefaultKernelpENtB7_8DebugOps13debug_enabledB9_
FNDA:0,_RNCNvNtNtCs2gD7la8YEGu_3fvm6kernel7default11verify_post0B7_
FNDA:0,_RNvNtNtCs2gD7la8YEGu_3fvm6kernel7default18prover_id_from_u64
FNDA:0,_RNCNvNtNtCs2gD7la8YEGu_3fvm6kernel7default27to_fil_public_replica_infos0B7_
FNDA:0,_RNCNvXININtNtCs2gD7la8YEGu_3fvm6kernel7defaults9_0pEINtB7_13DefaultKernelpENtB9_8ActorOps18get_actor_code_cid0Bb_
FNDA:0,_RNvXININtNtCs2gD7la8YEGu_3fvm6kernel7defaults2_0pEINtB5_13DefaultKernelpENtB7_10MessageOps18msg_value_receivedB9_
FNDA:0,_RNvXININtNtCs2gD7la8YEGu_3fvm6kernel7defaults7_0pEINtB5_13DefaultKernelpENtB7_10NetworkOps16network_base_feeB9_
FNDA:0,_RNvXININtNtCs2gD7la8YEGu_3fvm6kernel7defaults3_0pEINtB5_13DefaultKernelpENtB7_7SendOps4sendB9_
FNDA:0,_RNvXININtNtCs2gD7la8YEGu_3fvm6kernel7default0pEINtB5_13DefaultKernelpENtB7_6Kernel10into_innerB9_
FNDA:0,_RNvXININtNtCs2gD7la8YEGu_3fvm6kernel7defaults8_0pEINtB5_13DefaultKernelpENtB7_13RandomnessOps27get_randomness_from_ticketsB9_
FNDA:0,_RNvXININtNtCs2gD7la8YEGu_3fvm6kernel7defaults9_0pEINtB5_13DefaultKernelpENtB7_8ActorOps12create_actorB9_
FNDA:0,_RNvXININtNtCs2gD7la8YEGu_3fvm6kernel7defaults9_0pEINtB5_13DefaultKernelpENtB7_8ActorOps22get_builtin_actor_typeB9_
FNDA:0,_RNCNvNtNtCs2gD7la8YEGu_3fvm6kernel7default27compute_unsealed_sector_cid0B7_
FNDA:0,_RNCNvNtNtCs2gD7la8YEGu_3fvm6kernel7default22verify_aggregate_sealss2_0B7_
FNDA:0,_RNvXININtNtCs2gD7la8YEGu_3fvm6kernel7defaults2_0pEINtB5_13DefaultKernelpENtB7_10MessageOps17msg_method_numberB9_
FNDA:0,_RNvXININtNtCs2gD7la8YEGu_3fvm6kernel7defaults5_0pEINtB5_13DefaultKernelpENtB7_9CryptoOps21verify_replica_updateB9_
FNDA:0,_RNvXININtNtCs2gD7la8YEGu_3fvm6kernel7defaults6_0pEINtB5_13DefaultKernelpENtB7_6GasOps13gas_availableB9_
FNDA:0,_RNCNvXININtNtCs2gD7la8YEGu_3fvm6kernel7defaults0_0pEINtB7_13DefaultKernelpENtB9_7SelfOps15current_balance0Bb_
FNDA:0,_RNvXININtNtCs2gD7la8YEGu_3fvm6kernel7defaults0_0pEINtB5_13DefaultKernelpENtB7_7SelfOps15current_balanceB9_
FNDA:0,_RNCINvMs_NtNtCs2gD7la8YEGu_3fvm6kernel7defaultINtB7_13DefaultKernelpE11mutate_selfpE0Bb_
FNDA:0,_RNvXININtNtCs2gD7la8YEGu_3fvm6kernel7defaults6_0pEINtB5_13DefaultKernelpENtB7_6GasOps10charge_gasB9_
FNDA:0,_RNvXININtNtCs2gD7la8YEGu_3fvm6kernel7defaultsa_0pEINtB5_13DefaultKernelpENtB7_8DebugOps3logB9_
FNDA:0,_RNvXININtNtCs2gD7la8YEGu_3fvm6kernel7defaults9_0pEINtB5_13DefaultKernelpENtB7_8ActorOps15resolve_addressB9_
FNDA:0,_RNCNvNtNtCs2gD7la8YEGu_3fvm6kernel7default22verify_aggregate_seals0B7_
FNDA:0,_RNvXININtNtCs2gD7la8YEGu_3fvm6kernel7defaults5_0pEINtB5_13DefaultKernelpENtB7_9CryptoOps11verify_postB9_
FNDA:0,_RNvXININtNtCs2gD7la8YEGu_3fvm6kernel7defaults5_0pEINtB5_13DefaultKernelpENtB7_9CryptoOps16verify_signatureB9_
FNDA:0,_RNvXININtNtCs2gD7la8YEGu_3fvm6kernel7defaults1_0pEINtB5_13DefaultKernelpENtB7_12IpldBlockOps10block_linkB9_
FNDA:0,_RNvXININtNtCs2gD7la8YEGu_3fvm6kernel7defaults8_0pEINtB5_13DefaultKernelpENtB7_13RandomnessOps26get_randomness_from_beaconB9_
FNDA:0,_RNvNtNtCs2gD7la8YEGu_3fvm6kernel7default27to_fil_public_replica_infos
FNDA:0,_RNCNvXININtNtCs2gD7la8YEGu_3fvm6kernel7defaults3_0pEINtB7_13DefaultKernelpENtB9_7SendOps4send0Bb_
FNDA:0,_RNCNvXININtNtCs2gD7la8YEGu_3fvm6kernel7defaults0_0pEINtB7_13DefaultKernelpENtB9_7SelfOps8set_root0Bb_
FNDA:0,_RNvNtNtCs2gD7la8YEGu_3fvm6kernel7default11verify_post
FNDA:0,_RNCNvNtNtCs2gD7la8YEGu_3fvm6kernel7default22verify_aggregate_sealss1_0B7_
FNDA:0,_RNvXININtNtCs2gD7la8YEGu_3fvm6kernel7defaults9_0pEINtB5_13DefaultKernelpENtB7_8ActorOps17new_actor_addressB9_
FNDA:0,_RNCNvXININtNtCs2gD7la8YEGu_3fvm6kernel7defaults5_0pEINtB7_13DefaultKernelpENtB9_9CryptoOps22verify_aggregate_seals0Bb_
FNDA:0,_RNvXININtNtCs2gD7la8YEGu_3fvm6kernel7default0pEINtB5_13DefaultKernelpENtB7_6Kernel3newB9_
FNDA:0,_RNvXININtNtCs2gD7la8YEGu_3fvm6kernel7defaults5_0pEINtB5_13DefaultKernelpENtB7_9CryptoOps22verify_aggregate_sealsB9_
FNDA:0,_RNvNtNtCs2gD7la8YEGu_3fvm6kernel7default27compute_unsealed_sector_cid
FNDA:0,_RNvNtNtCs2gD7la8YEGu_3fvm6kernel7default20get_required_padding
FNDA:0,_RNvXININtNtCs2gD7la8YEGu_3fvm6kernel7defaults5_0pEINtB5_13DefaultKernelpENtB7_9CryptoOps11verify_sealB9_
FNDA:0,_RNvXININtNtCs2gD7la8YEGu_3fvm6kernel7defaults0_0pEINtB5_13DefaultKernelpENtB7_7SelfOps13self_destructB9_
FNDA:0,_RNCNvXININtNtCs2gD7la8YEGu_3fvm6kernel7defaults1_0pEINtB7_13DefaultKernelpENtB9_12IpldBlockOps10block_open0Bb_
FNDA:0,_RNCNCNvXININtNtCs2gD7la8YEGu_3fvm6kernel7defaults5_0pEINtB9_13DefaultKernelpENtBb_9CryptoOps18batch_verify_seals00Bd_
FNDA:0,_RNCNvXININtNtCs2gD7la8YEGu_3fvm6kernel7defaults5_0pEINtB7_13DefaultKernelpENtB9_9CryptoOps18batch_verify_seals0Bb_
FNDA:0,_RNvXININtNtCs2gD7la8YEGu_3fvm6kernel7defaults1_0pEINtB5_13DefaultKernelpENtB7_12IpldBlockOps10block_readB9_
FNDA:0,_RNvXININtNtCs2gD7la8YEGu_3fvm6kernel7defaults6_0pEINtB5_13DefaultKernelpENtB7_6GasOps8gas_usedB9_
FNDA:0,_RNvMs_NtNtCs2gD7la8YEGu_3fvm6kernel7defaultINtB4_13DefaultKernelpE8get_selfB8_
FNDA:0,_RNCNvXININtNtCs2gD7la8YEGu_3fvm6kernel7defaults5_0pEINtB7_13DefaultKernelpENtB9_9CryptoOps11verify_post0Bb_
FNDA:0,_RNvMs_NtNtCs2gD7la8YEGu_3fvm6kernel7defaultINtB4_13DefaultKernelpE19resolve_to_key_addrB8_
FNDA:0,_RNvXININtNtCs2gD7la8YEGu_3fvm6kernel7defaults1_0pEINtB5_13DefaultKernelpENtB7_12IpldBlockOps10block_openB9_
FNDA:0,_RNCNvXININtNtCs2gD7la8YEGu_3fvm6kernel7defaults5_0pEINtB7_13DefaultKernelpENtB9_9CryptoOps16verify_signature0Bb_
FNDA:0,_RINvNtNtCs2gD7la8YEGu_3fvm6kernel7default19catch_and_log_panicppEB6_
FNDA:0,_RNvXININtNtCs2gD7la8YEGu_3fvm6kernel7defaults5_0pEINtB5_13DefaultKernelpENtB7_9CryptoOps4hashB9_
FNDA:0,_RNCNvXININtNtCs2gD7la8YEGu_3fvm6kernel7defaults1_0pEINtB7_13DefaultKernelpENtB9_12IpldBlockOps10block_link0Bb_
FNDA:0,_RNvXININtNtCs2gD7la8YEGu_3fvm6kernel7defaults5_0pEINtB5_13DefaultKernelpENtB7_9CryptoOps18batch_verify_sealsB9_
FNDA:0,_RNvXININtNtCs2gD7la8YEGu_3fvm6kernel7defaults1_0pEINtB5_13DefaultKernelpENtB7_12IpldBlockOps12block_createB9_
FNDA:0,_RINvMs_NtNtCs2gD7la8YEGu_3fvm6kernel7defaultINtB5_13DefaultKernelpE11mutate_selfpEB9_
FNDA:0,_RNvXININtNtCs2gD7la8YEGu_3fvm6kernel7defaults6_0pEINtB5_13DefaultKernelpENtB7_6GasOps10price_listB9_
FNDA:0,_RNvXININtNtCs2gD7la8YEGu_3fvm6kernel7defaults2_0pEINtB5_13DefaultKernelpENtB7_10MessageOps12msg_receiverB9_
FNDA:0,_RNvXININtNtCs2gD7la8YEGu_3fvm6kernel7defaults7_0pEINtB5_13DefaultKernelpENtB7_10NetworkOps13network_epochB9_
FNDA:0,_RNvXININtNtCs2gD7la8YEGu_3fvm6kernel7defaults9_0pEINtB5_13DefaultKernelpENtB7_8ActorOps18get_actor_code_cidB9_
FNDA:0,_RNCNvNtNtCs2gD7la8YEGu_3fvm6kernel7default22verify_aggregate_sealss_0B7_
FNDA:0,_RNvNtNtCs2gD7la8YEGu_3fvm6kernel7default21verify_replica_update
FNDA:0,_RNCNvXININtNtCs2gD7la8YEGu_3fvm6kernel7defaults5_0pEINtB7_13DefaultKernelpENtB9_9CryptoOps27compute_unsealed_sector_cid0Bb_
FNDA:0,_RNCNvXININtNtCs2gD7la8YEGu_3fvm6kernel7defaults5_0pEINtB7_13DefaultKernelpENtB9_9CryptoOps21verify_replica_update0Bb_
FNDA:0,_RNvXININtNtCs2gD7la8YEGu_3fvm6kernel7defaults0_0pEINtB5_13DefaultKernelpENtB7_7SelfOps4rootB9_
FNDA:0,_RNvXININtNtCs2gD7la8YEGu_3fvm6kernel7defaults5_0pEINtB5_13DefaultKernelpENtB7_9CryptoOps27compute_unsealed_sector_cidB9_
FNDA:0,_RNCNvXININtNtCs2gD7la8YEGu_3fvm6kernel7defaults1_0pEINtB7_13DefaultKernelpENtB9_12IpldBlockOps10block_read0Bb_
FNDA:0,_RNvXININtNtCs2gD7la8YEGu_3fvm6kernel7defaults9_0pEINtB5_13DefaultKernelpENtB7_8ActorOps21get_code_cid_for_typeB9_
FNDA:0,_RNCNvNtNtCs2gD7la8YEGu_3fvm6kernel7default22verify_aggregate_sealss0_0B7_
FNDA:0,_RNCNvXININtNtCs2gD7la8YEGu_3fvm6kernel7defaults5_0pEINtB7_13DefaultKernelpENtB9_9CryptoOps11verify_seal0Bb_
FNDA:0,_RNvXININtNtCs2gD7la8YEGu_3fvm6kernel7defaults0_0pEINtB5_13DefaultKernelpENtB7_7SelfOps8set_rootB9_
FNDA:0,_RNvXININtNtCs2gD7la8YEGu_3fvm6kernel7defaults1_0pEINtB5_13DefaultKernelpENtB7_12IpldBlockOps10block_statB9_
FNDA:0,_RNvXININtNtCs2gD7la8YEGu_3fvm6kernel7defaults7_0pEINtB5_13DefaultKernelpENtB7_10NetworkOps15network_versionB9_
FNDA:0,_RNvXININtNtCs2gD7la8YEGu_3fvm6kernel7defaults2_0pEINtB5_13DefaultKernelpENtB7_10MessageOps10msg_callerB9_
FNDA:0,_RNvNtNtCs2gD7la8YEGu_3fvm6kernel7default11verify_seal
FNDA:0,_RNvNtNtCs2gD7la8YEGu_3fvm6kernel7default22verify_aggregate_seals
FNDA:0,_RNCNvXININtNtCs2gD7la8YEGu_3fvm6kernel7defaults9_0pEINtB7_13DefaultKernelpENtB9_8ActorOps12create_actor0Bb_
FNDA:8,_RNvXs6_NtNtCs5xYBAi2tWzh_3fvm6kernel7defaultINtB5_13DefaultKernelNtNtCs4BSQmiRtlYl_3fvm5dummy16DummyCallManagerENtB7_6GasOps8gas_usedB15_
FNDA:0,_RNCNvXs1_NtNtCs5xYBAi2tWzh_3fvm6kernel7defaultINtB7_13DefaultKernelNtNtCs4BSQmiRtlYl_3fvm5dummy16DummyCallManagerENtB9_12IpldBlockOps10block_link0B17_
FNDA:1,_RNvXs1_NtNtCs5xYBAi2tWzh_3fvm6kernel7defaultINtB5_13DefaultKernelNtNtCs4BSQmiRtlYl_3fvm5dummy16DummyCallManagerENtB7_12IpldBlockOps10block_openB15_
FNDA:11,_RNvXs1_NtNtCs5xYBAi2tWzh_3fvm6kernel7defaultINtB5_13DefaultKernelNtNtCs4BSQmiRtlYl_3fvm5dummy16DummyCallManagerENtB7_12IpldBlockOps10block_readB15_
FNDA:0,_RNCNvXs1_NtNtCs5xYBAi2tWzh_3fvm6kernel7defaultINtB7_13DefaultKernelNtNtCs4BSQmiRtlYl_3fvm5dummy16DummyCallManagerENtB9_12IpldBlockOps10block_read0B17_
FNDA:0,_RNCNvXs1_NtNtCs5xYBAi2tWzh_3fvm6kernel7defaultINtB7_13DefaultKernelNtNtCs4BSQmiRtlYl_3fvm5dummy16DummyCallManagerENtB9_12IpldBlockOps10block_open0B17_
FNDA:7,_RNvXs6_NtNtCs5xYBAi2tWzh_3fvm6kernel7defaultINtB5_13DefaultKernelNtNtCs4BSQmiRtlYl_3fvm5dummy16DummyCallManagerENtB7_6GasOps10charge_gasB15_
FNDA:2,_RNvXs6_NtNtCs5xYBAi2tWzh_3fvm6kernel7defaultINtB5_13DefaultKernelNtNtCs4BSQmiRtlYl_3fvm5dummy16DummyCallManagerENtB7_6GasOps10price_listB15_
FNDA:18,_RNvXNtNtCs5xYBAi2tWzh_3fvm6kernel7defaultINtB2_13DefaultKernelNtNtCs4BSQmiRtlYl_3fvm5dummy16DummyCallManagerENtB4_6Kernel3newB12_
FNDA:10,_RNvXs1_NtNtCs5xYBAi2tWzh_3fvm6kernel7defaultINtB5_13DefaultKernelNtNtCs4BSQmiRtlYl_3fvm5dummy16DummyCallManagerENtB7_12IpldBlockOps10block_linkB15_
FNDA:5,_RNvXNtNtCs5xYBAi2tWzh_3fvm6kernel7defaultINtB2_13DefaultKernelNtNtCs4BSQmiRtlYl_3fvm5dummy16DummyCallManagerENtB4_6Kernel10into_innerB12_
FNDA:5,_RNvXs1_NtNtCs5xYBAi2tWzh_3fvm6kernel7defaultINtB5_13DefaultKernelNtNtCs4BSQmiRtlYl_3fvm5dummy16DummyCallManagerENtB7_12IpldBlockOps10block_statB15_
FNDA:17,_RNvXs1_NtNtCs5xYBAi2tWzh_3fvm6kernel7defaultINtB5_13DefaultKernelNtNtCs4BSQmiRtlYl_3fvm5dummy16DummyCallManagerENtB7_12IpldBlockOps12block_createB15_
FNDA:5,_RNvXs6_NtNtCs5xYBAi2tWzh_3fvm6kernel7defaultINtB5_13DefaultKernelNtNtCs4BSQmiRtlYl_3fvm5dummy16DummyCallManagerENtB7_6GasOps13gas_availableB15_
FNDA:0,_RNvNtNtCs5xYBAi2tWzh_3fvm6kernel7default27compute_unsealed_sector_cid
FNDA:0,_RNvNtNtCs5xYBAi2tWzh_3fvm6kernel7default20get_required_padding
FNDA:0,_RNCNvNtNtCs5xYBAi2tWzh_3fvm6kernel7default11verify_post0B7_
FNDA:0,_RNvNtNtCs5xYBAi2tWzh_3fvm6kernel7default22verify_aggregate_seals
FNDA:0,_RNvNtNtCs5xYBAi2tWzh_3fvm6kernel7default11verify_post
FNDA:0,_RNvNtNtCs5xYBAi2tWzh_3fvm6kernel7default18prover_id_from_u64
FNDA:0,_RNCNvNtNtCs5xYBAi2tWzh_3fvm6kernel7default27to_fil_public_replica_infos0B7_
FNDA:0,_RNCNvNtNtCs5xYBAi2tWzh_3fvm6kernel7default22verify_aggregate_sealss0_0B7_
FNDA:0,_RNCNvNtNtCs5xYBAi2tWzh_3fvm6kernel7default22verify_aggregate_sealss1_0B7_
FNDA:0,_RNCNvNtNtCs5xYBAi2tWzh_3fvm6kernel7default22verify_aggregate_sealss2_0B7_
FNDA:0,_RNvNtNtCs5xYBAi2tWzh_3fvm6kernel7default21verify_replica_update
FNDA:0,_RNCNvNtNtCs5xYBAi2tWzh_3fvm6kernel7default22verify_aggregate_seals0B7_
FNDA:0,_RNCNvNtNtCs5xYBAi2tWzh_3fvm6kernel7default27compute_unsealed_sector_cid0B7_
FNDA:0,_RNvNtNtCs5xYBAi2tWzh_3fvm6kernel7default11verify_seal
FNDA:0,_RNvNtNtCs5xYBAi2tWzh_3fvm6kernel7default27to_fil_public_replica_infos
FNDA:0,_RNCNvNtNtCs5xYBAi2tWzh_3fvm6kernel7default22verify_aggregate_sealss_0B7_
FNDA:0,_RNvXININtNtCs5xYBAi2tWzh_3fvm6kernel7defaults9_0pEINtB5_13DefaultKernelpENtB7_8ActorOps17new_actor_addressB9_
FNDA:0,_RNvXININtNtCs5xYBAi2tWzh_3fvm6kernel7defaults3_0pEINtB5_13DefaultKernelpENtB7_7SendOps4sendB9_
FNDA:0,_RNvXININtNtCs5xYBAi2tWzh_3fvm6kernel7defaults7_0pEINtB5_13DefaultKernelpENtB7_10NetworkOps13network_epochB9_
FNDA:0,_RNvXININtNtCs5xYBAi2tWzh_3fvm6kernel7defaults6_0pEINtB5_13DefaultKernelpENtB7_6GasOps8gas_usedB9_
FNDA:0,_RNCNvXININtNtCs5xYBAi2tWzh_3fvm6kernel7defaults9_0pEINtB7_13DefaultKernelpENtB9_8ActorOps18get_actor_code_cid0Bb_
FNDA:0,_RNvXININtNtCs5xYBAi2tWzh_3fvm6kernel7defaults5_0pEINtB5_13DefaultKernelpENtB7_9CryptoOps22verify_aggregate_sealsB9_
FNDA:0,_RNvXININtNtCs5xYBAi2tWzh_3fvm6kernel7defaults5_0pEINtB5_13DefaultKernelpENtB7_9CryptoOps11verify_postB9_
FNDA:0,_RNCNvXININtNtCs5xYBAi2tWzh_3fvm6kernel7defaults0_0pEINtB7_13DefaultKernelpENtB9_7SelfOps15current_balance0Bb_
FNDA:0,_RNCNvXININtNtCs5xYBAi2tWzh_3fvm6kernel7defaults5_0pEINtB7_13DefaultKernelpENtB9_9CryptoOps11verify_post0Bb_
FNDA:0,_RNvXININtNtCs5xYBAi2tWzh_3fvm6kernel7defaults1_0pEINtB5_13DefaultKernelpENtB7_12IpldBlockOps10block_linkB9_
FNDA:0,_RNvXININtNtCs5xYBAi2tWzh_3fvm6kernel7defaults5_0pEINtB5_13DefaultKernelpENtB7_9CryptoOps27compute_unsealed_sector_cidB9_
FNDA:0,_RNvXININtNtCs5xYBAi2tWzh_3fvm6kernel7default0pEINtB5_13DefaultKernelpENtB7_6Kernel3newB9_
FNDA:0,_RNCNvXININtNtCs5xYBAi2tWzh_3fvm6kernel7defaults5_0pEINtB7_13DefaultKernelpENtB9_9CryptoOps27compute_unsealed_sector_cid0Bb_
FNDA:0,_RNCINvMs_NtNtCs5xYBAi2tWzh_3fvm6kernel7defaultINtB7_13DefaultKernelpE11mutate_selfpE0Bb_
FNDA:0,_RNvXININtNtCs5xYBAi2tWzh_3fvm6kernel7defaults2_0pEINtB5_13DefaultKernelpENtB7_10MessageOps18msg_value_receivedB9_
FNDA:0,_RNvXININtNtCs5xYBAi2tWzh_3fvm6kernel7defaults1_0pEINtB5_13DefaultKernelpENtB7_12IpldBlockOps10block_statB9_
FNDA:0,_RNvXININtNtCs5xYBAi2tWzh_3fvm6kernel7defaults0_0pEINtB5_13DefaultKernelpENtB7_7SelfOps15current_balanceB9_
FNDA:0,_RNvXININtNtCs5xYBAi2tWzh_3fvm6kernel7defaults9_0pEINtB5_13DefaultKernelpENtB7_8ActorOps12create_actorB9_
FNDA:0,_RINvMs_NtNtCs5xYBAi2tWzh_3fvm6kernel7defaultINtB5_13DefaultKernelpE11mutate_selfpEB9_
FNDA:0,_RNCNvXININtNtCs5xYBAi2tWzh_3fvm6kernel7defaults9_0pEINtB7_13DefaultKernelpENtB9_8ActorOps12create_actor0Bb_
FNDA:0,_RNCNvXININtNtCs5xYBAi2tWzh_3fvm6kernel7defaults1_0pEINtB7_13DefaultKernelpENtB9_12IpldBlockOps10block_read0Bb_
FNDA:0,_RNvXININtNtCs5xYBAi2tWzh_3fvm6kernel7defaults9_0pEINtB5_13DefaultKernelpENtB7_8ActorOps22get_builtin_actor_typeB9_
FNDA:0,_RNvXININtNtCs5xYBAi2tWzh_3fvm6kernel7defaults9_0pEINtB5_13DefaultKernelpENtB7_8ActorOps15resolve_addressB9_
FNDA:0,_RNvXININtNtCs5xYBAi2tWzh_3fvm6kernel7defaults8_0pEINtB5_13DefaultKernelpENtB7_13RandomnessOps27get_randomness_from_ticketsB9_
FNDA:0,_RNvXININtNtCs5xYBAi2tWzh_3fvm6kernel7defaults6_0pEINtB5_13DefaultKernelpENtB7_6GasOps10charge_gasB9_
FNDA:0,_RNvXININtNtCs5xYBAi2tWzh_3fvm6kernel7defaults1_0pEINtB5_13DefaultKernelpENtB7_12IpldBlockOps10block_openB9_
FNDA:0,_RNvXININtNtCs5xYBAi2tWzh_3fvm6kernel7defaults5_0pEINtB5_13DefaultKernelpENtB7_9CryptoOps21verify_replica_updateB9_
FNDA:0,_RNCNvXININtNtCs5xYBAi2tWzh_3fvm6kernel7defaults1_0pEINtB7_13DefaultKernelpENtB9_12IpldBlockOps10block_link0Bb_
FNDA:0,_RNvXININtNtCs5xYBAi2tWzh_3fvm6kernel7defaults5_0pEINtB5_13DefaultKernelpENtB7_9CryptoOps22verify_consensus_faultB9_
FNDA:0,_RNvXININtNtCs5xYBAi2tWzh_3fvm6kernel7defaults2_0pEINtB5_13DefaultKernelpENtB7_10MessageOps17msg_method_numberB9_
FNDA:0,_RNvXININtNtCs5xYBAi2tWzh_3fvm6kernel7defaults6_0pEINtB5_13DefaultKernelpENtB7_6GasOps13gas_availableB9_
FNDA:0,_RNvXININtNtCs5xYBAi2tWzh_3fvm6kernel7defaults5_0pEINtB5_13DefaultKernelpENtB7_9CryptoOps11verify_sealB9_
FNDA:0,_RNvXININtNtCs5xYBAi2tWzh_3fvm6kernel7defaults5_0pEINtB5_13DefaultKernelpENtB7_9CryptoOps16verify_signatureB9_
FNDA:0,_RNCNvXININtNtCs5xYBAi2tWzh_3fvm6kernel7defaults5_0pEINtB7_13DefaultKernelpENtB9_9CryptoOps16verify_signature0Bb_
FNDA:0,_RNvXININtNtCs5xYBAi2tWzh_3fvm6kernel7defaults5_0pEINtB5_13DefaultKernelpENtB7_9CryptoOps4hashB9_
FNDA:0,_RNvXININtNtCs5xYBAi2tWzh_3fvm6kernel7defaults9_0pEINtB5_13DefaultKernelpENtB7_8ActorOps21get_code_cid_for_typeB9_
FNDA:0,_RNvXININtNtCs5xYBAi2tWzh_3fvm6kernel7defaults9_0pEINtB5_13DefaultKernelpENtB7_8ActorOps18get_actor_code_cidB9_
FNDA:0,_RNvXININtNtCs5xYBAi2tWzh_3fvm6kernel7default0pEINtB5_13DefaultKernelpENtB7_6Kernel10into_innerB9_
FNDA:0,_RNvXININtNtCs5xYBAi2tWzh_3fvm6kernel7defaults6_0pEINtB5_13DefaultKernelpENtB7_6GasOps10price_listB9_
FNDA:0,_RNvXININtNtCs5xYBAi2tWzh_3fvm6kernel7defaults2_0pEINtB5_13DefaultKernelpENtB7_10MessageOps12msg_receiverB9_
FNDA:0,_RNvXININtNtCs5xYBAi2tWzh_3fvm6kernel7defaultsa_0pEINtB5_13DefaultKernelpENtB7_8DebugOps3logB9_
FNDA:0,_RNCNvXININtNtCs5xYBAi2tWzh_3fvm6kernel7defaults5_0pEINtB7_13DefaultKernelpENtB9_9CryptoOps18batch_verify_seals0Bb_
FNDA:0,_RNvXININtNtCs5xYBAi2tWzh_3fvm6kernel7defaults1_0pEINtB5_13DefaultKernelpENtB7_12IpldBlockOps10block_readB9_
FNDA:0,_RNvXININtNtCs5xYBAi2tWzh_3fvm6kernel7defaults5_0pEINtB5_13DefaultKernelpENtB7_9CryptoOps18batch_verify_sealsB9_
FNDA:0,_RNvXININtNtCs5xYBAi2tWzh_3fvm6kernel7defaults1_0pEINtB5_13DefaultKernelpENtB7_12IpldBlockOps12block_createB9_
FNDA:0,_RNvXININtNtCs5xYBAi2tWzh_3fvm6kernel7defaults0_0pEINtB5_13DefaultKernelpENtB7_7SelfOps8set_rootB9_
FNDA:0,_RNvXININtNtCs5xYBAi2tWzh_3fvm6kernel7defaults7_0pEINtB5_13DefaultKernelpENtB7_10NetworkOps16network_base_feeB9_
FNDA:0,_RNCNvXININtNtCs5xYBAi2tWzh_3fvm6kernel7defaults5_0pEINtB7_13DefaultKernelpENtB9_9CryptoOps22verify_aggregate_seals0Bb_
FNDA:0,_RNvXININtNtCs5xYBAi2tWzh_3fvm6kernel7defaults2_0pEINtB5_13DefaultKernelpENtB7_10MessageOps10msg_callerB9_
FNDA:0,_RNCNvXININtNtCs5xYBAi2tWzh_3fvm6kernel7defaults3_0pEINtB7_13DefaultKernelpENtB9_7SendOps4send0Bb_
FNDA:0,_RNvMs_NtNtCs5xYBAi2tWzh_3fvm6kernel7defaultINtB4_13DefaultKernelpE19resolve_to_key_addrB8_
FNDA:0,_RNvXININtNtCs5xYBAi2tWzh_3fvm6kernel7defaults0_0pEINtB5_13DefaultKernelpENtB7_7SelfOps4rootB9_
FNDA:0,_RNvMs_NtNtCs5xYBAi2tWzh_3fvm6kernel7defaultINtB4_13DefaultKernelpE8get_selfB8_
FNDA:0,_RNvXININtNtCs5xYBAi2tWzh_3fvm6kernel7defaults4_0pEINtB5_13DefaultKernelpENtB7_13CircSupplyOps21total_fil_circ_supplyB9_
FNDA:0,_RNCNvXININtNtCs5xYBAi2tWzh_3fvm6kernel7defaults5_0pEINtB7_13DefaultKernelpENtB9_9CryptoOps21verify_replica_update0Bb_
FNDA:0,_RNCNvXININtNtCs5xYBAi2tWzh_3fvm6kernel7defaults1_0pEINtB7_13DefaultKernelpENtB9_12IpldBlockOps10block_open0Bb_
FNDA:0,_RNvXININtNtCs5xYBAi2tWzh_3fvm6kernel7defaultsa_0pEINtB5_13DefaultKernelpENtB7_8DebugOps13debug_enabledB9_
FNDA:0,_RNvXININtNtCs5xYBAi2tWzh_3fvm6kernel7defaults0_0pEINtB5_13DefaultKernelpENtB7_7SelfOps13self_destructB9_
FNDA:0,_RNCNCNvXININtNtCs5xYBAi2tWzh_3fvm6kernel7defaults5_0pEINtB9_13DefaultKernelpENtBb_9CryptoOps18batch_verify_seals00Bd_
FNDA:0,_RNvXININtNtCs5xYBAi2tWzh_3fvm6kernel7defaults8_0pEINtB5_13DefaultKernelpENtB7_13RandomnessOps26get_randomness_from_beaconB9_
FNDA:0,_RNvXININtNtCs5xYBAi2tWzh_3fvm6kernel7defaults7_0pEINtB5_13DefaultKernelpENtB7_10NetworkOps15network_versionB9_
FNDA:0,_RNCNvXININtNtCs5xYBAi2tWzh_3fvm6kernel7defaults5_0pEINtB7_13DefaultKernelpENtB9_9CryptoOps11verify_seal0Bb_
FNDA:0,_RNCNvXININtNtCs5xYBAi2tWzh_3fvm6kernel7defaults0_0pEINtB7_13DefaultKernelpENtB9_7SelfOps8set_root0Bb_
FNDA:0,_RINvNtNtCs5xYBAi2tWzh_3fvm6kernel7default19catch_and_log_panicppEB6_
FNF:80
FNH:11
DA:68,5
DA:69,5
DA:70,5
DA:71,5
DA:72,5
DA:73,5
DA:75,18
DA:76,18
DA:77,18
DA:78,18
DA:79,18
DA:80,18
DA:81,18
DA:82,18
DA:83,18
DA:84,18
DA:85,18
DA:86,18
DA:87,18
DA:88,18
DA:89,18
DA:90,18
DA:91,18
DA:98,0
DA:99,0
DA:100,0
DA:101,0
DA:103,0
DA:104,0
DA:105,0
DA:106,0
DA:107,0
DA:108,0
DA:109,0
DA:111,0
DA:112,0
DA:113,0
DA:114,0
DA:115,0
DA:116,0
DA:117,0
DA:118,0
DA:119,0
DA:122,0
DA:123,0
DA:124,0
DA:125,0
DA:126,0
DA:127,0
DA:128,0
DA:130,0
DA:131,0
DA:132,0
DA:133,0
DA:134,0
DA:135,0
DA:136,0
DA:137,0
DA:138,0
DA:140,0
DA:141,0
DA:142,0
DA:143,0
DA:144,0
DA:145,0
DA:146,0
DA:148,0
DA:149,0
DA:150,0
DA:152,0
DA:153,0
DA:156,0
DA:157,0
DA:158,0
DA:159,0
DA:160,0
DA:161,0
DA:162,0
DA:165,0
DA:166,0
DA:167,0
DA:168,0
DA:169,0
DA:170,0
DA:171,0
DA:172,0
DA:173,0
DA:174,0
DA:175,0
DA:177,0
DA:179,0
DA:180,0
DA:187,0
DA:188,0
DA:189,0
DA:190,0
DA:191,0
DA:192,0
DA:194,0
DA:196,0
DA:197,0
DA:198,0
DA:199,0
DA:200,0
DA:201,0
DA:203,0
DA:204,0
DA:205,0
DA:206,0
DA:211,0
DA:212,0
DA:214,0
DA:215,0
DA:220,0
DA:221,0
DA:222,0
DA:223,0
DA:225,0
DA:226,0
DA:227,0
DA:228,0
DA:229,0
DA:230,0
DA:231,0
DA:232,0
DA:233,0
DA:236,0
DA:237,0
DA:238,0
DA:239,0
DA:249,1
DA:250,1
DA:252,1
DA:253,1
DA:254,1
DA:255,1
DA:256,1
DA:257,1
DA:258,1
DA:259,1
DA:260,1
DA:261,1
DA:262,1
DA:263,1
DA:265,1
DA:266,1
DA:267,1
DA:268,1
DA:269,1
DA:270,1
DA:271,1
DA:273,1
DA:274,1
DA:275,1
DA:276,1
DA:279,17
DA:280,17
DA:282,17
DA:283,17
DA:285,10
DA:286,10
DA:287,4
DA:288,6
DA:291,6
DA:292,4
DA:293,4
DA:295,4
DA:296,4
DA:297,4
DA:298,4
DA:299,4
DA:301,4
DA:302,4
DA:303,0
DA:304,4
DA:305,4
DA:306,4
DA:307,4
DA:308,4
DA:309,4
DA:310,4
DA:311,4
DA:312,4
DA:313,4
DA:314,10
DA:316,11
DA:322,11
DA:323,11
DA:326,11
DA:327,8
DA:328,8
DA:329,8
DA:330,8
DA:331,8
DA:332,8
DA:333,8
DA:334,8
DA:335,8
DA:336,8
DA:337,8
DA:341,8
DA:342,7
DA:343,7
DA:346,8
DA:347,11
DA:350,5
DA:351,5
DA:353,5
DA:354,5
DA:361,0
DA:362,0
DA:363,0
DA:365,0
DA:366,0
DA:367,0
DA:369,0
DA:370,0
DA:371,0
DA:373,0
DA:374,0
DA:375,0
DA:382,0
DA:383,0
DA:384,0
DA:385,0
DA:386,0
DA:387,0
DA:388,0
DA:389,0
DA:392,0
DA:393,0
DA:395,0
DA:399,0
DA:400,0
DA:401,0
DA:404,0
DA:405,0
DA:406,0
DA:409,0
DA:411,0
DA:413,0
DA:414,0
DA:415,0
DA:416,0
DA:417,0
DA:418,0
DA:419,0
DA:420,0
DA:422,0
DA:424,0
DA:431,0
DA:432,0
DA:433,0
DA:434,0
DA:435,0
DA:436,0
DA:450,0
DA:451,0
DA:454,0
DA:458,0
DA:459,0
DA:460,0
DA:461,0
DA:464,0
DA:465,0
DA:468,0
DA:469,0
DA:470,0
DA:471,0
DA:472,0
DA:473,0
DA:474,0
DA:475,0
DA:476,0
DA:477,0
DA:478,0
DA:479,0
DA:480,0
DA:481,0
DA:488,0
DA:489,0
DA:490,0
DA:491,0
DA:492,0
DA:494,0
DA:495,0
DA:496,0
DA:497,0
DA:501,0
DA:502,0
DA:506,0
DA:507,0
DA:510,0
DA:511,0
DA:514,0
DA:515,0
DA:523,0
DA:524,0
DA:528,0
DA:529,0
DA:530,0
DA:531,0
DA:532,0
DA:534,0
DA:535,0
DA:536,0
DA:537,0
DA:538,0
DA:539,0
DA:540,0
DA:542,0
DA:543,0
DA:545,0
DA:546,0
DA:547,0
DA:548,0
DA:549,0
DA:550,0
DA:551,0
DA:552,0
DA:553,0
DA:554,0
DA:555,0
DA:556,0
DA:557,0
DA:558,0
DA:559,0
DA:560,0
DA:563,0
DA:564,0
DA:566,0
DA:567,0
DA:568,0
DA:572,0
DA:576,0
DA:577,0
DA:578,0
DA:581,0
DA:582,0
DA:583,0
DA:584,0
DA:585,0
DA:591,0
DA:592,0
DA:593,0
DA:594,0
DA:595,0
DA:596,0
DA:597,0
DA:598,0
DA:599,0
DA:602,0
DA:603,0
DA:604,0
DA:605,0
DA:606,0
DA:607,0
DA:608,0
DA:609,0
DA:610,0
DA:617,8
DA:618,8
DA:619,8
DA:621,5
DA:622,5
DA:623,5
DA:625,7
DA:626,7
DA:627,7
DA:628,7
DA:629,7
DA:631,2
DA:632,2
DA:633,2
DA:640,0
DA:641,0
DA:642,0
DA:644,0
DA:645,0
DA:646,0
DA:648,0
DA:649,0
DA:650,0
DA:663,0
DA:664,0
DA:665,0
DA:666,0
DA:667,0
DA:671,0
DA:672,0
DA:673,0
DA:674,0
DA:675,0
DA:683,0
DA:684,0
DA:685,0
DA:686,0
DA:687,0
DA:691,0
DA:692,0
DA:693,0
DA:694,0
DA:695,0
DA:702,0
DA:703,0
DA:704,0
DA:706,0
DA:707,0
DA:708,0
DA:709,0
DA:710,0
DA:711,0
DA:712,0
DA:713,0
DA:714,0
DA:717,0
DA:718,0
DA:719,0
DA:720,0
DA:721,0
DA:723,0
DA:724,0
DA:725,0
DA:726,0
DA:727,0
DA:728,0
DA:729,0
DA:730,0
DA:731,0
DA:732,0
DA:733,0
DA:734,0
DA:737,0
DA:738,0
DA:739,0
DA:740,0
DA:742,0
DA:743,0
DA:744,0
DA:745,0
DA:746,0
DA:747,0
DA:748,0
DA:749,0
DA:750,0
DA:751,0
DA:752,0
DA:753,0
DA:754,0
DA:756,0
DA:757,0
DA:758,0
DA:759,0
DA:760,0
DA:761,0
DA:763,0
DA:764,0
DA:765,0
DA:766,0
DA:767,0
DA:768,0
DA:769,0
DA:771,0
DA:772,0
DA:773,0
DA:774,0
DA:775,0
DA:776,0
DA:777,0
DA:778,0
DA:779,0
DA:786,0
DA:787,0
DA:788,0
DA:790,0
DA:791,0
DA:792,0
DA:795,0
DA:796,0
DA:797,0
DA:798,0
DA:799,0
DA:800,0
DA:803,0
DA:812,0
DA:813,0
DA:814,0
DA:815,0
DA:816,0
DA:817,0
DA:819,0
DA:820,0
DA:821,0
DA:822,0
DA:823,0
DA:824,0
DA:825,0
DA:826,0
DA:827,0
DA:828,0
DA:829,0
DA:830,0
DA:831,0
DA:832,0
DA:833,0
DA:834,0
DA:835,0
DA:836,0
DA:838,0
DA:839,0
DA:841,0
DA:842,0
DA:843,0
DA:844,0
DA:845,0
DA:846,0
DA:847,0
DA:848,0
DA:849,0
DA:850,0
DA:851,0
DA:852,0
DA:854,0
DA:855,0
DA:856,0
DA:857,0
DA:858,0
DA:859,0
DA:860,0
DA:861,0
DA:863,0
DA:864,0
DA:865,0
DA:866,0
DA:867,0
DA:868,0
DA:869,0
DA:870,0
DA:871,0
DA:872,0
DA:873,0
DA:874,0
DA:875,0
DA:876,0
DA:877,0
DA:878,0
DA:879,0
DA:880,0
DA:881,0
DA:882,0
DA:883,0
DA:884,0
DA:885,0
DA:886,0
DA:887,0
DA:889,0
DA:890,0
DA:891,0
DA:892,0
DA:893,0
DA:894,0
DA:895,0
DA:896,0
DA:897,0
DA:898,0
DA:899,0
DA:900,0
DA:903,0
DA:906,0
DA:907,0
DA:908,0
DA:909,0
DA:910,0
DA:913,0
DA:914,0
DA:915,0
DA:916,0
DA:917,0
DA:918,0
DA:920,0
DA:921,0
DA:922,0
DA:923,0
DA:924,0
DA:925,0
DA:935,0
DA:936,0
DA:937,0
DA:938,0
DA:939,0
DA:940,0
DA:941,0
DA:942,0
DA:943,0
DA:944,0
DA:945,0
DA:946,0
DA:947,0
DA:948,0
DA:949,0
DA:950,0
DA:952,0
DA:953,0
DA:954,0
DA:955,0
DA:956,0
DA:957,0
DA:958,0
DA:959,0
DA:960,0
DA:961,0
DA:962,0
DA:963,0
DA:964,0
DA:965,0
DA:966,0
DA:967,0
DA:968,0
DA:969,0
DA:971,0
DA:972,0
DA:973,0
DA:974,0
DA:975,0
DA:976,0
DA:977,0
DA:978,0
DA:979,0
DA:980,0
DA:981,0
DA:982,0
DA:983,0
DA:985,0
DA:986,0
DA:987,0
DA:989,0
DA:990,0
DA:991,0
DA:992,0
DA:993,0
DA:994,0
DA:996,0
DA:997,0
DA:998,0
DA:999,0
DA:1000,0
DA:1001,0
DA:1002,0
DA:1003,0
DA:1004,0
DA:1006,0
DA:1007,0
DA:1008,0
DA:1009,0
DA:1010,0
DA:1012,0
DA:1013,0
DA:1014,0
DA:1015,0
DA:1016,0
DA:1017,0
DA:1018,0
DA:1019,0
DA:1022,0
DA:1023,0
DA:1025,0
DA:1026,0
DA:1027,0
DA:1028,0
DA:1029,0
DA:1030,0
DA:1031,0
DA:1032,0
DA:1033,0
DA:1034,0
DA:1035,0
DA:1036,0
DA:1037,0
DA:1038,0
DA:1039,0
DA:1040,0
DA:1043,0
DA:1044,0
DA:1047,0
DA:1048,0
DA:1049,0
DA:1051,0
DA:1052,0
BRF:0
BRH:0
LF:723
LH:115
end_of_record
SF:/home/mriise/Projects/ref-fvm/fvm/src/kernel/error.rs
FN:137,_RNCINvXININtNtCs2gD7la8YEGu_3fvm6kernel5errors1_0pEINtNtCslBoGNiFC398_4core6result6ResultpNtB8_14ExecutionErrorENtB8_7Context12with_contextppE0Bc_
FN:183,_RINvMs4_NtNtCs2gD7la8YEGu_3fvm6kernel5errorNtB6_12SyscallError3newpEBa_
FN:152,_RINvXs2_NtNtCs2gD7la8YEGu_3fvm6kernel5errorNtB6_14ExecutionErrorNtB6_7Context12with_contextppEBa_
FN:58,_RNvMNtNtCs2gD7la8YEGu_3fvm6kernel5errorNtB2_14ExecutionError14is_recoverable
FN:178,_RNvXsa_NtNtCs2gD7la8YEGu_3fvm6kernel5errorNtB5_12SyscallErrorNtNtCslBoGNiFC398_4core5clone5Clone5cloneB9_
FN:70,_RNvXs_NtNtCs2gD7la8YEGu_3fvm6kernel5errorNtB4_14ExecutionErrorINtNtCslBoGNiFC398_4core7convert4FromNtB4_12SyscallErrorE4from
FN:132,_RINvXININtNtCs2gD7la8YEGu_3fvm6kernel5errors1_0pEINtNtCslBoGNiFC398_4core6result6ResultpNtB6_14ExecutionErrorENtB6_7Context12with_contextppEBa_
FN:86,_RNvYpNtNtNtCs2gD7la8YEGu_3fvm6kernel5error14ClassifyResult19or_illegal_argumentB9_
FN:31,_RNvXs5_NtNtCs2gD7la8YEGu_3fvm6kernel5errorNtB5_14ExecutionErrorNtNtCslBoGNiFC398_4core3fmt7Display3fmtB9_
FN:178,_RNvXs8_NtNtCs2gD7la8YEGu_3fvm6kernel5errorNtB5_12SyscallErrorNtNtCslBoGNiFC398_4core3fmt7Display3fmt
FN:98,_RNvXs0_NtNtCs2gD7la8YEGu_3fvm6kernel5errorINtNtCslBoGNiFC398_4core6result6ResultNtNtB9_12system_actor5StateNtCs5jS7vBTw6wt_6anyhow5ErrorENtB5_14ClassifyResult8or_fatalB9_
FN:98,_RNvXs0_NtNtCs2gD7la8YEGu_3fvm6kernel5errorINtNtCslBoGNiFC398_4core6result6ResultRNtNtB9_10state_tree14StateSnapLayerNtCs5jS7vBTw6wt_6anyhow5ErrorENtB5_14ClassifyResult8or_fatalB9_
FN:98,_RNvXs0_NtNtCs2gD7la8YEGu_3fvm6kernel5errorINtNtCslBoGNiFC398_4core6result6ResultuNtCs5jS7vBTw6wt_6anyhow5ErrorENtB5_14ClassifyResult8or_fatalB9_
FN:104,_RNvXs0_NtNtCs2gD7la8YEGu_3fvm6kernel5errorINtNtCslBoGNiFC398_4core6result6ResultRShNtNtCsc0YPw4IdecV_5alloc6string6StringENtB5_14ClassifyResult8or_errorB9_
FN:98,_RNvXs0_NtNtCs2gD7la8YEGu_3fvm6kernel5errorINtNtCslBoGNiFC398_4core6result6ResultINtNtCs1EPKmBb5iMg_3cid3cid3CidKj40_ENtCs5jS7vBTw6wt_6anyhow5ErrorENtB5_14ClassifyResult8or_fatalB9_
FN:98,_RNvXs0_NtNtCs2gD7la8YEGu_3fvm6kernel5errorINtNtCslBoGNiFC398_4core6result6ResultINtNtBJ_6option6OptionRyENtNtCs526lIuXzNtG_13fvm_ipld_hamt5error5ErrorENtB5_14ClassifyResult8or_fatalB9_
FN:98,_RNvXs0_NtNtCs2gD7la8YEGu_3fvm6kernel5errorINtNtCslBoGNiFC398_4core6result6ResultINtNtBJ_6option6OptionTNtNtCsbZGvRFhD0mv_17forest_hash_utils3key8BytesKeyNtNtB9_10state_tree10ActorStateEENtNtCs526lIuXzNtG_13fvm_ipld_hamt5error5ErrorENtB5_14ClassifyResult8or_fatalB9_
FN:98,_RNvXs0_NtNtCs2gD7la8YEGu_3fvm6kernel5errorINtNtCslBoGNiFC398_4core6result6ResultINtNtCs526lIuXzNtG_13fvm_ipld_hamt4hamt4HamtINtNtNtB9_10blockstore8buffered18BufferedBlockstoreNtNtCslbkBntY5hAO_19fvm_ipld_blockstore6memory16MemoryBlockstoreENtNtB9_10state_tree10ActorStateENtCs5jS7vBTw6wt_6anyhow5ErrorENtB5_14ClassifyResult8or_fatalB9_
FN:98,_RNvXs0_NtNtCs2gD7la8YEGu_3fvm6kernel5errorINtNtCslBoGNiFC398_4core6result6ResultINtNtCs526lIuXzNtG_13fvm_ipld_hamt4hamt4HamtRRNtNtCslbkBntY5hAO_19fvm_ipld_blockstore6memory16MemoryBlockstoreyENtNtB1l_5error5ErrorENtB5_14ClassifyResult8or_fatalB9_
FN:98,_RNvXs0_NtNtCs2gD7la8YEGu_3fvm6kernel5errorINtNtCslBoGNiFC398_4core6result6ResultNtNtB9_10init_actor5StateNtCs5jS7vBTw6wt_6anyhow5ErrorENtB5_14ClassifyResult8or_fatalB9_
FN:98,_RNvXs0_NtNtCs2gD7la8YEGu_3fvm6kernel5errorINtNtCslBoGNiFC398_4core6result6ResultINtNtBJ_6option6OptionNtNtB9_12system_actor5StateENtCs5jS7vBTw6wt_6anyhow5ErrorENtB5_14ClassifyResult8or_fatalB9_
FN:98,_RNvXs0_NtNtCs2gD7la8YEGu_3fvm6kernel5errorINtNtCslBoGNiFC398_4core6result6ResultyNtCs5jS7vBTw6wt_6anyhow5ErrorENtB5_14ClassifyResult8or_fatalB9_
FN:104,_RNvXs0_NtNtCs2gD7la8YEGu_3fvm6kernel5errorINtNtCslBoGNiFC398_4core6result6ResultINtNtCs1EPKmBb5iMg_3cid3cid3CidKj40_ENtNtB1l_5error5ErrorENtB5_14ClassifyResult8or_errorB9_
FN:128,_RINvXs1_NtNtCs2gD7la8YEGu_3fvm6kernel5errorINtNtCslBoGNiFC398_4core6result6ResultINtNtBK_6option6OptionyENtB6_14ExecutionErrorENtB6_7Context7contextReEBa_
FN:128,_RINvXs1_NtNtCs2gD7la8YEGu_3fvm6kernel5errorINtNtCslBoGNiFC398_4core6result6ResultINtNtCs1EPKmBb5iMg_3cid3cid3CidKj40_ENtB6_14ExecutionErrorENtB6_7Context7contextReEBa_
FN:98,_RNvXs0_NtNtCs2gD7la8YEGu_3fvm6kernel5errorINtNtCslBoGNiFC398_4core6result6ResultINtNtBJ_6option6OptionNtNtB9_10state_tree10ActorStateENtNtCs526lIuXzNtG_13fvm_ipld_hamt5error5ErrorENtB5_14ClassifyResult8or_fatalB9_
FN:98,_RNvXs0_NtNtCs2gD7la8YEGu_3fvm6kernel5errorINtNtCslBoGNiFC398_4core6result6ResultINtNtBJ_6option6OptionNtNtB9_10init_actor5StateENtCs5jS7vBTw6wt_6anyhow5ErrorENtB5_14ClassifyResult8or_fatalB9_
FN:98,_RNvXs0_NtNtCs2gD7la8YEGu_3fvm6kernel5errorINtNtCslBoGNiFC398_4core6result6ResultINtNtBJ_6option6OptionyENtB5_14ExecutionErrorENtB5_14ClassifyResult8or_fatalB9_
FN:98,_RNvXs0_NtNtCs2gD7la8YEGu_3fvm6kernel5errorINtNtCslBoGNiFC398_4core6result6ResultINtNtCs526lIuXzNtG_13fvm_ipld_hamt4hamt4HamtRINtNtNtB9_10blockstore8buffered18BufferedBlockstoreNtNtCslbkBntY5hAO_19fvm_ipld_blockstore6memory16MemoryBlockstoreEyENtNtB1l_5error5ErrorENtB5_14ClassifyResult8or_fatalB9_
FN:98,_RNvXs0_NtNtCs2gD7la8YEGu_3fvm6kernel5errorINtNtCslBoGNiFC398_4core6result6ResultNtNtB9_10state_tree10ActorStateNtCs5jS7vBTw6wt_6anyhow5ErrorENtB5_14ClassifyResult8or_fatalB9_
FN:98,_RNvXs0_NtNtCs2gD7la8YEGu_3fvm6kernel5errorINtNtCslBoGNiFC398_4core6result6ResultNtNtB9_10state_tree14StateSnapLayerNtCs5jS7vBTw6wt_6anyhow5ErrorENtB5_14ClassifyResult8or_fatalB9_
FN:98,_RNvXs0_NtNtCs2gD7la8YEGu_3fvm6kernel5errorINtNtCslBoGNiFC398_4core6result6ResultINtNtCs1EPKmBb5iMg_3cid3cid3CidKj40_ENtNtCs526lIuXzNtG_13fvm_ipld_hamt5error5ErrorENtB5_14ClassifyResult8or_fatalB9_
FN:98,_RNvXs0_NtNtCs2gD7la8YEGu_3fvm6kernel5errorINtNtCslBoGNiFC398_4core6result6ResultINtNtBJ_6option6OptionRNtNtB9_10state_tree10ActorStateENtCs5jS7vBTw6wt_6anyhow5ErrorENtB5_14ClassifyResult8or_fatalB9_
FN:98,_RNvXs0_NtNtCs2gD7la8YEGu_3fvm6kernel5errorINtNtCslBoGNiFC398_4core6result6ResultINtNtBJ_6option6OptionyENtNtCs526lIuXzNtG_13fvm_ipld_hamt5error5ErrorENtB5_14ClassifyResult8or_fatalB9_
FN:163,_RNvXs3_NtNtCs2gD7la8YEGu_3fvm6kernel5errorNtCs5jS7vBTw6wt_6anyhow5ErrorINtNtCslBoGNiFC398_4core7convert4FromNtB5_14ExecutionErrorE4from
FN:143,_RINvXs2_NtNtCs2gD7la8YEGu_3fvm6kernel5errorNtB6_14ExecutionErrorNtB6_7Context7contextReEBa_
FN:102,_RNCNvXs0_NtNtCs2gD7la8YEGu_3fvm6kernel5errorINtNtCslBoGNiFC398_4core6result6ResultINtNtCs526lIuXzNtG_13fvm_ipld_hamt4hamt4HamtRINtNtNtBb_10blockstore8buffered18BufferedBlockstoreNtNtCslbkBntY5hAO_19fvm_ipld_blockstore6memory16MemoryBlockstoreEyENtNtB1n_5error5ErrorENtB7_14ClassifyResult8or_fatal0Bb_
FN:102,_RNCNvXs0_NtNtCs2gD7la8YEGu_3fvm6kernel5errorINtNtCslBoGNiFC398_4core6result6ResultNtNtBb_12system_actor5StateNtCs5jS7vBTw6wt_6anyhow5ErrorENtB7_14ClassifyResult8or_fatal0Bb_
FN:102,_RNCNvXs0_NtNtCs2gD7la8YEGu_3fvm6kernel5errorINtNtCslBoGNiFC398_4core6result6ResultINtNtBL_6option6OptionyENtNtCs526lIuXzNtG_13fvm_ipld_hamt5error5ErrorENtB7_14ClassifyResult8or_fatal0Bb_
FN:102,_RNCNvXs0_NtNtCs2gD7la8YEGu_3fvm6kernel5errorINtNtCslBoGNiFC398_4core6result6ResultNtNtBb_10state_tree14StateSnapLayerNtCs5jS7vBTw6wt_6anyhow5ErrorENtB7_14ClassifyResult8or_fatal0Bb_
FN:102,_RNCNvXs0_NtNtCs2gD7la8YEGu_3fvm6kernel5errorINtNtCslBoGNiFC398_4core6result6ResultuNtCs5jS7vBTw6wt_6anyhow5ErrorENtB7_14ClassifyResult8or_fatal0Bb_
FN:102,_RNCNvXs0_NtNtCs2gD7la8YEGu_3fvm6kernel5errorINtNtCslBoGNiFC398_4core6result6ResultINtNtBL_6option6OptionTNtNtCsbZGvRFhD0mv_17forest_hash_utils3key8BytesKeyNtNtBb_10state_tree10ActorStateEENtNtCs526lIuXzNtG_13fvm_ipld_hamt5error5ErrorENtB7_14ClassifyResult8or_fatal0Bb_
FN:102,_RNCNvXs0_NtNtCs2gD7la8YEGu_3fvm6kernel5errorINtNtCslBoGNiFC398_4core6result6ResultRNtNtBb_10state_tree14StateSnapLayerNtCs5jS7vBTw6wt_6anyhow5ErrorENtB7_14ClassifyResult8or_fatal0Bb_
FN:129,_RNCINvXs1_NtNtCs2gD7la8YEGu_3fvm6kernel5errorINtNtCslBoGNiFC398_4core6result6ResultINtNtBM_6option6OptionyENtB8_14ExecutionErrorENtB8_7Context7contextReE0Bc_
FN:178,_RNvXs9_NtNtCs2gD7la8YEGu_3fvm6kernel5errorNtB5_12SyscallErrorNtNtCslBoGNiFC398_4core3fmt5Debug3fmt
FN:102,_RNCNvXs0_NtNtCs2gD7la8YEGu_3fvm6kernel5errorINtNtCslBoGNiFC398_4core6result6ResultINtNtBL_6option6OptionNtNtBb_10state_tree10ActorStateENtNtCs526lIuXzNtG_13fvm_ipld_hamt5error5ErrorENtB7_14ClassifyResult8or_fatal0Bb_
FN:102,_RNCNvXs0_NtNtCs2gD7la8YEGu_3fvm6kernel5errorINtNtCslBoGNiFC398_4core6result6ResultyNtCs5jS7vBTw6wt_6anyhow5ErrorENtB7_14ClassifyResult8or_fatal0Bb_
FN:108,_RNCNvXs0_NtNtCs2gD7la8YEGu_3fvm6kernel5errorINtNtCslBoGNiFC398_4core6result6ResultRShNtNtCsc0YPw4IdecV_5alloc6string6StringENtB7_14ClassifyResult8or_error0Bb_
FN:31,_RNvXs6_NtNtCs2gD7la8YEGu_3fvm6kernel5errorNtB5_14ExecutionErrorNtNtCslBoGNiFC398_4core3fmt5Debug3fmt
FN:102,_RNCNvXs0_NtNtCs2gD7la8YEGu_3fvm6kernel5errorINtNtCslBoGNiFC398_4core6result6ResultINtNtCs1EPKmBb5iMg_3cid3cid3CidKj40_ENtNtCs526lIuXzNtG_13fvm_ipld_hamt5error5ErrorENtB7_14ClassifyResult8or_fatal0Bb_
FN:108,_RNCNvXs0_NtNtCs2gD7la8YEGu_3fvm6kernel5errorINtNtCslBoGNiFC398_4core6result6ResultINtNtCs1EPKmBb5iMg_3cid3cid3CidKj40_ENtNtB1n_5error5ErrorENtB7_14ClassifyResult8or_error0Bb_
FN:102,_RNCNvXs0_NtNtCs2gD7la8YEGu_3fvm6kernel5errorINtNtCslBoGNiFC398_4core6result6ResultINtNtBL_6option6OptionyENtB7_14ExecutionErrorENtB7_14ClassifyResult8or_fatal0Bb_
FN:102,_RNCNvXs0_NtNtCs2gD7la8YEGu_3fvm6kernel5errorINtNtCslBoGNiFC398_4core6result6ResultINtNtCs1EPKmBb5iMg_3cid3cid3CidKj40_ENtCs5jS7vBTw6wt_6anyhow5ErrorENtB7_14ClassifyResult8or_fatal0Bb_
FN:102,_RNCNvXs0_NtNtCs2gD7la8YEGu_3fvm6kernel5errorINtNtCslBoGNiFC398_4core6result6ResultINtNtCs526lIuXzNtG_13fvm_ipld_hamt4hamt4HamtINtNtNtBb_10blockstore8buffered18BufferedBlockstoreNtNtCslbkBntY5hAO_19fvm_ipld_blockstore6memory16MemoryBlockstoreENtNtBb_10state_tree10ActorStateENtCs5jS7vBTw6wt_6anyhow5ErrorENtB7_14ClassifyResult8or_fatal0Bb_
FN:102,_RNCNvXs0_NtNtCs2gD7la8YEGu_3fvm6kernel5errorINtNtCslBoGNiFC398_4core6result6ResultINtNtBL_6option6OptionNtNtBb_10init_actor5StateENtCs5jS7vBTw6wt_6anyhow5ErrorENtB7_14ClassifyResult8or_fatal0Bb_
FN:129,_RNCINvXs1_NtNtCs2gD7la8YEGu_3fvm6kernel5errorINtNtCslBoGNiFC398_4core6result6ResultINtNtCs1EPKmBb5iMg_3cid3cid3CidKj40_ENtB8_14ExecutionErrorENtB8_7Context7contextReE0Bc_
FN:102,_RNCNvXs0_NtNtCs2gD7la8YEGu_3fvm6kernel5errorINtNtCslBoGNiFC398_4core6result6ResultNtNtBb_10state_tree10ActorStateNtCs5jS7vBTw6wt_6anyhow5ErrorENtB7_14ClassifyResult8or_fatal0Bb_
FN:102,_RNCNvXs0_NtNtCs2gD7la8YEGu_3fvm6kernel5errorINtNtCslBoGNiFC398_4core6result6ResultINtNtBL_6option6OptionNtNtBb_12system_actor5StateENtCs5jS7vBTw6wt_6anyhow5ErrorENtB7_14ClassifyResult8or_fatal0Bb_
FN:102,_RNCNvXs0_NtNtCs2gD7la8YEGu_3fvm6kernel5errorINtNtCslBoGNiFC398_4core6result6ResultINtNtBL_6option6OptionRyENtNtCs526lIuXzNtG_13fvm_ipld_hamt5error5ErrorENtB7_14ClassifyResult8or_fatal0Bb_
FN:102,_RNCNvXs0_NtNtCs2gD7la8YEGu_3fvm6kernel5errorINtNtCslBoGNiFC398_4core6result6ResultNtNtBb_10init_actor5StateNtCs5jS7vBTw6wt_6anyhow5ErrorENtB7_14ClassifyResult8or_fatal0Bb_
FN:102,_RNCNvXs0_NtNtCs2gD7la8YEGu_3fvm6kernel5errorINtNtCslBoGNiFC398_4core6result6ResultINtNtBL_6option6OptionRNtNtBb_10state_tree10ActorStateENtCs5jS7vBTw6wt_6anyhow5ErrorENtB7_14ClassifyResult8or_fatal0Bb_
FN:102,_RNCNvXs0_NtNtCs2gD7la8YEGu_3fvm6kernel5errorINtNtCslBoGNiFC398_4core6result6ResultINtNtCs526lIuXzNtG_13fvm_ipld_hamt4hamt4HamtRRNtNtCslbkBntY5hAO_19fvm_ipld_blockstore6memory16MemoryBlockstoreyENtNtB1n_5error5ErrorENtB7_14ClassifyResult8or_fatal0Bb_
FN:48,_RNvMNtNtCs2gD7la8YEGu_3fvm6kernel5errorNtB2_14ExecutionError8is_fatal
FN:98,_RNvXs0_NtNtCs5xYBAi2tWzh_3fvm6kernel5errorINtNtCslBoGNiFC398_4core6result6ResultuNtCs5jS7vBTw6wt_6anyhow5ErrorENtB5_14ClassifyResult8or_fatalCs4BSQmiRtlYl_3fvm
FN:98,_RNvXs0_NtNtCs5xYBAi2tWzh_3fvm6kernel5errorINtNtCslBoGNiFC398_4core6result6ResultINtNtBJ_6option6OptionNtNtB9_10state_tree10ActorStateENtNtCs526lIuXzNtG_13fvm_ipld_hamt5error5ErrorENtB5_14ClassifyResult8or_fatalCs4BSQmiRtlYl_3fvm
FN:98,_RNvXs0_NtNtCs5xYBAi2tWzh_3fvm6kernel5errorINtNtCslBoGNiFC398_4core6result6ResultINtNtBJ_6option6OptionTNtNtCsbZGvRFhD0mv_17forest_hash_utils3key8BytesKeyNtNtB9_10state_tree10ActorStateEENtNtCs526lIuXzNtG_13fvm_ipld_hamt5error5ErrorENtB5_14ClassifyResult8or_fatalCs4BSQmiRtlYl_3fvm
FN:98,_RNvXs0_NtNtCs5xYBAi2tWzh_3fvm6kernel5errorINtNtCslBoGNiFC398_4core6result6ResultINtNtCs1EPKmBb5iMg_3cid3cid3CidKj40_ENtCs5jS7vBTw6wt_6anyhow5ErrorENtB5_14ClassifyResult8or_fatalCs4BSQmiRtlYl_3fvm
FN:98,_RNvXs0_NtNtCs5xYBAi2tWzh_3fvm6kernel5errorINtNtCslBoGNiFC398_4core6result6ResultINtNtCs1EPKmBb5iMg_3cid3cid3CidKj40_ENtNtCs526lIuXzNtG_13fvm_ipld_hamt5error5ErrorENtB5_14ClassifyResult8or_fatalCs4BSQmiRtlYl_3fvm
FN:98,_RNvXs0_NtNtCs5xYBAi2tWzh_3fvm6kernel5errorINtNtCslBoGNiFC398_4core6result6ResultINtNtCs526lIuXzNtG_13fvm_ipld_hamt4hamt4HamtNtNtCslbkBntY5hAO_19fvm_ipld_blockstore6memory16MemoryBlockstoreNtNtB9_10state_tree10ActorStateENtCs5jS7vBTw6wt_6anyhow5ErrorENtB5_14ClassifyResult8or_fatalCs4BSQmiRtlYl_3fvm
FN:98,_RNvXs0_NtNtCs5xYBAi2tWzh_3fvm6kernel5errorINtNtCslBoGNiFC398_4core6result6ResultINtNtCsc0YPw4IdecV_5alloc3vec3VechENtCs5jS7vBTw6wt_6anyhow5ErrorENtB5_14ClassifyResult8or_fatalCs4BSQmiRtlYl_3fvm
FN:98,_RNvXs0_NtNtCs5xYBAi2tWzh_3fvm6kernel5errorINtNtCslBoGNiFC398_4core6result6ResultINtNtBJ_6option6OptionINtNtCsc0YPw4IdecV_5alloc3vec3VechEENtCs5jS7vBTw6wt_6anyhow5ErrorENtB5_14ClassifyResult8or_fatalCs4BSQmiRtlYl_3fvm
FN:102,_RNCNvXs0_NtNtCs5xYBAi2tWzh_3fvm6kernel5errorINtNtCslBoGNiFC398_4core6result6ResultuNtCs5jS7vBTw6wt_6anyhow5ErrorENtB7_14ClassifyResult8or_fatal0Cs4BSQmiRtlYl_3fvm
FN:102,_RNCNvXs0_NtNtCs5xYBAi2tWzh_3fvm6kernel5errorINtNtCslBoGNiFC398_4core6result6ResultINtNtCs1EPKmBb5iMg_3cid3cid3CidKj40_ENtCs5jS7vBTw6wt_6anyhow5ErrorENtB7_14ClassifyResult8or_fatal0Cs4BSQmiRtlYl_3fvm
FN:102,_RNCNvXs0_NtNtCs5xYBAi2tWzh_3fvm6kernel5errorINtNtCslBoGNiFC398_4core6result6ResultINtNtCs1EPKmBb5iMg_3cid3cid3CidKj40_ENtNtCs526lIuXzNtG_13fvm_ipld_hamt5error5ErrorENtB7_14ClassifyResult8or_fatal0Cs4BSQmiRtlYl_3fvm
FN:102,_RNCNvXs0_NtNtCs5xYBAi2tWzh_3fvm6kernel5errorINtNtCslBoGNiFC398_4core6result6ResultINtNtCs526lIuXzNtG_13fvm_ipld_hamt4hamt4HamtNtNtCslbkBntY5hAO_19fvm_ipld_blockstore6memory16MemoryBlockstoreNtNtBb_10state_tree10ActorStateENtCs5jS7vBTw6wt_6anyhow5ErrorENtB7_14ClassifyResult8or_fatal0Cs4BSQmiRtlYl_3fvm
FN:102,_RNCNvXs0_NtNtCs5xYBAi2tWzh_3fvm6kernel5errorINtNtCslBoGNiFC398_4core6result6ResultINtNtBL_6option6OptionTNtNtCsbZGvRFhD0mv_17forest_hash_utils3key8BytesKeyNtNtBb_10state_tree10ActorStateEENtNtCs526lIuXzNtG_13fvm_ipld_hamt5error5ErrorENtB7_14ClassifyResult8or_fatal0Cs4BSQmiRtlYl_3fvm
FN:102,_RNCNvXs0_NtNtCs5xYBAi2tWzh_3fvm6kernel5errorINtNtCslBoGNiFC398_4core6result6ResultINtNtBL_6option6OptionNtNtBb_10state_tree10ActorStateENtNtCs526lIuXzNtG_13fvm_ipld_hamt5error5ErrorENtB7_14ClassifyResult8or_fatal0Cs4BSQmiRtlYl_3fvm
FN:102,_RNCNvXs0_NtNtCs5xYBAi2tWzh_3fvm6kernel5errorINtNtCslBoGNiFC398_4core6result6ResultINtNtCsc0YPw4IdecV_5alloc3vec3VechENtCs5jS7vBTw6wt_6anyhow5ErrorENtB7_14ClassifyResult8or_fatal0Cs4BSQmiRtlYl_3fvm
FN:102,_RNCNvXs0_NtNtCs5xYBAi2tWzh_3fvm6kernel5errorINtNtCslBoGNiFC398_4core6result6ResultINtNtBL_6option6OptionINtNtCsc0YPw4IdecV_5alloc3vec3VechEENtCs5jS7vBTw6wt_6anyhow5ErrorENtB7_14ClassifyResult8or_fatal0Cs4BSQmiRtlYl_3fvm
FN:152,_RINvXs2_NtNtCs5xYBAi2tWzh_3fvm6kernel5errorNtB6_14ExecutionErrorNtB6_7Context12with_contextppEBa_
FN:132,_RINvXININtNtCs5xYBAi2tWzh_3fvm6kernel5errors1_0pEINtNtCslBoGNiFC398_4core6result6ResultpNtB6_14ExecutionErrorENtB6_7Context12with_contextppEBa_
FN:137,_RNCINvXININtNtCs5xYBAi2tWzh_3fvm6kernel5errors1_0pEINtNtCslBoGNiFC398_4core6result6ResultpNtB8_14ExecutionErrorENtB8_7Context12with_contextppE0Bc_
FN:178,_RNvXsa_NtNtCs5xYBAi2tWzh_3fvm6kernel5errorNtB5_12SyscallErrorNtNtCslBoGNiFC398_4core5clone5Clone5cloneB9_
FN:31,_RNvXs5_NtNtCs5xYBAi2tWzh_3fvm6kernel5errorNtB5_14ExecutionErrorNtNtCslBoGNiFC398_4core3fmt7Display3fmtB9_
FN:104,_RNvXs0_NtNtCs5xYBAi2tWzh_3fvm6kernel5errorINtNtCslBoGNiFC398_4core6result6ResultAhj20_NtCs5jS7vBTw6wt_6anyhow5ErrorENtB5_14ClassifyResult8or_errorB9_
FN:104,_RNvXs0_NtNtCs5xYBAi2tWzh_3fvm6kernel5errorINtNtCslBoGNiFC398_4core6result6ResultINtNtCsc0YPw4IdecV_5alloc3vec3VecNtNvNtB7_7default22verify_aggregate_seals17AggregationInputsEReENtB5_14ClassifyResult8or_errorB9_
FN:104,_RNvXs0_NtNtCs5xYBAi2tWzh_3fvm6kernel5errorINtNtCslBoGNiFC398_4core6result6ResultINtNtCsc0YPw4IdecV_5alloc3vec3VecTNtNtCs4HrOx9bgGLE_19filecoin_proofs_api8registry19RegisteredPoStProofRShEENtNtB1l_6string6StringENtB5_14ClassifyResult8or_errorB9_
FN:104,_RNvXs0_NtNtCs5xYBAi2tWzh_3fvm6kernel5errorINtNtCslBoGNiFC398_4core6result6ResultNtNtCsddgxxWw940P_10fvm_shared6sector10SectorSizeNtNtCsc0YPw4IdecV_5alloc6string6StringENtB5_14ClassifyResult8or_errorB9_
FN:104,_RNvXs0_NtNtCs5xYBAi2tWzh_3fvm6kernel5errorINtNtCslBoGNiFC398_4core6result6ResultNtNtCsddgxxWw940P_10fvm_shared7address7AddressNtNtB1i_6errors5ErrorENtB5_14ClassifyResult8or_errorB9_
FN:104,_RNvXs0_NtNtCs5xYBAi2tWzh_3fvm6kernel5errorINtNtCslBoGNiFC398_4core6result6ResultINtNtCs1EPKmBb5iMg_3cid3cid3CidKj40_EReENtB5_14ClassifyResult8or_errorB9_
FN:104,_RNvXs0_NtNtCs5xYBAi2tWzh_3fvm6kernel5errorINtNtCslBoGNiFC398_4core6result6ResultNtNtCs4HrOx9bgGLE_19filecoin_proofs_api8registry21RegisteredUpdateProofNtNtCsc0YPw4IdecV_5alloc6string6StringENtB5_14ClassifyResult8or_errorB9_
FN:86,_RNvYINtNtCslBoGNiFC398_4core6result6ResultAhj20_NtCs5jS7vBTw6wt_6anyhow5ErrorENtNtNtCs5xYBAi2tWzh_3fvm6kernel5error14ClassifyResult19or_illegal_argumentB1k_
FN:104,_RNvXs0_NtNtCs5xYBAi2tWzh_3fvm6kernel5errorINtNtCslBoGNiFC398_4core6result6ResultNtNtCs4HrOx9bgGLE_19filecoin_proofs_api8registry26RegisteredAggregationProofNtNtCsc0YPw4IdecV_5alloc6string6StringENtB5_14ClassifyResult8or_errorB9_
FN:98,_RNvXs0_NtNtCs5xYBAi2tWzh_3fvm6kernel5errorINtNtCslBoGNiFC398_4core6result6ResultNtNtB9_10state_tree14StateSnapLayerNtCs5jS7vBTw6wt_6anyhow5ErrorENtB5_14ClassifyResult8or_fatalB9_
FN:104,_RNvXs0_NtNtCs5xYBAi2tWzh_3fvm6kernel5errorINtNtCslBoGNiFC398_4core6result6ResultAhj20_ReENtB5_14ClassifyResult8or_errorB9_
FN:104,_RNvXs0_NtNtCs5xYBAi2tWzh_3fvm6kernel5errorINtNtCslBoGNiFC398_4core6result6ResultINtNtCsc0YPw4IdecV_5alloc3vec3VecIB1h_NtNtCs1qjQwrKvXYp_6blstrs6scalar6ScalarEENtCs5jS7vBTw6wt_6anyhow5ErrorENtB5_14ClassifyResult8or_errorB9_
FN:86,_RNvYINtNtCslBoGNiFC398_4core6result6ResultINtNtCs1EPKmBb5iMg_3cid3cid3CidKj40_EReENtNtNtCs5xYBAi2tWzh_3fvm6kernel5error14ClassifyResult19or_illegal_argumentB1o_
FN:86,_RNvYINtNtCslBoGNiFC398_4core6result6ResultINtNtCsc0YPw4IdecV_5alloc3vec3VecIBF_NtNtCs1qjQwrKvXYp_6blstrs6scalar6ScalarEENtCs5jS7vBTw6wt_6anyhow5ErrorENtNtNtCs5xYBAi2tWzh_3fvm6kernel5error14ClassifyResult19or_illegal_argumentB2u_
FN:86,_RNvYINtNtCslBoGNiFC398_4core6result6ResultNtNtCs4HrOx9bgGLE_19filecoin_proofs_api8registry21RegisteredUpdateProofNtNtCsc0YPw4IdecV_5alloc6string6StringENtNtNtCs5xYBAi2tWzh_3fvm6kernel5error14ClassifyResult19or_illegal_argumentB2w_
FN:98,_RNvXs0_NtNtCs5xYBAi2tWzh_3fvm6kernel5errorINtNtCslBoGNiFC398_4core6result6ResultRNtNtB9_10state_tree14StateSnapLayerNtCs5jS7vBTw6wt_6anyhow5ErrorENtB5_14ClassifyResult8or_fatalB9_
FN:104,_RNvXs0_NtNtCs5xYBAi2tWzh_3fvm6kernel5errorINtNtCslBoGNiFC398_4core6result6ResultINtNtNtNtCsc0YPw4IdecV_5alloc11collections5btree3map8BTreeMapNtNtCshiQDp53qxcF_19storage_proofs_core6sector8SectorIdNtNtCs4HrOx9bgGLE_19filecoin_proofs_api5types17PublicReplicaInfoENtNtB1p_6string6StringENtB5_14ClassifyResult8or_errorB9_
FN:128,_RINvXs1_NtNtCs5xYBAi2tWzh_3fvm6kernel5errorINtNtCslBoGNiFC398_4core6result6ResultINtNtCs1EPKmBb5iMg_3cid3cid3CidKj40_ENtB6_14ExecutionErrorENtB6_7Context7contextReEBa_
FN:86,_RNvYINtNtCslBoGNiFC398_4core6result6ResultINtNtNtNtCsc0YPw4IdecV_5alloc11collections5btree3map8BTreeMapNtNtCshiQDp53qxcF_19storage_proofs_core6sector8SectorIdNtNtCs4HrOx9bgGLE_19filecoin_proofs_api5types17PublicReplicaInfoENtNtBN_6string6StringENtNtNtCs5xYBAi2tWzh_3fvm6kernel5error14ClassifyResult19or_illegal_argumentB41_
FN:86,_RNvYINtNtCslBoGNiFC398_4core6result6ResultNtNtCs4HrOx9bgGLE_19filecoin_proofs_api8registry26RegisteredAggregationProofNtNtCsc0YPw4IdecV_5alloc6string6StringENtNtNtCs5xYBAi2tWzh_3fvm6kernel5error14ClassifyResult19or_illegal_argumentB2B_
FN:128,_RINvXs1_NtNtCs5xYBAi2tWzh_3fvm6kernel5errorINtNtCslBoGNiFC398_4core6result6ResultNtNtCs4HrOx9bgGLE_19filecoin_proofs_api8registry19RegisteredSealProofNtB6_14ExecutionErrorENtB6_7Context7contextNtNtBK_3fmt9ArgumentsEBa_
FN:104,_RNvXs0_NtNtCs5xYBAi2tWzh_3fvm6kernel5errorINtNtCslBoGNiFC398_4core6result6ResultRShNtNtCsc0YPw4IdecV_5alloc6string6StringENtB5_14ClassifyResult8or_errorB9_
FN:86,_RNvYINtNtCslBoGNiFC398_4core6result6ResultNtNtNtCssbhvXprhu3_15filecoin_proofs5types10piece_info9PieceInfoReENtNtNtCs5xYBAi2tWzh_3fvm6kernel5error14ClassifyResult19or_illegal_argumentB1P_
FN:104,_RNvXs0_NtNtCs5xYBAi2tWzh_3fvm6kernel5errorINtNtCslBoGNiFC398_4core6result6ResultINtNtCs1EPKmBb5iMg_3cid3cid3CidKj40_ENtNtB1l_5error5ErrorENtB5_14ClassifyResult8or_errorB9_
FN:104,_RNvXs0_NtNtCs5xYBAi2tWzh_3fvm6kernel5errorINtNtCslBoGNiFC398_4core6result6ResultNtNtCs4HrOx9bgGLE_19filecoin_proofs_api8registry19RegisteredSealProofNtNtCsc0YPw4IdecV_5alloc6string6StringENtB5_14ClassifyResult8or_errorB9_
FN:86,_RNvYINtNtCslBoGNiFC398_4core6result6ResultNtNtCs4HrOx9bgGLE_19filecoin_proofs_api8registry19RegisteredSealProofNtNtCsc0YPw4IdecV_5alloc6string6StringENtNtNtCs5xYBAi2tWzh_3fvm6kernel5error14ClassifyResult19or_illegal_argumentB2u_
FN:86,_RNvYINtNtCslBoGNiFC398_4core6result6ResultAhj20_ReENtNtNtCs5xYBAi2tWzh_3fvm6kernel5error14ClassifyResult19or_illegal_argumentBT_
FN:86,_RNvYINtNtCslBoGNiFC398_4core6result6ResultbNtCs5jS7vBTw6wt_6anyhow5ErrorENtNtNtCs5xYBAi2tWzh_3fvm6kernel5error14ClassifyResult19or_illegal_argumentB1f_
FN:104,_RNvXs0_NtNtCs5xYBAi2tWzh_3fvm6kernel5errorINtNtCslBoGNiFC398_4core6result6ResultQShNtNtCsc0YPw4IdecV_5alloc6string6StringENtB5_14ClassifyResult8or_errorB9_
FN:104,_RNvXs0_NtNtCs5xYBAi2tWzh_3fvm6kernel5errorINtNtCslBoGNiFC398_4core6result6ResultbNtCs5jS7vBTw6wt_6anyhow5ErrorENtB5_14ClassifyResult8or_errorB9_
FN:104,_RNvXs0_NtNtCs5xYBAi2tWzh_3fvm6kernel5errorINtNtCslBoGNiFC398_4core6result6ResultNtNtNtCssbhvXprhu3_15filecoin_proofs5types10piece_info9PieceInfoReENtB5_14ClassifyResult8or_errorB9_
FN:128,_RINvXs1_NtNtCs5xYBAi2tWzh_3fvm6kernel5errorINtNtCslBoGNiFC398_4core6result6ResultbNtB6_14ExecutionErrorENtB6_7Context7contextReEBa_
FN:86,_RNvYINtNtCslBoGNiFC398_4core6result6ResultINtNtCsc0YPw4IdecV_5alloc3vec3VecNtNvNtNtCs5xYBAi2tWzh_3fvm6kernel7default22verify_aggregate_seals17AggregationInputsEReENtNtB1h_5error14ClassifyResult19or_illegal_argumentB1j_
FN:86,_RNvYINtNtCslBoGNiFC398_4core6result6ResultINtNtCsc0YPw4IdecV_5alloc3vec3VecTNtNtCs4HrOx9bgGLE_19filecoin_proofs_api8registry19RegisteredPoStProofRShEENtNtBJ_6string6StringENtNtNtCs5xYBAi2tWzh_3fvm6kernel5error14ClassifyResult19or_illegal_argumentB2Q_
FN:86,_RNvYINtNtCslBoGNiFC398_4core6result6ResultNtNtCsddgxxWw940P_10fvm_shared6sector10SectorSizeNtNtCsc0YPw4IdecV_5alloc6string6StringENtNtNtCs5xYBAi2tWzh_3fvm6kernel5error14ClassifyResult19or_illegal_argumentB2a_
FN:163,_RNvXs3_NtNtCs5xYBAi2tWzh_3fvm6kernel5errorNtCs5jS7vBTw6wt_6anyhow5ErrorINtNtCslBoGNiFC398_4core7convert4FromNtB5_14ExecutionErrorE4from
FN:108,_RNCNvXs0_NtNtCs5xYBAi2tWzh_3fvm6kernel5errorINtNtCslBoGNiFC398_4core6result6ResultQShNtNtCsc0YPw4IdecV_5alloc6string6StringENtB7_14ClassifyResult8or_error0Bb_
FN:31,_RNvXs6_NtNtCs5xYBAi2tWzh_3fvm6kernel5errorNtB5_14ExecutionErrorNtNtCslBoGNiFC398_4core3fmt5Debug3fmt
FN:108,_RNCNvXs0_NtNtCs5xYBAi2tWzh_3fvm6kernel5errorINtNtCslBoGNiFC398_4core6result6ResultAhj20_ReENtB7_14ClassifyResult8or_error0Bb_
FN:178,_RNvXs8_NtNtCs5xYBAi2tWzh_3fvm6kernel5errorNtB5_12SyscallErrorNtNtCslBoGNiFC398_4core3fmt7Display3fmt
FN:108,_RNCNvXs0_NtNtCs5xYBAi2tWzh_3fvm6kernel5errorINtNtCslBoGNiFC398_4core6result6ResultNtNtNtCssbhvXprhu3_15filecoin_proofs5types10piece_info9PieceInfoReENtB7_14ClassifyResult8or_error0Bb_
FN:108,_RNCNvXs0_NtNtCs5xYBAi2tWzh_3fvm6kernel5errorINtNtCslBoGNiFC398_4core6result6ResultNtNtCsddgxxWw940P_10fvm_shared6sector10SectorSizeNtNtCsc0YPw4IdecV_5alloc6string6StringENtB7_14ClassifyResult8or_error0Bb_
FN:108,_RNCNvXs0_NtNtCs5xYBAi2tWzh_3fvm6kernel5errorINtNtCslBoGNiFC398_4core6result6ResultNtNtCsddgxxWw940P_10fvm_shared7address7AddressNtNtB1k_6errors5ErrorENtB7_14ClassifyResult8or_error0Bb_
FN:183,_RINvMs4_NtNtCs5xYBAi2tWzh_3fvm6kernel5errorNtB6_12SyscallError3newReEBa_
FN:108,_RNCNvXs0_NtNtCs5xYBAi2tWzh_3fvm6kernel5errorINtNtCslBoGNiFC398_4core6result6ResultINtNtCsc0YPw4IdecV_5alloc3vec3VecNtNvNtB9_7default22verify_aggregate_seals17AggregationInputsEReENtB7_14ClassifyResult8or_error0Bb_
FN:108,_RNCNvXs0_NtNtCs5xYBAi2tWzh_3fvm6kernel5errorINtNtCslBoGNiFC398_4core6result6ResultbNtCs5jS7vBTw6wt_6anyhow5ErrorENtB7_14ClassifyResult8or_error0Bb_
FN:102,_RNCNvXs0_NtNtCs5xYBAi2tWzh_3fvm6kernel5errorINtNtCslBoGNiFC398_4core6result6ResultRNtNtBb_10state_tree14StateSnapLayerNtCs5jS7vBTw6wt_6anyhow5ErrorENtB7_14ClassifyResult8or_fatal0Bb_
FN:143,_RINvXs2_NtNtCs5xYBAi2tWzh_3fvm6kernel5errorNtB6_14ExecutionErrorNtB6_7Context7contextNtNtCslBoGNiFC398_4core3fmt9ArgumentsEBa_
FN:58,_RNvMNtNtCs5xYBAi2tWzh_3fvm6kernel5errorNtB2_14ExecutionError14is_recoverable
FN:108,_RNCNvXs0_NtNtCs5xYBAi2tWzh_3fvm6kernel5errorINtNtCslBoGNiFC398_4core6result6ResultAhj20_NtCs5jS7vBTw6wt_6anyhow5ErrorENtB7_14ClassifyResult8or_error0Bb_
FN:108,_RNCNvXs0_NtNtCs5xYBAi2tWzh_3fvm6kernel5errorINtNtCslBoGNiFC398_4core6result6ResultINtNtCsc0YPw4IdecV_5alloc3vec3VecIB1j_NtNtCs1qjQwrKvXYp_6blstrs6scalar6ScalarEENtCs5jS7vBTw6wt_6anyhow5ErrorENtB7_14ClassifyResult8or_error0Bb_
FN:108,_RNCNvXs0_NtNtCs5xYBAi2tWzh_3fvm6kernel5errorINtNtCslBoGNiFC398_4core6result6ResultRShNtNtCsc0YPw4IdecV_5alloc6string6StringENtB7_14ClassifyResult8or_error0Bb_
FN:108,_RNCNvXs0_NtNtCs5xYBAi2tWzh_3fvm6kernel5errorINtNtCslBoGNiFC398_4core6result6ResultINtNtCs1EPKmBb5iMg_3cid3cid3CidKj40_ENtNtB1n_5error5ErrorENtB7_14ClassifyResult8or_error0Bb_
FN:108,_RNCNvXs0_NtNtCs5xYBAi2tWzh_3fvm6kernel5errorINtNtCslBoGNiFC398_4core6result6ResultINtNtNtNtCsc0YPw4IdecV_5alloc11collections5btree3map8BTreeMapNtNtCshiQDp53qxcF_19storage_proofs_core6sector8SectorIdNtNtCs4HrOx9bgGLE_19filecoin_proofs_api5types17PublicReplicaInfoENtNtB1r_6string6StringENtB7_14ClassifyResult8or_error0Bb_
FN:108,_RNCNvXs0_NtNtCs5xYBAi2tWzh_3fvm6kernel5errorINtNtCslBoGNiFC398_4core6result6ResultNtNtCs4HrOx9bgGLE_19filecoin_proofs_api8registry26RegisteredAggregationProofNtNtCsc0YPw4IdecV_5alloc6string6StringENtB7_14ClassifyResult8or_error0Bb_
FN:129,_RNCINvXs1_NtNtCs5xYBAi2tWzh_3fvm6kernel5errorINtNtCslBoGNiFC398_4core6result6ResultbNtB8_14ExecutionErrorENtB8_7Context7contextReE0Bc_
FN:129,_RNCINvXs1_NtNtCs5xYBAi2tWzh_3fvm6kernel5errorINtNtCslBoGNiFC398_4core6result6ResultINtNtCs1EPKmBb5iMg_3cid3cid3CidKj40_ENtB8_14ExecutionErrorENtB8_7Context7contextReE0Bc_
FN:178,_RNvXs9_NtNtCs5xYBAi2tWzh_3fvm6kernel5errorNtB5_12SyscallErrorNtNtCslBoGNiFC398_4core3fmt5Debug3fmt
FN:102,_RNCNvXs0_NtNtCs5xYBAi2tWzh_3fvm6kernel5errorINtNtCslBoGNiFC398_4core6result6ResultNtNtBb_10state_tree14StateSnapLayerNtCs5jS7vBTw6wt_6anyhow5ErrorENtB7_14ClassifyResult8or_fatal0Bb_
FN:108,_RNCNvXs0_NtNtCs5xYBAi2tWzh_3fvm6kernel5errorINtNtCslBoGNiFC398_4core6result6ResultINtNtCsc0YPw4IdecV_5alloc3vec3VecTNtNtCs4HrOx9bgGLE_19filecoin_proofs_api8registry19RegisteredPoStProofRShEENtNtB1n_6string6StringENtB7_14ClassifyResult8or_error0Bb_
FN:108,_RNCNvXs0_NtNtCs5xYBAi2tWzh_3fvm6kernel5errorINtNtCslBoGNiFC398_4core6result6ResultNtNtCs4HrOx9bgGLE_19filecoin_proofs_api8registry21RegisteredUpdateProofNtNtCsc0YPw4IdecV_5alloc6string6StringENtB7_14ClassifyResult8or_error0Bb_
FN:108,_RNCNvXs0_NtNtCs5xYBAi2tWzh_3fvm6kernel5errorINtNtCslBoGNiFC398_4core6result6ResultINtNtCs1EPKmBb5iMg_3cid3cid3CidKj40_EReENtB7_14ClassifyResult8or_error0Bb_
FN:129,_RNCINvXs1_NtNtCs5xYBAi2tWzh_3fvm6kernel5errorINtNtCslBoGNiFC398_4core6result6ResultNtNtCs4HrOx9bgGLE_19filecoin_proofs_api8registry19RegisteredSealProofNtB8_14ExecutionErrorENtB8_7Context7contextNtNtBM_3fmt9ArgumentsE0Bc_
FN:183,_RINvMs4_NtNtCs5xYBAi2tWzh_3fvm6kernel5errorNtB6_12SyscallError3newNtNtCslBoGNiFC398_4core3fmt9ArgumentsEBa_
FN:70,_RNvXs_NtNtCs5xYBAi2tWzh_3fvm6kernel5errorNtB4_14ExecutionErrorINtNtCslBoGNiFC398_4core7convert4FromNtB4_12SyscallErrorE4from
FN:108,_RNCNvXs0_NtNtCs5xYBAi2tWzh_3fvm6kernel5errorINtNtCslBoGNiFC398_4core6result6ResultNtNtCs4HrOx9bgGLE_19filecoin_proofs_api8registry19RegisteredSealProofNtNtCsc0YPw4IdecV_5alloc6string6StringENtB7_14ClassifyResult8or_error0Bb_
FN:143,_RINvXs2_NtNtCs5xYBAi2tWzh_3fvm6kernel5errorNtB6_14ExecutionErrorNtB6_7Context7contextReEBa_
FN:48,_RNvMNtNtCs5xYBAi2tWzh_3fvm6kernel5errorNtB2_14ExecutionError8is_fatal
FNDA:0,_RNCINvXININtNtCs2gD7la8YEGu_3fvm6kernel5errors1_0pEINtNtCslBoGNiFC398_4core6result6ResultpNtB8_14ExecutionErrorENtB8_7Context12with_contextppE0Bc_
FNDA:0,_RINvMs4_NtNtCs2gD7la8YEGu_3fvm6kernel5errorNtB6_12SyscallError3newpEBa_
FNDA:0,_RINvXs2_NtNtCs2gD7la8YEGu_3fvm6kernel5errorNtB6_14ExecutionErrorNtB6_7Context12with_contextppEBa_
FNDA:0,_RNvMNtNtCs2gD7la8YEGu_3fvm6kernel5errorNtB2_14ExecutionError14is_recoverable
FNDA:0,_RNvXsa_NtNtCs2gD7la8YEGu_3fvm6kernel5errorNtB5_12SyscallErrorNtNtCslBoGNiFC398_4core5clone5Clone5cloneB9_
FNDA:0,_RNvXs_NtNtCs2gD7la8YEGu_3fvm6kernel5errorNtB4_14ExecutionErrorINtNtCslBoGNiFC398_4core7convert4FromNtB4_12SyscallErrorE4from
FNDA:0,_RINvXININtNtCs2gD7la8YEGu_3fvm6kernel5errors1_0pEINtNtCslBoGNiFC398_4core6result6ResultpNtB6_14ExecutionErrorENtB6_7Context12with_contextppEBa_
FNDA:0,_RNvYpNtNtNtCs2gD7la8YEGu_3fvm6kernel5error14ClassifyResult19or_illegal_argumentB9_
FNDA:0,_RNvXs5_NtNtCs2gD7la8YEGu_3fvm6kernel5errorNtB5_14ExecutionErrorNtNtCslBoGNiFC398_4core3fmt7Display3fmtB9_
FNDA:0,_RNvXs8_NtNtCs2gD7la8YEGu_3fvm6kernel5errorNtB5_12SyscallErrorNtNtCslBoGNiFC398_4core3fmt7Display3fmt
FNDA:0,_RNvXs0_NtNtCs2gD7la8YEGu_3fvm6kernel5errorINtNtCslBoGNiFC398_4core6result6ResultNtNtB9_12system_actor5StateNtCs5jS7vBTw6wt_6anyhow5ErrorENtB5_14ClassifyResult8or_fatalB9_
FNDA:14,_RNvXs0_NtNtCs2gD7la8YEGu_3fvm6kernel5errorINtNtCslBoGNiFC398_4core6result6ResultRNtNtB9_10state_tree14StateSnapLayerNtCs5jS7vBTw6wt_6anyhow5ErrorENtB5_14ClassifyResult8or_fatalB9_
FNDA:0,_RNvXs0_NtNtCs2gD7la8YEGu_3fvm6kernel5errorINtNtCslBoGNiFC398_4core6result6ResultuNtCs5jS7vBTw6wt_6anyhow5ErrorENtB5_14ClassifyResult8or_fatalB9_
FNDA:6,_RNvXs0_NtNtCs2gD7la8YEGu_3fvm6kernel5errorINtNtCslBoGNiFC398_4core6result6ResultRShNtNtCsc0YPw4IdecV_5alloc6string6StringENtB5_14ClassifyResult8or_errorB9_
FNDA:10,_RNvXs0_NtNtCs2gD7la8YEGu_3fvm6kernel5errorINtNtCslBoGNiFC398_4core6result6ResultINtNtCs1EPKmBb5iMg_3cid3cid3CidKj40_ENtCs5jS7vBTw6wt_6anyhow5ErrorENtB5_14ClassifyResult8or_fatalB9_
FNDA:0,_RNvXs0_NtNtCs2gD7la8YEGu_3fvm6kernel5errorINtNtCslBoGNiFC398_4core6result6ResultINtNtBJ_6option6OptionRyENtNtCs526lIuXzNtG_13fvm_ipld_hamt5error5ErrorENtB5_14ClassifyResult8or_fatalB9_
FNDA:0,_RNvXs0_NtNtCs2gD7la8YEGu_3fvm6kernel5errorINtNtCslBoGNiFC398_4core6result6ResultINtNtBJ_6option6OptionTNtNtCsbZGvRFhD0mv_17forest_hash_utils3key8BytesKeyNtNtB9_10state_tree10ActorStateEENtNtCs526lIuXzNtG_13fvm_ipld_hamt5error5ErrorENtB5_14ClassifyResult8or_fatalB9_
FNDA:1,_RNvXs0_NtNtCs2gD7la8YEGu_3fvm6kernel5errorINtNtCslBoGNiFC398_4core6result6ResultINtNtCs526lIuXzNtG_13fvm_ipld_hamt4hamt4HamtINtNtNtB9_10blockstore8buffered18BufferedBlockstoreNtNtCslbkBntY5hAO_19fvm_ipld_blockstore6memory16MemoryBlockstoreENtNtB9_10state_tree10ActorStateENtCs5jS7vBTw6wt_6anyhow5ErrorENtB5_14ClassifyResult8or_fatalB9_
FNDA:1,_RNvXs0_NtNtCs2gD7la8YEGu_3fvm6kernel5errorINtNtCslBoGNiFC398_4core6result6ResultINtNtCs526lIuXzNtG_13fvm_ipld_hamt4hamt4HamtRRNtNtCslbkBntY5hAO_19fvm_ipld_blockstore6memory16MemoryBlockstoreyENtNtB1l_5error5ErrorENtB5_14ClassifyResult8or_fatalB9_
FNDA:1,_RNvXs0_NtNtCs2gD7la8YEGu_3fvm6kernel5errorINtNtCslBoGNiFC398_4core6result6ResultNtNtB9_10init_actor5StateNtCs5jS7vBTw6wt_6anyhow5ErrorENtB5_14ClassifyResult8or_fatalB9_
FNDA:0,_RNvXs0_NtNtCs2gD7la8YEGu_3fvm6kernel5errorINtNtCslBoGNiFC398_4core6result6ResultINtNtBJ_6option6OptionNtNtB9_12system_actor5StateENtCs5jS7vBTw6wt_6anyhow5ErrorENtB5_14ClassifyResult8or_fatalB9_
FNDA:11,_RNvXs0_NtNtCs2gD7la8YEGu_3fvm6kernel5errorINtNtCslBoGNiFC398_4core6result6ResultyNtCs5jS7vBTw6wt_6anyhow5ErrorENtB5_14ClassifyResult8or_fatalB9_
FNDA:2,_RNvXs0_NtNtCs2gD7la8YEGu_3fvm6kernel5errorINtNtCslBoGNiFC398_4core6result6ResultINtNtCs1EPKmBb5iMg_3cid3cid3CidKj40_ENtNtB1l_5error5ErrorENtB5_14ClassifyResult8or_errorB9_
FNDA:0,_RINvXs1_NtNtCs2gD7la8YEGu_3fvm6kernel5errorINtNtCslBoGNiFC398_4core6result6ResultINtNtBK_6option6OptionyENtB6_14ExecutionErrorENtB6_7Context7contextReEBa_
FNDA:2,_RINvXs1_NtNtCs2gD7la8YEGu_3fvm6kernel5errorINtNtCslBoGNiFC398_4core6result6ResultINtNtCs1EPKmBb5iMg_3cid3cid3CidKj40_ENtB6_14ExecutionErrorENtB6_7Context7contextReEBa_
FNDA:3,_RNvXs0_NtNtCs2gD7la8YEGu_3fvm6kernel5errorINtNtCslBoGNiFC398_4core6result6ResultINtNtBJ_6option6OptionNtNtB9_10state_tree10ActorStateENtNtCs526lIuXzNtG_13fvm_ipld_hamt5error5ErrorENtB5_14ClassifyResult8or_fatalB9_
FNDA:1,_RNvXs0_NtNtCs2gD7la8YEGu_3fvm6kernel5errorINtNtCslBoGNiFC398_4core6result6ResultINtNtBJ_6option6OptionNtNtB9_10init_actor5StateENtCs5jS7vBTw6wt_6anyhow5ErrorENtB5_14ClassifyResult8or_fatalB9_
FNDA:0,_RNvXs0_NtNtCs2gD7la8YEGu_3fvm6kernel5errorINtNtCslBoGNiFC398_4core6result6ResultINtNtBJ_6option6OptionyENtB5_14ExecutionErrorENtB5_14ClassifyResult8or_fatalB9_
FNDA:0,_RNvXs0_NtNtCs2gD7la8YEGu_3fvm6kernel5errorINtNtCslBoGNiFC398_4core6result6ResultINtNtCs526lIuXzNtG_13fvm_ipld_hamt4hamt4HamtRINtNtNtB9_10blockstore8buffered18BufferedBlockstoreNtNtCslbkBntY5hAO_19fvm_ipld_blockstore6memory16MemoryBlockstoreEyENtNtB1l_5error5ErrorENtB5_14ClassifyResult8or_fatalB9_
FNDA:1,_RNvXs0_NtNtCs2gD7la8YEGu_3fvm6kernel5errorINtNtCslBoGNiFC398_4core6result6ResultNtNtB9_10state_tree10ActorStateNtCs5jS7vBTw6wt_6anyhow5ErrorENtB5_14ClassifyResult8or_fatalB9_
FNDA:2,_RNvXs0_NtNtCs2gD7la8YEGu_3fvm6kernel5errorINtNtCslBoGNiFC398_4core6result6ResultNtNtB9_10state_tree14StateSnapLayerNtCs5jS7vBTw6wt_6anyhow5ErrorENtB5_14ClassifyResult8or_fatalB9_
FNDA:4,_RNvXs0_NtNtCs2gD7la8YEGu_3fvm6kernel5errorINtNtCslBoGNiFC398_4core6result6ResultINtNtCs1EPKmBb5iMg_3cid3cid3CidKj40_ENtNtCs526lIuXzNtG_13fvm_ipld_hamt5error5ErrorENtB5_14ClassifyResult8or_fatalB9_
FNDA:2,_RNvXs0_NtNtCs2gD7la8YEGu_3fvm6kernel5errorINtNtCslBoGNiFC398_4core6result6ResultINtNtBJ_6option6OptionRNtNtB9_10state_tree10ActorStateENtCs5jS7vBTw6wt_6anyhow5ErrorENtB5_14ClassifyResult8or_fatalB9_
FNDA:1,_RNvXs0_NtNtCs2gD7la8YEGu_3fvm6kernel5errorINtNtCslBoGNiFC398_4core6result6ResultINtNtBJ_6option6OptionyENtNtCs526lIuXzNtG_13fvm_ipld_hamt5error5ErrorENtB5_14ClassifyResult8or_fatalB9_
FNDA:0,_RNvXs3_NtNtCs2gD7la8YEGu_3fvm6kernel5errorNtCs5jS7vBTw6wt_6anyhow5ErrorINtNtCslBoGNiFC398_4core7convert4FromNtB5_14ExecutionErrorE4from
FNDA:1,_RINvXs2_NtNtCs2gD7la8YEGu_3fvm6kernel5errorNtB6_14ExecutionErrorNtB6_7Context7contextReEBa_
FNDA:0,_RNCNvXs0_NtNtCs2gD7la8YEGu_3fvm6kernel5errorINtNtCslBoGNiFC398_4core6result6ResultINtNtCs526lIuXzNtG_13fvm_ipld_hamt4hamt4HamtRINtNtNtBb_10blockstore8buffered18BufferedBlockstoreNtNtCslbkBntY5hAO_19fvm_ipld_blockstore6memory16MemoryBlockstoreEyENtNtB1n_5error5ErrorENtB7_14ClassifyResult8or_fatal0Bb_
FNDA:0,_RNCNvXs0_NtNtCs2gD7la8YEGu_3fvm6kernel5errorINtNtCslBoGNiFC398_4core6result6ResultNtNtBb_12system_actor5StateNtCs5jS7vBTw6wt_6anyhow5ErrorENtB7_14ClassifyResult8or_fatal0Bb_
FNDA:0,_RNCNvXs0_NtNtCs2gD7la8YEGu_3fvm6kernel5errorINtNtCslBoGNiFC398_4core6result6ResultINtNtBL_6option6OptionyENtNtCs526lIuXzNtG_13fvm_ipld_hamt5error5ErrorENtB7_14ClassifyResult8or_fatal0Bb_
FNDA:0,_RNCNvXs0_NtNtCs2gD7la8YEGu_3fvm6kernel5errorINtNtCslBoGNiFC398_4core6result6ResultNtNtBb_10state_tree14StateSnapLayerNtCs5jS7vBTw6wt_6anyhow5ErrorENtB7_14ClassifyResult8or_fatal0Bb_
FNDA:0,_RNCNvXs0_NtNtCs2gD7la8YEGu_3fvm6kernel5errorINtNtCslBoGNiFC398_4core6result6ResultuNtCs5jS7vBTw6wt_6anyhow5ErrorENtB7_14ClassifyResult8or_fatal0Bb_
FNDA:0,_RNCNvXs0_NtNtCs2gD7la8YEGu_3fvm6kernel5errorINtNtCslBoGNiFC398_4core6result6ResultINtNtBL_6option6OptionTNtNtCsbZGvRFhD0mv_17forest_hash_utils3key8BytesKeyNtNtBb_10state_tree10ActorStateEENtNtCs526lIuXzNtG_13fvm_ipld_hamt5error5ErrorENtB7_14ClassifyResult8or_fatal0Bb_
FNDA:0,_RNCNvXs0_NtNtCs2gD7la8YEGu_3fvm6kernel5errorINtNtCslBoGNiFC398_4core6result6ResultRNtNtBb_10state_tree14StateSnapLayerNtCs5jS7vBTw6wt_6anyhow5ErrorENtB7_14ClassifyResult8or_fatal0Bb_
FNDA:0,_RNCINvXs1_NtNtCs2gD7la8YEGu_3fvm6kernel5errorINtNtCslBoGNiFC398_4core6result6ResultINtNtBM_6option6OptionyENtB8_14ExecutionErrorENtB8_7Context7contextReE0Bc_
FNDA:0,_RNvXs9_NtNtCs2gD7la8YEGu_3fvm6kernel5errorNtB5_12SyscallErrorNtNtCslBoGNiFC398_4core3fmt5Debug3fmt
FNDA:0,_RNCNvXs0_NtNtCs2gD7la8YEGu_3fvm6kernel5errorINtNtCslBoGNiFC398_4core6result6ResultINtNtBL_6option6OptionNtNtBb_10state_tree10ActorStateENtNtCs526lIuXzNtG_13fvm_ipld_hamt5error5ErrorENtB7_14ClassifyResult8or_fatal0Bb_
FNDA:0,_RNCNvXs0_NtNtCs2gD7la8YEGu_3fvm6kernel5errorINtNtCslBoGNiFC398_4core6result6ResultyNtCs5jS7vBTw6wt_6anyhow5ErrorENtB7_14ClassifyResult8or_fatal0Bb_
FNDA:3,_RNCNvXs0_NtNtCs2gD7la8YEGu_3fvm6kernel5errorINtNtCslBoGNiFC398_4core6result6ResultRShNtNtCsc0YPw4IdecV_5alloc6string6StringENtB7_14ClassifyResult8or_error0Bb_
FNDA:0,_RNvXs6_NtNtCs2gD7la8YEGu_3fvm6kernel5errorNtB5_14ExecutionErrorNtNtCslBoGNiFC398_4core3fmt5Debug3fmt
FNDA:0,_RNCNvXs0_NtNtCs2gD7la8YEGu_3fvm6kernel5errorINtNtCslBoGNiFC398_4core6result6ResultINtNtCs1EPKmBb5iMg_3cid3cid3CidKj40_ENtNtCs526lIuXzNtG_13fvm_ipld_hamt5error5ErrorENtB7_14ClassifyResult8or_fatal0Bb_
FNDA:1,_RNCNvXs0_NtNtCs2gD7la8YEGu_3fvm6kernel5errorINtNtCslBoGNiFC398_4core6result6ResultINtNtCs1EPKmBb5iMg_3cid3cid3CidKj40_ENtNtB1n_5error5ErrorENtB7_14ClassifyResult8or_error0Bb_
FNDA:0,_RNCNvXs0_NtNtCs2gD7la8YEGu_3fvm6kernel5errorINtNtCslBoGNiFC398_4core6result6ResultINtNtBL_6option6OptionyENtB7_14ExecutionErrorENtB7_14ClassifyResult8or_fatal0Bb_
FNDA:0,_RNCNvXs0_NtNtCs2gD7la8YEGu_3fvm6kernel5errorINtNtCslBoGNiFC398_4core6result6ResultINtNtCs1EPKmBb5iMg_3cid3cid3CidKj40_ENtCs5jS7vBTw6wt_6anyhow5ErrorENtB7_14ClassifyResult8or_fatal0Bb_
FNDA:0,_RNCNvXs0_NtNtCs2gD7la8YEGu_3fvm6kernel5errorINtNtCslBoGNiFC398_4core6result6ResultINtNtCs526lIuXzNtG_13fvm_ipld_hamt4hamt4HamtINtNtNtBb_10blockstore8buffered18BufferedBlockstoreNtNtCslbkBntY5hAO_19fvm_ipld_blockstore6memory16MemoryBlockstoreENtNtBb_10state_tree10ActorStateENtCs5jS7vBTw6wt_6anyhow5ErrorENtB7_14ClassifyResult8or_fatal0Bb_
FNDA:0,_RNCNvXs0_NtNtCs2gD7la8YEGu_3fvm6kernel5errorINtNtCslBoGNiFC398_4core6result6ResultINtNtBL_6option6OptionNtNtBb_10init_actor5StateENtCs5jS7vBTw6wt_6anyhow5ErrorENtB7_14ClassifyResult8or_fatal0Bb_
FNDA:1,_RNCINvXs1_NtNtCs2gD7la8YEGu_3fvm6kernel5errorINtNtCslBoGNiFC398_4core6result6ResultINtNtCs1EPKmBb5iMg_3cid3cid3CidKj40_ENtB8_14ExecutionErrorENtB8_7Context7contextReE0Bc_
FNDA:0,_RNCNvXs0_NtNtCs2gD7la8YEGu_3fvm6kernel5errorINtNtCslBoGNiFC398_4core6result6ResultNtNtBb_10state_tree10ActorStateNtCs5jS7vBTw6wt_6anyhow5ErrorENtB7_14ClassifyResult8or_fatal0Bb_
FNDA:0,_RNCNvXs0_NtNtCs2gD7la8YEGu_3fvm6kernel5errorINtNtCslBoGNiFC398_4core6result6ResultINtNtBL_6option6OptionNtNtBb_12system_actor5StateENtCs5jS7vBTw6wt_6anyhow5ErrorENtB7_14ClassifyResult8or_fatal0Bb_
FNDA:0,_RNCNvXs0_NtNtCs2gD7la8YEGu_3fvm6kernel5errorINtNtCslBoGNiFC398_4core6result6ResultINtNtBL_6option6OptionRyENtNtCs526lIuXzNtG_13fvm_ipld_hamt5error5ErrorENtB7_14ClassifyResult8or_fatal0Bb_
FNDA:0,_RNCNvXs0_NtNtCs2gD7la8YEGu_3fvm6kernel5errorINtNtCslBoGNiFC398_4core6result6ResultNtNtBb_10init_actor5StateNtCs5jS7vBTw6wt_6anyhow5ErrorENtB7_14ClassifyResult8or_fatal0Bb_
FNDA:0,_RNCNvXs0_NtNtCs2gD7la8YEGu_3fvm6kernel5errorINtNtCslBoGNiFC398_4core6result6ResultINtNtBL_6option6OptionRNtNtBb_10state_tree10ActorStateENtCs5jS7vBTw6wt_6anyhow5ErrorENtB7_14ClassifyResult8or_fatal0Bb_
FNDA:0,_RNCNvXs0_NtNtCs2gD7la8YEGu_3fvm6kernel5errorINtNtCslBoGNiFC398_4core6result6ResultINtNtCs526lIuXzNtG_13fvm_ipld_hamt4hamt4HamtRRNtNtCslbkBntY5hAO_19fvm_ipld_blockstore6memory16MemoryBlockstoreyENtNtB1n_5error5ErrorENtB7_14ClassifyResult8or_fatal0Bb_
FNDA:3,_RNvMNtNtCs2gD7la8YEGu_3fvm6kernel5errorNtB2_14ExecutionError8is_fatal
FNDA:4,_RNvXs0_NtNtCs5xYBAi2tWzh_3fvm6kernel5errorINtNtCslBoGNiFC398_4core6result6ResultuNtCs5jS7vBTw6wt_6anyhow5ErrorENtB5_14ClassifyResult8or_fatalCs4BSQmiRtlYl_3fvm
FNDA:0,_RNvXs0_NtNtCs5xYBAi2tWzh_3fvm6kernel5errorINtNtCslBoGNiFC398_4core6result6ResultINtNtBJ_6option6OptionNtNtB9_10state_tree10ActorStateENtNtCs526lIuXzNtG_13fvm_ipld_hamt5error5ErrorENtB5_14ClassifyResult8or_fatalCs4BSQmiRtlYl_3fvm
FNDA:0,_RNvXs0_NtNtCs5xYBAi2tWzh_3fvm6kernel5errorINtNtCslBoGNiFC398_4core6result6ResultINtNtBJ_6option6OptionTNtNtCsbZGvRFhD0mv_17forest_hash_utils3key8BytesKeyNtNtB9_10state_tree10ActorStateEENtNtCs526lIuXzNtG_13fvm_ipld_hamt5error5ErrorENtB5_14ClassifyResult8or_fatalCs4BSQmiRtlYl_3fvm
FNDA:36,_RNvXs0_NtNtCs5xYBAi2tWzh_3fvm6kernel5errorINtNtCslBoGNiFC398_4core6result6ResultINtNtCs1EPKmBb5iMg_3cid3cid3CidKj40_ENtCs5jS7vBTw6wt_6anyhow5ErrorENtB5_14ClassifyResult8or_fatalCs4BSQmiRtlYl_3fvm
FNDA:18,_RNvXs0_NtNtCs5xYBAi2tWzh_3fvm6kernel5errorINtNtCslBoGNiFC398_4core6result6ResultINtNtCs1EPKmBb5iMg_3cid3cid3CidKj40_ENtNtCs526lIuXzNtG_13fvm_ipld_hamt5error5ErrorENtB5_14ClassifyResult8or_fatalCs4BSQmiRtlYl_3fvm
FNDA:18,_RNvXs0_NtNtCs5xYBAi2tWzh_3fvm6kernel5errorINtNtCslBoGNiFC398_4core6result6ResultINtNtCs526lIuXzNtG_13fvm_ipld_hamt4hamt4HamtNtNtCslbkBntY5hAO_19fvm_ipld_blockstore6memory16MemoryBlockstoreNtNtB9_10state_tree10ActorStateENtCs5jS7vBTw6wt_6anyhow5ErrorENtB5_14ClassifyResult8or_fatalCs4BSQmiRtlYl_3fvm
FNDA:1,_RNvXs0_NtNtCs5xYBAi2tWzh_3fvm6kernel5errorINtNtCslBoGNiFC398_4core6result6ResultINtNtCsc0YPw4IdecV_5alloc3vec3VechENtCs5jS7vBTw6wt_6anyhow5ErrorENtB5_14ClassifyResult8or_fatalCs4BSQmiRtlYl_3fvm
FNDA:1,_RNvXs0_NtNtCs5xYBAi2tWzh_3fvm6kernel5errorINtNtCslBoGNiFC398_4core6result6ResultINtNtBJ_6option6OptionINtNtCsc0YPw4IdecV_5alloc3vec3VechEENtCs5jS7vBTw6wt_6anyhow5ErrorENtB5_14ClassifyResult8or_fatalCs4BSQmiRtlYl_3fvm
FNDA:0,_RNCNvXs0_NtNtCs5xYBAi2tWzh_3fvm6kernel5errorINtNtCslBoGNiFC398_4core6result6ResultuNtCs5jS7vBTw6wt_6anyhow5ErrorENtB7_14ClassifyResult8or_fatal0Cs4BSQmiRtlYl_3fvm
FNDA:0,_RNCNvXs0_NtNtCs5xYBAi2tWzh_3fvm6kernel5errorINtNtCslBoGNiFC398_4core6result6ResultINtNtCs1EPKmBb5iMg_3cid3cid3CidKj40_ENtCs5jS7vBTw6wt_6anyhow5ErrorENtB7_14ClassifyResult8or_fatal0Cs4BSQmiRtlYl_3fvm
FNDA:0,_RNCNvXs0_NtNtCs5xYBAi2tWzh_3fvm6kernel5errorINtNtCslBoGNiFC398_4core6result6ResultINtNtCs1EPKmBb5iMg_3cid3cid3CidKj40_ENtNtCs526lIuXzNtG_13fvm_ipld_hamt5error5ErrorENtB7_14ClassifyResult8or_fatal0Cs4BSQmiRtlYl_3fvm
FNDA:0,_RNCNvXs0_NtNtCs5xYBAi2tWzh_3fvm6kernel5errorINtNtCslBoGNiFC398_4core6result6ResultINtNtCs526lIuXzNtG_13fvm_ipld_hamt4hamt4HamtNtNtCslbkBntY5hAO_19fvm_ipld_blockstore6memory16MemoryBlockstoreNtNtBb_10state_tree10ActorStateENtCs5jS7vBTw6wt_6anyhow5ErrorENtB7_14ClassifyResult8or_fatal0Cs4BSQmiRtlYl_3fvm
FNDA:0,_RNCNvXs0_NtNtCs5xYBAi2tWzh_3fvm6kernel5errorINtNtCslBoGNiFC398_4core6result6ResultINtNtBL_6option6OptionTNtNtCsbZGvRFhD0mv_17forest_hash_utils3key8BytesKeyNtNtBb_10state_tree10ActorStateEENtNtCs526lIuXzNtG_13fvm_ipld_hamt5error5ErrorENtB7_14ClassifyResult8or_fatal0Cs4BSQmiRtlYl_3fvm
FNDA:0,_RNCNvXs0_NtNtCs5xYBAi2tWzh_3fvm6kernel5errorINtNtCslBoGNiFC398_4core6result6ResultINtNtBL_6option6OptionNtNtBb_10state_tree10ActorStateENtNtCs526lIuXzNtG_13fvm_ipld_hamt5error5ErrorENtB7_14ClassifyResult8or_fatal0Cs4BSQmiRtlYl_3fvm
FNDA:0,_RNCNvXs0_NtNtCs5xYBAi2tWzh_3fvm6kernel5errorINtNtCslBoGNiFC398_4core6result6ResultINtNtCsc0YPw4IdecV_5alloc3vec3VechENtCs5jS7vBTw6wt_6anyhow5ErrorENtB7_14ClassifyResult8or_fatal0Cs4BSQmiRtlYl_3fvm
FNDA:0,_RNCNvXs0_NtNtCs5xYBAi2tWzh_3fvm6kernel5errorINtNtCslBoGNiFC398_4core6result6ResultINtNtBL_6option6OptionINtNtCsc0YPw4IdecV_5alloc3vec3VechEENtCs5jS7vBTw6wt_6anyhow5ErrorENtB7_14ClassifyResult8or_fatal0Cs4BSQmiRtlYl_3fvm
FNDA:0,_RINvXs2_NtNtCs5xYBAi2tWzh_3fvm6kernel5errorNtB6_14ExecutionErrorNtB6_7Context12with_contextppEBa_
FNDA:0,_RINvXININtNtCs5xYBAi2tWzh_3fvm6kernel5errors1_0pEINtNtCslBoGNiFC398_4core6result6ResultpNtB6_14ExecutionErrorENtB6_7Context12with_contextppEBa_
FNDA:0,_RNCINvXININtNtCs5xYBAi2tWzh_3fvm6kernel5errors1_0pEINtNtCslBoGNiFC398_4core6result6ResultpNtB8_14ExecutionErrorENtB8_7Context12with_contextppE0Bc_
FNDA:0,_RNvXsa_NtNtCs5xYBAi2tWzh_3fvm6kernel5errorNtB5_12SyscallErrorNtNtCslBoGNiFC398_4core5clone5Clone5cloneB9_
FNDA:0,_RNvXs5_NtNtCs5xYBAi2tWzh_3fvm6kernel5errorNtB5_14ExecutionErrorNtNtCslBoGNiFC398_4core3fmt7Display3fmtB9_
FNDA:0,_RNvXs0_NtNtCs5xYBAi2tWzh_3fvm6kernel5errorINtNtCslBoGNiFC398_4core6result6ResultAhj20_NtCs5jS7vBTw6wt_6anyhow5ErrorENtB5_14ClassifyResult8or_errorB9_
FNDA:0,_RNvXs0_NtNtCs5xYBAi2tWzh_3fvm6kernel5errorINtNtCslBoGNiFC398_4core6result6ResultINtNtCsc0YPw4IdecV_5alloc3vec3VecNtNvNtB7_7default22verify_aggregate_seals17AggregationInputsEReENtB5_14ClassifyResult8or_errorB9_
FNDA:0,_RNvXs0_NtNtCs5xYBAi2tWzh_3fvm6kernel5errorINtNtCslBoGNiFC398_4core6result6ResultINtNtCsc0YPw4IdecV_5alloc3vec3VecTNtNtCs4HrOx9bgGLE_19filecoin_proofs_api8registry19RegisteredPoStProofRShEENtNtB1l_6string6StringENtB5_14ClassifyResult8or_errorB9_
FNDA:0,_RNvXs0_NtNtCs5xYBAi2tWzh_3fvm6kernel5errorINtNtCslBoGNiFC398_4core6result6ResultNtNtCsddgxxWw940P_10fvm_shared6sector10SectorSizeNtNtCsc0YPw4IdecV_5alloc6string6StringENtB5_14ClassifyResult8or_errorB9_
FNDA:0,_RNvXs0_NtNtCs5xYBAi2tWzh_3fvm6kernel5errorINtNtCslBoGNiFC398_4core6result6ResultNtNtCsddgxxWw940P_10fvm_shared7address7AddressNtNtB1i_6errors5ErrorENtB5_14ClassifyResult8or_errorB9_
FNDA:0,_RNvXs0_NtNtCs5xYBAi2tWzh_3fvm6kernel5errorINtNtCslBoGNiFC398_4core6result6ResultINtNtCs1EPKmBb5iMg_3cid3cid3CidKj40_EReENtB5_14ClassifyResult8or_errorB9_
FNDA:0,_RNvXs0_NtNtCs5xYBAi2tWzh_3fvm6kernel5errorINtNtCslBoGNiFC398_4core6result6ResultNtNtCs4HrOx9bgGLE_19filecoin_proofs_api8registry21RegisteredUpdateProofNtNtCsc0YPw4IdecV_5alloc6string6StringENtB5_14ClassifyResult8or_errorB9_
FNDA:0,_RNvYINtNtCslBoGNiFC398_4core6result6ResultAhj20_NtCs5jS7vBTw6wt_6anyhow5ErrorENtNtNtCs5xYBAi2tWzh_3fvm6kernel5error14ClassifyResult19or_illegal_argumentB1k_
FNDA:0,_RNvXs0_NtNtCs5xYBAi2tWzh_3fvm6kernel5errorINtNtCslBoGNiFC398_4core6result6ResultNtNtCs4HrOx9bgGLE_19filecoin_proofs_api8registry26RegisteredAggregationProofNtNtCsc0YPw4IdecV_5alloc6string6StringENtB5_14ClassifyResult8or_errorB9_
FNDA:0,_RNvXs0_NtNtCs5xYBAi2tWzh_3fvm6kernel5errorINtNtCslBoGNiFC398_4core6result6ResultNtNtB9_10state_tree14StateSnapLayerNtCs5jS7vBTw6wt_6anyhow5ErrorENtB5_14ClassifyResult8or_fatalB9_
FNDA:0,_RNvXs0_NtNtCs5xYBAi2tWzh_3fvm6kernel5errorINtNtCslBoGNiFC398_4core6result6ResultAhj20_ReENtB5_14ClassifyResult8or_errorB9_
FNDA:0,_RNvXs0_NtNtCs5xYBAi2tWzh_3fvm6kernel5errorINtNtCslBoGNiFC398_4core6result6ResultINtNtCsc0YPw4IdecV_5alloc3vec3VecIB1h_NtNtCs1qjQwrKvXYp_6blstrs6scalar6ScalarEENtCs5jS7vBTw6wt_6anyhow5ErrorENtB5_14ClassifyResult8or_errorB9_
FNDA:0,_RNvYINtNtCslBoGNiFC398_4core6result6ResultINtNtCs1EPKmBb5iMg_3cid3cid3CidKj40_EReENtNtNtCs5xYBAi2tWzh_3fvm6kernel5error14ClassifyResult19or_illegal_argumentB1o_
FNDA:0,_RNvYINtNtCslBoGNiFC398_4core6result6ResultINtNtCsc0YPw4IdecV_5alloc3vec3VecIBF_NtNtCs1qjQwrKvXYp_6blstrs6scalar6ScalarEENtCs5jS7vBTw6wt_6anyhow5ErrorENtNtNtCs5xYBAi2tWzh_3fvm6kernel5error14ClassifyResult19or_illegal_argumentB2u_
FNDA:0,_RNvYINtNtCslBoGNiFC398_4core6result6ResultNtNtCs4HrOx9bgGLE_19filecoin_proofs_api8registry21RegisteredUpdateProofNtNtCsc0YPw4IdecV_5alloc6string6StringENtNtNtCs5xYBAi2tWzh_3fvm6kernel5error14ClassifyResult19or_illegal_argumentB2w_
FNDA:0,_RNvXs0_NtNtCs5xYBAi2tWzh_3fvm6kernel5errorINtNtCslBoGNiFC398_4core6result6ResultRNtNtB9_10state_tree14StateSnapLayerNtCs5jS7vBTw6wt_6anyhow5ErrorENtB5_14ClassifyResult8or_fatalB9_
FNDA:0,_RNvXs0_NtNtCs5xYBAi2tWzh_3fvm6kernel5errorINtNtCslBoGNiFC398_4core6result6ResultINtNtNtNtCsc0YPw4IdecV_5alloc11collections5btree3map8BTreeMapNtNtCshiQDp53qxcF_19storage_proofs_core6sector8SectorIdNtNtCs4HrOx9bgGLE_19filecoin_proofs_api5types17PublicReplicaInfoENtNtB1p_6string6StringENtB5_14ClassifyResult8or_errorB9_
FNDA:0,_RINvXs1_NtNtCs5xYBAi2tWzh_3fvm6kernel5errorINtNtCslBoGNiFC398_4core6result6ResultINtNtCs1EPKmBb5iMg_3cid3cid3CidKj40_ENtB6_14ExecutionErrorENtB6_7Context7contextReEBa_
FNDA:0,_RNvYINtNtCslBoGNiFC398_4core6result6ResultINtNtNtNtCsc0YPw4IdecV_5alloc11collections5btree3map8BTreeMapNtNtCshiQDp53qxcF_19storage_proofs_core6sector8SectorIdNtNtCs4HrOx9bgGLE_19filecoin_proofs_api5types17PublicReplicaInfoENtNtBN_6string6StringENtNtNtCs5xYBAi2tWzh_3fvm6kernel5error14ClassifyResult19or_illegal_argumentB41_
FNDA:0,_RNvYINtNtCslBoGNiFC398_4core6result6ResultNtNtCs4HrOx9bgGLE_19filecoin_proofs_api8registry26RegisteredAggregationProofNtNtCsc0YPw4IdecV_5alloc6string6StringENtNtNtCs5xYBAi2tWzh_3fvm6kernel5error14ClassifyResult19or_illegal_argumentB2B_
FNDA:0,_RINvXs1_NtNtCs5xYBAi2tWzh_3fvm6kernel5errorINtNtCslBoGNiFC398_4core6result6ResultNtNtCs4HrOx9bgGLE_19filecoin_proofs_api8registry19RegisteredSealProofNtB6_14ExecutionErrorENtB6_7Context7contextNtNtBK_3fmt9ArgumentsEBa_
FNDA:0,_RNvXs0_NtNtCs5xYBAi2tWzh_3fvm6kernel5errorINtNtCslBoGNiFC398_4core6result6ResultRShNtNtCsc0YPw4IdecV_5alloc6string6StringENtB5_14ClassifyResult8or_errorB9_
FNDA:0,_RNvYINtNtCslBoGNiFC398_4core6result6ResultNtNtNtCssbhvXprhu3_15filecoin_proofs5types10piece_info9PieceInfoReENtNtNtCs5xYBAi2tWzh_3fvm6kernel5error14ClassifyResult19or_illegal_argumentB1P_
FNDA:0,_RNvXs0_NtNtCs5xYBAi2tWzh_3fvm6kernel5errorINtNtCslBoGNiFC398_4core6result6ResultINtNtCs1EPKmBb5iMg_3cid3cid3CidKj40_ENtNtB1l_5error5ErrorENtB5_14ClassifyResult8or_errorB9_
FNDA:0,_RNvXs0_NtNtCs5xYBAi2tWzh_3fvm6kernel5errorINtNtCslBoGNiFC398_4core6result6ResultNtNtCs4HrOx9bgGLE_19filecoin_proofs_api8registry19RegisteredSealProofNtNtCsc0YPw4IdecV_5alloc6string6StringENtB5_14ClassifyResult8or_errorB9_
FNDA:0,_RNvYINtNtCslBoGNiFC398_4core6result6ResultNtNtCs4HrOx9bgGLE_19filecoin_proofs_api8registry19RegisteredSealProofNtNtCsc0YPw4IdecV_5alloc6string6StringENtNtNtCs5xYBAi2tWzh_3fvm6kernel5error14ClassifyResult19or_illegal_argumentB2u_
FNDA:0,_RNvYINtNtCslBoGNiFC398_4core6result6ResultAhj20_ReENtNtNtCs5xYBAi2tWzh_3fvm6kernel5error14ClassifyResult19or_illegal_argumentBT_
FNDA:0,_RNvYINtNtCslBoGNiFC398_4core6result6ResultbNtCs5jS7vBTw6wt_6anyhow5ErrorENtNtNtCs5xYBAi2tWzh_3fvm6kernel5error14ClassifyResult19or_illegal_argumentB1f_
FNDA:0,_RNvXs0_NtNtCs5xYBAi2tWzh_3fvm6kernel5errorINtNtCslBoGNiFC398_4core6result6ResultQShNtNtCsc0YPw4IdecV_5alloc6string6StringENtB5_14ClassifyResult8or_errorB9_
FNDA:0,_RNvXs0_NtNtCs5xYBAi2tWzh_3fvm6kernel5errorINtNtCslBoGNiFC398_4core6result6ResultbNtCs5jS7vBTw6wt_6anyhow5ErrorENtB5_14ClassifyResult8or_errorB9_
FNDA:0,_RNvXs0_NtNtCs5xYBAi2tWzh_3fvm6kernel5errorINtNtCslBoGNiFC398_4core6result6ResultNtNtNtCssbhvXprhu3_15filecoin_proofs5types10piece_info9PieceInfoReENtB5_14ClassifyResult8or_errorB9_
FNDA:0,_RINvXs1_NtNtCs5xYBAi2tWzh_3fvm6kernel5errorINtNtCslBoGNiFC398_4core6result6ResultbNtB6_14ExecutionErrorENtB6_7Context7contextReEBa_
FNDA:0,_RNvYINtNtCslBoGNiFC398_4core6result6ResultINtNtCsc0YPw4IdecV_5alloc3vec3VecNtNvNtNtCs5xYBAi2tWzh_3fvm6kernel7default22verify_aggregate_seals17AggregationInputsEReENtNtB1h_5error14ClassifyResult19or_illegal_argumentB1j_
FNDA:0,_RNvYINtNtCslBoGNiFC398_4core6result6ResultINtNtCsc0YPw4IdecV_5alloc3vec3VecTNtNtCs4HrOx9bgGLE_19filecoin_proofs_api8registry19RegisteredPoStProofRShEENtNtBJ_6string6StringENtNtNtCs5xYBAi2tWzh_3fvm6kernel5error14ClassifyResult19or_illegal_argumentB2Q_
FNDA:0,_RNvYINtNtCslBoGNiFC398_4core6result6ResultNtNtCsddgxxWw940P_10fvm_shared6sector10SectorSizeNtNtCsc0YPw4IdecV_5alloc6string6StringENtNtNtCs5xYBAi2tWzh_3fvm6kernel5error14ClassifyResult19or_illegal_argumentB2a_
FNDA:0,_RNvXs3_NtNtCs5xYBAi2tWzh_3fvm6kernel5errorNtCs5jS7vBTw6wt_6anyhow5ErrorINtNtCslBoGNiFC398_4core7convert4FromNtB5_14ExecutionErrorE4from
FNDA:0,_RNCNvXs0_NtNtCs5xYBAi2tWzh_3fvm6kernel5errorINtNtCslBoGNiFC398_4core6result6ResultQShNtNtCsc0YPw4IdecV_5alloc6string6StringENtB7_14ClassifyResult8or_error0Bb_
FNDA:0,_RNvXs6_NtNtCs5xYBAi2tWzh_3fvm6kernel5errorNtB5_14ExecutionErrorNtNtCslBoGNiFC398_4core3fmt5Debug3fmt
FNDA:0,_RNCNvXs0_NtNtCs5xYBAi2tWzh_3fvm6kernel5errorINtNtCslBoGNiFC398_4core6result6ResultAhj20_ReENtB7_14ClassifyResult8or_error0Bb_
FNDA:0,_RNvXs8_NtNtCs5xYBAi2tWzh_3fvm6kernel5errorNtB5_12SyscallErrorNtNtCslBoGNiFC398_4core3fmt7Display3fmt
FNDA:0,_RNCNvXs0_NtNtCs5xYBAi2tWzh_3fvm6kernel5errorINtNtCslBoGNiFC398_4core6result6ResultNtNtNtCssbhvXprhu3_15filecoin_proofs5types10piece_info9PieceInfoReENtB7_14ClassifyResult8or_error0Bb_
FNDA:0,_RNCNvXs0_NtNtCs5xYBAi2tWzh_3fvm6kernel5errorINtNtCslBoGNiFC398_4core6result6ResultNtNtCsddgxxWw940P_10fvm_shared6sector10SectorSizeNtNtCsc0YPw4IdecV_5alloc6string6StringENtB7_14ClassifyResult8or_error0Bb_
FNDA:0,_RNCNvXs0_NtNtCs5xYBAi2tWzh_3fvm6kernel5errorINtNtCslBoGNiFC398_4core6result6ResultNtNtCsddgxxWw940P_10fvm_shared7address7AddressNtNtB1k_6errors5ErrorENtB7_14ClassifyResult8or_error0Bb_
FNDA:4,_RINvMs4_NtNtCs5xYBAi2tWzh_3fvm6kernel5errorNtB6_12SyscallError3newReEBa_
FNDA:0,_RNCNvXs0_NtNtCs5xYBAi2tWzh_3fvm6kernel5errorINtNtCslBoGNiFC398_4core6result6ResultINtNtCsc0YPw4IdecV_5alloc3vec3VecNtNvNtB9_7default22verify_aggregate_seals17AggregationInputsEReENtB7_14ClassifyResult8or_error0Bb_
FNDA:0,_RNCNvXs0_NtNtCs5xYBAi2tWzh_3fvm6kernel5errorINtNtCslBoGNiFC398_4core6result6ResultbNtCs5jS7vBTw6wt_6anyhow5ErrorENtB7_14ClassifyResult8or_error0Bb_
FNDA:0,_RNCNvXs0_NtNtCs5xYBAi2tWzh_3fvm6kernel5errorINtNtCslBoGNiFC398_4core6result6ResultRNtNtBb_10state_tree14StateSnapLayerNtCs5jS7vBTw6wt_6anyhow5ErrorENtB7_14ClassifyResult8or_fatal0Bb_
FNDA:0,_RINvXs2_NtNtCs5xYBAi2tWzh_3fvm6kernel5errorNtB6_14ExecutionErrorNtB6_7Context7contextNtNtCslBoGNiFC398_4core3fmt9ArgumentsEBa_
FNDA:0,_RNvMNtNtCs5xYBAi2tWzh_3fvm6kernel5errorNtB2_14ExecutionError14is_recoverable
FNDA:0,_RNCNvXs0_NtNtCs5xYBAi2tWzh_3fvm6kernel5errorINtNtCslBoGNiFC398_4core6result6ResultAhj20_NtCs5jS7vBTw6wt_6anyhow5ErrorENtB7_14ClassifyResult8or_error0Bb_
FNDA:0,_RNCNvXs0_NtNtCs5xYBAi2tWzh_3fvm6kernel5errorINtNtCslBoGNiFC398_4core6result6ResultINtNtCsc0YPw4IdecV_5alloc3vec3VecIB1j_NtNtCs1qjQwrKvXYp_6blstrs6scalar6ScalarEENtCs5jS7vBTw6wt_6anyhow5ErrorENtB7_14ClassifyResult8or_error0Bb_
FNDA:0,_RNCNvXs0_NtNtCs5xYBAi2tWzh_3fvm6kernel5errorINtNtCslBoGNiFC398_4core6result6ResultRShNtNtCsc0YPw4IdecV_5alloc6string6StringENtB7_14ClassifyResult8or_error0Bb_
FNDA:0,_RNCNvXs0_NtNtCs5xYBAi2tWzh_3fvm6kernel5errorINtNtCslBoGNiFC398_4core6result6ResultINtNtCs1EPKmBb5iMg_3cid3cid3CidKj40_ENtNtB1n_5error5ErrorENtB7_14ClassifyResult8or_error0Bb_
FNDA:0,_RNCNvXs0_NtNtCs5xYBAi2tWzh_3fvm6kernel5errorINtNtCslBoGNiFC398_4core6result6ResultINtNtNtNtCsc0YPw4IdecV_5alloc11collections5btree3map8BTreeMapNtNtCshiQDp53qxcF_19storage_proofs_core6sector8SectorIdNtNtCs4HrOx9bgGLE_19filecoin_proofs_api5types17PublicReplicaInfoENtNtB1r_6string6StringENtB7_14ClassifyResult8or_error0Bb_
FNDA:0,_RNCNvXs0_NtNtCs5xYBAi2tWzh_3fvm6kernel5errorINtNtCslBoGNiFC398_4core6result6ResultNtNtCs4HrOx9bgGLE_19filecoin_proofs_api8registry26RegisteredAggregationProofNtNtCsc0YPw4IdecV_5alloc6string6StringENtB7_14ClassifyResult8or_error0Bb_
FNDA:0,_RNCINvXs1_NtNtCs5xYBAi2tWzh_3fvm6kernel5errorINtNtCslBoGNiFC398_4core6result6ResultbNtB8_14ExecutionErrorENtB8_7Context7contextReE0Bc_
FNDA:0,_RNCINvXs1_NtNtCs5xYBAi2tWzh_3fvm6kernel5errorINtNtCslBoGNiFC398_4core6result6ResultINtNtCs1EPKmBb5iMg_3cid3cid3CidKj40_ENtB8_14ExecutionErrorENtB8_7Context7contextReE0Bc_
FNDA:0,_RNvXs9_NtNtCs5xYBAi2tWzh_3fvm6kernel5errorNtB5_12SyscallErrorNtNtCslBoGNiFC398_4core3fmt5Debug3fmt
FNDA:0,_RNCNvXs0_NtNtCs5xYBAi2tWzh_3fvm6kernel5errorINtNtCslBoGNiFC398_4core6result6ResultNtNtBb_10state_tree14StateSnapLayerNtCs5jS7vBTw6wt_6anyhow5ErrorENtB7_14ClassifyResult8or_fatal0Bb_
FNDA:0,_RNCNvXs0_NtNtCs5xYBAi2tWzh_3fvm6kernel5errorINtNtCslBoGNiFC398_4core6result6ResultINtNtCsc0YPw4IdecV_5alloc3vec3VecTNtNtCs4HrOx9bgGLE_19filecoin_proofs_api8registry19RegisteredPoStProofRShEENtNtB1n_6string6StringENtB7_14ClassifyResult8or_error0Bb_
FNDA:0,_RNCNvXs0_NtNtCs5xYBAi2tWzh_3fvm6kernel5errorINtNtCslBoGNiFC398_4core6result6ResultNtNtCs4HrOx9bgGLE_19filecoin_proofs_api8registry21RegisteredUpdateProofNtNtCsc0YPw4IdecV_5alloc6string6StringENtB7_14ClassifyResult8or_error0Bb_
FNDA:0,_RNCNvXs0_NtNtCs5xYBAi2tWzh_3fvm6kernel5errorINtNtCslBoGNiFC398_4core6result6ResultINtNtCs1EPKmBb5iMg_3cid3cid3CidKj40_EReENtB7_14ClassifyResult8or_error0Bb_
FNDA:0,_RNCINvXs1_NtNtCs5xYBAi2tWzh_3fvm6kernel5errorINtNtCslBoGNiFC398_4core6result6ResultNtNtCs4HrOx9bgGLE_19filecoin_proofs_api8registry19RegisteredSealProofNtB8_14ExecutionErrorENtB8_7Context7contextNtNtBM_3fmt9ArgumentsE0Bc_
FNDA:9,_RINvMs4_NtNtCs5xYBAi2tWzh_3fvm6kernel5errorNtB6_12SyscallError3newNtNtCslBoGNiFC398_4core3fmt9ArgumentsEBa_
FNDA:4,_RNvXs_NtNtCs5xYBAi2tWzh_3fvm6kernel5errorNtB4_14ExecutionErrorINtNtCslBoGNiFC398_4core7convert4FromNtB4_12SyscallErrorE4from
FNDA:0,_RNCNvXs0_NtNtCs5xYBAi2tWzh_3fvm6kernel5errorINtNtCslBoGNiFC398_4core6result6ResultNtNtCs4HrOx9bgGLE_19filecoin_proofs_api8registry19RegisteredSealProofNtNtCsc0YPw4IdecV_5alloc6string6StringENtB7_14ClassifyResult8or_error0Bb_
FNDA:0,_RINvXs2_NtNtCs5xYBAi2tWzh_3fvm6kernel5errorNtB6_14ExecutionErrorNtB6_7Context7contextReEBa_
FNDA:0,_RNvMNtNtCs5xYBAi2tWzh_3fvm6kernel5errorNtB2_14ExecutionError8is_fatal
FNF:21
FNH:9
DA:31,0
DA:48,3
DA:49,3
DA:50,3
DA:51,3
DA:52,0
DA:54,3
DA:58,0
DA:59,0
DA:60,0
DA:61,0
DA:62,0
DA:64,0
DA:70,4
DA:71,4
DA:72,4
DA:86,0
DA:87,0
DA:88,0
DA:89,0
DA:90,0
DA:91,0
DA:98,130
DA:99,130
DA:100,130
DA:101,130
DA:102,130
DA:103,130
DA:104,8
DA:105,8
DA:106,8
DA:107,8
DA:108,8
DA:109,8
DA:128,2
DA:129,2
DA:130,2
DA:132,0
DA:133,0
DA:134,0
DA:135,0
DA:136,0
DA:137,0
DA:138,0
DA:143,1
DA:144,1
DA:145,1
DA:146,1
DA:147,0
DA:148,0
DA:150,1
DA:152,0
DA:153,0
DA:154,0
DA:155,0
DA:156,0
DA:157,0
DA:158,0
DA:163,0
DA:164,0
DA:165,0
DA:166,0
DA:167,0
DA:168,0
DA:170,0
DA:178,0
DA:183,13
DA:184,13
DA:185,13
BRF:0
BRH:0
LF:76
LH:33
end_of_record
SF:/home/mriise/Projects/ref-fvm/fvm/src/lib.rs
FN:80,_RNvXs_NtCs2gD7la8YEGu_3fvm4testNtB4_12DummyExternsNtNtB6_7externs4Rand21get_beacon_randomness
FN:91,_RNvXs0_NtCs2gD7la8YEGu_3fvm4testNtB5_12DummyExternsNtNtB7_7externs9Consensus22verify_consensus_fault
FN:71,_RNvXs_NtCs2gD7la8YEGu_3fvm4testNtB4_12DummyExternsNtNtB6_7externs4Rand20get_chain_randomness
FN:103,_RNvNtCs2gD7la8YEGu_3fvm4tests_16test_constructor
FN:102,_RNCNvNtCs2gD7la8YEGu_3fvm4test16test_constructor0B5_
FN:1,_RNvCs2gD7la8YEGu_3fvm4main
FNDA:0,_RNvXs_NtCs2gD7la8YEGu_3fvm4testNtB4_12DummyExternsNtNtB6_7externs4Rand21get_beacon_randomness
FNDA:0,_RNvXs0_NtCs2gD7la8YEGu_3fvm4testNtB5_12DummyExternsNtNtB7_7externs9Consensus22verify_consensus_fault
FNDA:0,_RNvXs_NtCs2gD7la8YEGu_3fvm4testNtB4_12DummyExternsNtNtB6_7externs4Rand20get_chain_randomness
FNDA:1,_RNvNtCs2gD7la8YEGu_3fvm4tests_16test_constructor
FNDA:1,_RNCNvNtCs2gD7la8YEGu_3fvm4test16test_constructor0B5_
FNDA:1,_RNvCs2gD7la8YEGu_3fvm4main
FNF:6
FNH:3
DA:1,1
DA:71,0
DA:72,0
DA:73,0
DA:74,0
DA:75,0
DA:76,0
DA:77,0
DA:78,0
DA:80,0
DA:81,0
DA:82,0
DA:83,0
DA:84,0
DA:85,0
DA:86,0
DA:87,0
DA:91,0
DA:92,0
DA:93,0
DA:94,0
DA:95,0
DA:96,0
DA:97,0
DA:98,0
DA:99,0
DA:102,1
DA:103,1
DA:104,1
DA:105,1
DA:106,1
DA:107,1
DA:108,1
DA:109,1
DA:110,1
DA:111,1
DA:112,1
DA:113,1
DA:114,1
DA:115,1
DA:116,1
DA:117,1
DA:118,1
DA:119,1
DA:120,1
DA:121,1
DA:122,1
DA:123,1
DA:124,1
DA:125,1
DA:126,1
DA:127,1
DA:128,1
DA:129,1
DA:130,1
DA:131,1
BRF:0
BRH:0
LF:56
LH:31
end_of_record
SF:/home/mriise/Projects/ref-fvm/fvm/src/machine/boxed.rs
FN:23,_RNvXININtNtCs2gD7la8YEGu_3fvm7machine5boxed0pEINtNtCsc0YPw4IdecV_5alloc5boxed3BoxpENtB7_7Machine10blockstoreB9_
FN:63,_RNvXININtNtCs2gD7la8YEGu_3fvm7machine5boxed0pEINtNtCsc0YPw4IdecV_5alloc5boxed3BoxpENtB7_7Machine10into_storeB9_
FN:68,_RNvXININtNtCs2gD7la8YEGu_3fvm7machine5boxed0pEINtNtCsc0YPw4IdecV_5alloc5boxed3BoxpENtB7_7Machine5flushB9_
FN:33,_RNvXININtNtCs2gD7la8YEGu_3fvm7machine5boxed0pEINtNtCsc0YPw4IdecV_5alloc5boxed3BoxpENtB7_7Machine7externsB9_
FN:38,_RNvXININtNtCs2gD7la8YEGu_3fvm7machine5boxed0pEINtNtCsc0YPw4IdecV_5alloc5boxed3BoxpENtB7_7Machine14builtin_actorsB9_
FN:43,_RNvXININtNtCs2gD7la8YEGu_3fvm7machine5boxed0pEINtNtCsc0YPw4IdecV_5alloc5boxed3BoxpENtB7_7Machine10state_treeB9_
FN:58,_RNvXININtNtCs2gD7la8YEGu_3fvm7machine5boxed0pEINtNtCsc0YPw4IdecV_5alloc5boxed3BoxpENtB7_7Machine8transferB9_
FN:28,_RNvXININtNtCs2gD7la8YEGu_3fvm7machine5boxed0pEINtNtCsc0YPw4IdecV_5alloc5boxed3BoxpENtB7_7Machine7contextB9_
FN:48,_RNvXININtNtCs2gD7la8YEGu_3fvm7machine5boxed0pEINtNtCsc0YPw4IdecV_5alloc5boxed3BoxpENtB7_7Machine14state_tree_mutB9_
FN:53,_RNvXININtNtCs2gD7la8YEGu_3fvm7machine5boxed0pEINtNtCsc0YPw4IdecV_5alloc5boxed3BoxpENtB7_7Machine12create_actorB9_
FN:18,_RNvXININtNtCs2gD7la8YEGu_3fvm7machine5boxed0pEINtNtCsc0YPw4IdecV_5alloc5boxed3BoxpENtB7_7Machine6engineB9_
FN:33,_RNvXININtNtCs5xYBAi2tWzh_3fvm7machine5boxed0pEINtNtCsc0YPw4IdecV_5alloc5boxed3BoxpENtB7_7Machine7externsB9_
FN:58,_RNvXININtNtCs5xYBAi2tWzh_3fvm7machine5boxed0pEINtNtCsc0YPw4IdecV_5alloc5boxed3BoxpENtB7_7Machine8transferB9_
FN:18,_RNvXININtNtCs5xYBAi2tWzh_3fvm7machine5boxed0pEINtNtCsc0YPw4IdecV_5alloc5boxed3BoxpENtB7_7Machine6engineB9_
FN:68,_RNvXININtNtCs5xYBAi2tWzh_3fvm7machine5boxed0pEINtNtCsc0YPw4IdecV_5alloc5boxed3BoxpENtB7_7Machine5flushB9_
FN:53,_RNvXININtNtCs5xYBAi2tWzh_3fvm7machine5boxed0pEINtNtCsc0YPw4IdecV_5alloc5boxed3BoxpENtB7_7Machine12create_actorB9_
FN:48,_RNvXININtNtCs5xYBAi2tWzh_3fvm7machine5boxed0pEINtNtCsc0YPw4IdecV_5alloc5boxed3BoxpENtB7_7Machine14state_tree_mutB9_
FN:28,_RNvXININtNtCs5xYBAi2tWzh_3fvm7machine5boxed0pEINtNtCsc0YPw4IdecV_5alloc5boxed3BoxpENtB7_7Machine7contextB9_
FN:23,_RNvXININtNtCs5xYBAi2tWzh_3fvm7machine5boxed0pEINtNtCsc0YPw4IdecV_5alloc5boxed3BoxpENtB7_7Machine10blockstoreB9_
FN:43,_RNvXININtNtCs5xYBAi2tWzh_3fvm7machine5boxed0pEINtNtCsc0YPw4IdecV_5alloc5boxed3BoxpENtB7_7Machine10state_treeB9_
FN:63,_RNvXININtNtCs5xYBAi2tWzh_3fvm7machine5boxed0pEINtNtCsc0YPw4IdecV_5alloc5boxed3BoxpENtB7_7Machine10into_storeB9_
FN:38,_RNvXININtNtCs5xYBAi2tWzh_3fvm7machine5boxed0pEINtNtCsc0YPw4IdecV_5alloc5boxed3BoxpENtB7_7Machine14builtin_actorsB9_
FNDA:0,_RNvXININtNtCs2gD7la8YEGu_3fvm7machine5boxed0pEINtNtCsc0YPw4IdecV_5alloc5boxed3BoxpENtB7_7Machine10blockstoreB9_
FNDA:0,_RNvXININtNtCs2gD7la8YEGu_3fvm7machine5boxed0pEINtNtCsc0YPw4IdecV_5alloc5boxed3BoxpENtB7_7Machine10into_storeB9_
FNDA:0,_RNvXININtNtCs2gD7la8YEGu_3fvm7machine5boxed0pEINtNtCsc0YPw4IdecV_5alloc5boxed3BoxpENtB7_7Machine5flushB9_
FNDA:0,_RNvXININtNtCs2gD7la8YEGu_3fvm7machine5boxed0pEINtNtCsc0YPw4IdecV_5alloc5boxed3BoxpENtB7_7Machine7externsB9_
FNDA:0,_RNvXININtNtCs2gD7la8YEGu_3fvm7machine5boxed0pEINtNtCsc0YPw4IdecV_5alloc5boxed3BoxpENtB7_7Machine14builtin_actorsB9_
FNDA:0,_RNvXININtNtCs2gD7la8YEGu_3fvm7machine5boxed0pEINtNtCsc0YPw4IdecV_5alloc5boxed3BoxpENtB7_7Machine10state_treeB9_
FNDA:0,_RNvXININtNtCs2gD7la8YEGu_3fvm7machine5boxed0pEINtNtCsc0YPw4IdecV_5alloc5boxed3BoxpENtB7_7Machine8transferB9_
FNDA:0,_RNvXININtNtCs2gD7la8YEGu_3fvm7machine5boxed0pEINtNtCsc0YPw4IdecV_5alloc5boxed3BoxpENtB7_7Machine7contextB9_
FNDA:0,_RNvXININtNtCs2gD7la8YEGu_3fvm7machine5boxed0pEINtNtCsc0YPw4IdecV_5alloc5boxed3BoxpENtB7_7Machine14state_tree_mutB9_
FNDA:0,_RNvXININtNtCs2gD7la8YEGu_3fvm7machine5boxed0pEINtNtCsc0YPw4IdecV_5alloc5boxed3BoxpENtB7_7Machine12create_actorB9_
FNDA:0,_RNvXININtNtCs2gD7la8YEGu_3fvm7machine5boxed0pEINtNtCsc0YPw4IdecV_5alloc5boxed3BoxpENtB7_7Machine6engineB9_
FNDA:0,_RNvXININtNtCs5xYBAi2tWzh_3fvm7machine5boxed0pEINtNtCsc0YPw4IdecV_5alloc5boxed3BoxpENtB7_7Machine7externsB9_
FNDA:0,_RNvXININtNtCs5xYBAi2tWzh_3fvm7machine5boxed0pEINtNtCsc0YPw4IdecV_5alloc5boxed3BoxpENtB7_7Machine8transferB9_
FNDA:0,_RNvXININtNtCs5xYBAi2tWzh_3fvm7machine5boxed0pEINtNtCsc0YPw4IdecV_5alloc5boxed3BoxpENtB7_7Machine6engineB9_
FNDA:0,_RNvXININtNtCs5xYBAi2tWzh_3fvm7machine5boxed0pEINtNtCsc0YPw4IdecV_5alloc5boxed3BoxpENtB7_7Machine5flushB9_
FNDA:0,_RNvXININtNtCs5xYBAi2tWzh_3fvm7machine5boxed0pEINtNtCsc0YPw4IdecV_5alloc5boxed3BoxpENtB7_7Machine12create_actorB9_
FNDA:0,_RNvXININtNtCs5xYBAi2tWzh_3fvm7machine5boxed0pEINtNtCsc0YPw4IdecV_5alloc5boxed3BoxpENtB7_7Machine14state_tree_mutB9_
FNDA:0,_RNvXININtNtCs5xYBAi2tWzh_3fvm7machine5boxed0pEINtNtCsc0YPw4IdecV_5alloc5boxed3BoxpENtB7_7Machine7contextB9_
FNDA:0,_RNvXININtNtCs5xYBAi2tWzh_3fvm7machine5boxed0pEINtNtCsc0YPw4IdecV_5alloc5boxed3BoxpENtB7_7Machine10blockstoreB9_
FNDA:0,_RNvXININtNtCs5xYBAi2tWzh_3fvm7machine5boxed0pEINtNtCsc0YPw4IdecV_5alloc5boxed3BoxpENtB7_7Machine10state_treeB9_
FNDA:0,_RNvXININtNtCs5xYBAi2tWzh_3fvm7machine5boxed0pEINtNtCsc0YPw4IdecV_5alloc5boxed3BoxpENtB7_7Machine10into_storeB9_
FNDA:0,_RNvXININtNtCs5xYBAi2tWzh_3fvm7machine5boxed0pEINtNtCsc0YPw4IdecV_5alloc5boxed3BoxpENtB7_7Machine14builtin_actorsB9_
FNF:11
FNH:0
DA:18,0
DA:19,0
DA:20,0
DA:23,0
DA:24,0
DA:25,0
DA:28,0
DA:29,0
DA:30,0
DA:33,0
DA:34,0
DA:35,0
DA:38,0
DA:39,0
DA:40,0
DA:43,0
DA:44,0
DA:45,0
DA:48,0
DA:49,0
DA:50,0
DA:53,0
DA:54,0
DA:55,0
DA:58,0
DA:59,0
DA:60,0
DA:63,0
DA:64,0
DA:65,0
DA:68,0
DA:69,0
DA:70,0
BRF:0
BRH:0
LF:33
LH:0
end_of_record
SF:/home/mriise/Projects/ref-fvm/fvm/src/machine/default.rs
FN:142,_RNvXININtNtCs2gD7la8YEGu_3fvm7machine7defaults_0ppEINtB5_14DefaultMachineppENtB7_7Machine10blockstoreB9_
FN:146,_RNvXININtNtCs2gD7la8YEGu_3fvm7machine7defaults_0ppEINtB5_14DefaultMachineppENtB7_7Machine7contextB9_
FN:171,_RNvXININtNtCs2gD7la8YEGu_3fvm7machine7defaults_0ppEINtB5_14DefaultMachineppENtB7_7Machine5flushB9_
FN:178,_RNvXININtNtCs2gD7la8YEGu_3fvm7machine7defaults_0ppEINtB5_14DefaultMachineppENtB7_7Machine12create_actorB9_
FN:162,_RNvXININtNtCs2gD7la8YEGu_3fvm7machine7defaults_0ppEINtB5_14DefaultMachineppENtB7_7Machine14state_tree_mutB9_
FN:158,_RNvXININtNtCs2gD7la8YEGu_3fvm7machine7defaults_0ppEINtB5_14DefaultMachineppENtB7_7Machine10state_treeB9_
FN:150,_RNvXININtNtCs2gD7la8YEGu_3fvm7machine7defaults_0ppEINtB5_14DefaultMachineppENtB7_7Machine7externsB9_
FN:234,_RNvXININtNtCs2gD7la8YEGu_3fvm7machine7defaults_0ppEINtB5_14DefaultMachineppENtB7_7Machine10into_storeB9_
FN:138,_RNvXININtNtCs2gD7la8YEGu_3fvm7machine7defaults_0ppEINtB5_14DefaultMachineppENtB7_7Machine6engineB9_
FN:154,_RNvXININtNtCs2gD7la8YEGu_3fvm7machine7defaults_0ppEINtB5_14DefaultMachineppENtB7_7Machine14builtin_actorsB9_
FN:193,_RNvXININtNtCs2gD7la8YEGu_3fvm7machine7defaults_0ppEINtB5_14DefaultMachineppENtB7_7Machine8transferB9_
FN:56,_RNvMNtNtCs2gD7la8YEGu_3fvm7machine7defaultINtB2_14DefaultMachineNtNtCslbkBntY5hAO_19fvm_ipld_blockstore6memory16MemoryBlockstoreNtNtB6_4test12DummyExternsE3newB6_
FN:158,_RNvXININtNtCs5xYBAi2tWzh_3fvm7machine7defaults_0ppEINtB5_14DefaultMachineppENtB7_7Machine10state_treeB9_
FN:178,_RNvXININtNtCs5xYBAi2tWzh_3fvm7machine7defaults_0ppEINtB5_14DefaultMachineppENtB7_7Machine12create_actorB9_
FN:171,_RNvXININtNtCs5xYBAi2tWzh_3fvm7machine7defaults_0ppEINtB5_14DefaultMachineppENtB7_7Machine5flushB9_
FN:154,_RNvXININtNtCs5xYBAi2tWzh_3fvm7machine7defaults_0ppEINtB5_14DefaultMachineppENtB7_7Machine14builtin_actorsB9_
FN:193,_RNvXININtNtCs5xYBAi2tWzh_3fvm7machine7defaults_0ppEINtB5_14DefaultMachineppENtB7_7Machine8transferB9_
FN:138,_RNvXININtNtCs5xYBAi2tWzh_3fvm7machine7defaults_0ppEINtB5_14DefaultMachineppENtB7_7Machine6engineB9_
FN:142,_RNvXININtNtCs5xYBAi2tWzh_3fvm7machine7defaults_0ppEINtB5_14DefaultMachineppENtB7_7Machine10blockstoreB9_
FN:150,_RNvXININtNtCs5xYBAi2tWzh_3fvm7machine7defaults_0ppEINtB5_14DefaultMachineppENtB7_7Machine7externsB9_
FN:146,_RNvXININtNtCs5xYBAi2tWzh_3fvm7machine7defaults_0ppEINtB5_14DefaultMachineppENtB7_7Machine7contextB9_
FN:162,_RNvXININtNtCs5xYBAi2tWzh_3fvm7machine7defaults_0ppEINtB5_14DefaultMachineppENtB7_7Machine14state_tree_mutB9_
FN:234,_RNvXININtNtCs5xYBAi2tWzh_3fvm7machine7defaults_0ppEINtB5_14DefaultMachineppENtB7_7Machine10into_storeB9_
FN:56,_RNvMNtNtCs5xYBAi2tWzh_3fvm7machine7defaultINtB2_14DefaultMachineppE3newB6_
FNDA:0,_RNvXININtNtCs2gD7la8YEGu_3fvm7machine7defaults_0ppEINtB5_14DefaultMachineppENtB7_7Machine10blockstoreB9_
FNDA:0,_RNvXININtNtCs2gD7la8YEGu_3fvm7machine7defaults_0ppEINtB5_14DefaultMachineppENtB7_7Machine7contextB9_
FNDA:0,_RNvXININtNtCs2gD7la8YEGu_3fvm7machine7defaults_0ppEINtB5_14DefaultMachineppENtB7_7Machine5flushB9_
FNDA:0,_RNvXININtNtCs2gD7la8YEGu_3fvm7machine7defaults_0ppEINtB5_14DefaultMachineppENtB7_7Machine12create_actorB9_
FNDA:0,_RNvXININtNtCs2gD7la8YEGu_3fvm7machine7defaults_0ppEINtB5_14DefaultMachineppENtB7_7Machine14state_tree_mutB9_
FNDA:0,_RNvXININtNtCs2gD7la8YEGu_3fvm7machine7defaults_0ppEINtB5_14DefaultMachineppENtB7_7Machine10state_treeB9_
FNDA:0,_RNvXININtNtCs2gD7la8YEGu_3fvm7machine7defaults_0ppEINtB5_14DefaultMachineppENtB7_7Machine7externsB9_
FNDA:0,_RNvXININtNtCs2gD7la8YEGu_3fvm7machine7defaults_0ppEINtB5_14DefaultMachineppENtB7_7Machine10into_storeB9_
FNDA:0,_RNvXININtNtCs2gD7la8YEGu_3fvm7machine7defaults_0ppEINtB5_14DefaultMachineppENtB7_7Machine6engineB9_
FNDA:0,_RNvXININtNtCs2gD7la8YEGu_3fvm7machine7defaults_0ppEINtB5_14DefaultMachineppENtB7_7Machine14builtin_actorsB9_
FNDA:0,_RNvXININtNtCs2gD7la8YEGu_3fvm7machine7defaults_0ppEINtB5_14DefaultMachineppENtB7_7Machine8transferB9_
FNDA:1,_RNvMNtNtCs2gD7la8YEGu_3fvm7machine7defaultINtB2_14DefaultMachineNtNtCslbkBntY5hAO_19fvm_ipld_blockstore6memory16MemoryBlockstoreNtNtB6_4test12DummyExternsE3newB6_
FNDA:0,_RNvXININtNtCs5xYBAi2tWzh_3fvm7machine7defaults_0ppEINtB5_14DefaultMachineppENtB7_7Machine10state_treeB9_
FNDA:0,_RNvXININtNtCs5xYBAi2tWzh_3fvm7machine7defaults_0ppEINtB5_14DefaultMachineppENtB7_7Machine12create_actorB9_
FNDA:0,_RNvXININtNtCs5xYBAi2tWzh_3fvm7machine7defaults_0ppEINtB5_14DefaultMachineppENtB7_7Machine5flushB9_
FNDA:0,_RNvXININtNtCs5xYBAi2tWzh_3fvm7machine7defaults_0ppEINtB5_14DefaultMachineppENtB7_7Machine14builtin_actorsB9_
FNDA:0,_RNvXININtNtCs5xYBAi2tWzh_3fvm7machine7defaults_0ppEINtB5_14DefaultMachineppENtB7_7Machine8transferB9_
FNDA:0,_RNvXININtNtCs5xYBAi2tWzh_3fvm7machine7defaults_0ppEINtB5_14DefaultMachineppENtB7_7Machine6engineB9_
FNDA:0,_RNvXININtNtCs5xYBAi2tWzh_3fvm7machine7defaults_0ppEINtB5_14DefaultMachineppENtB7_7Machine10blockstoreB9_
FNDA:0,_RNvXININtNtCs5xYBAi2tWzh_3fvm7machine7defaults_0ppEINtB5_14DefaultMachineppENtB7_7Machine7externsB9_
FNDA:0,_RNvXININtNtCs5xYBAi2tWzh_3fvm7machine7defaults_0ppEINtB5_14DefaultMachineppENtB7_7Machine7contextB9_
FNDA:0,_RNvXININtNtCs5xYBAi2tWzh_3fvm7machine7defaults_0ppEINtB5_14DefaultMachineppENtB7_7Machine14state_tree_mutB9_
FNDA:0,_RNvXININtNtCs5xYBAi2tWzh_3fvm7machine7defaults_0ppEINtB5_14DefaultMachineppENtB7_7Machine10into_storeB9_
FNDA:0,_RNvMNtNtCs5xYBAi2tWzh_3fvm7machine7defaultINtB2_14DefaultMachineppE3newB6_
FNF:12
FNH:1
DA:56,1
DA:57,1
DA:58,1
DA:59,1
DA:60,1
DA:61,1
DA:62,1
DA:63,1
DA:64,1
DA:65,1
DA:66,0
DA:67,0
DA:70,1
DA:71,0
DA:72,0
DA:73,0
DA:74,0
DA:75,1
DA:76,1
DA:77,1
DA:78,1
DA:79,1
DA:80,1
DA:82,0
DA:83,0
DA:84,0
DA:85,0
DA:86,1
DA:89,1
DA:90,1
DA:91,1
DA:95,1
DA:96,1
DA:97,1
DA:98,1
DA:99,1
DA:100,1
DA:101,1
DA:104,0
DA:105,0
DA:108,1
DA:109,1
DA:118,0
DA:120,1
DA:121,1
DA:122,1
DA:123,1
DA:124,1
DA:125,1
DA:126,1
DA:127,1
DA:138,0
DA:139,0
DA:140,0
DA:142,0
DA:143,0
DA:144,0
DA:146,0
DA:147,0
DA:148,0
DA:150,0
DA:151,0
DA:152,0
DA:154,0
DA:155,0
DA:156,0
DA:158,0
DA:159,0
DA:160,0
DA:162,0
DA:163,0
DA:164,0
DA:171,0
DA:172,0
DA:173,0
DA:174,0
DA:175,0
DA:178,0
DA:179,0
DA:181,0
DA:182,0
DA:183,0
DA:184,0
DA:186,0
DA:187,0
DA:188,0
DA:189,0
DA:190,0
DA:191,0
DA:193,0
DA:194,0
DA:195,0
DA:196,0
DA:197,0
DA:198,0
DA:202,0
DA:203,0
DA:204,0
DA:205,0
DA:206,0
DA:208,0
DA:209,0
DA:210,0
DA:211,0
DA:212,0
DA:213,0
DA:214,0
DA:215,0
DA:217,0
DA:218,0
DA:219,0
DA:220,0
DA:221,0
DA:223,0
DA:224,0
DA:225,0
DA:226,0
DA:227,0
DA:229,0
DA:231,0
DA:232,0
DA:234,0
DA:235,0
DA:236,0
BRF:0
BRH:0
LF:124
LH:38
end_of_record
SF:/home/mriise/Projects/ref-fvm/fvm/src/machine/engine.rs
FN:373,_RNCNvNtNtCs2gD7la8YEGu_3fvm7machine6engine17fix_wasm_sectionss_0B7_
FN:166,_RNvXs1_NtNtCs2gD7la8YEGu_3fvm7machine6engineNtB5_6EngineNtNtNtCslBoGNiFC398_4core3ops5deref5Deref5deref
FN:28,_RNvXsa_NtNtCs2gD7la8YEGu_3fvm7machine6engineNtB5_12EngineConfigNtNtCslBoGNiFC398_4core3cmp9PartialEq2neB9_
FN:48,_RNvMs_NtNtCs2gD7la8YEGu_3fvm7machine6engineNtB4_11MultiEngine3get
FN:217,_RNCINvMs3_NtNtCs2gD7la8YEGu_3fvm7machine6engineNtB8_6Engine7preloadppE0Bc_
FN:230,_RNvMs3_NtNtCs2gD7la8YEGu_3fvm7machine6engineNtB5_6Engine13load_bytecode
FN:24,_RNvXs5_NtNtCs2gD7la8YEGu_3fvm7machine6engineNtB5_11MultiEngineNtNtCslBoGNiFC398_4core5clone5Clone5cloneB9_
FN:247,_RNCNvMs3_NtNtCs2gD7la8YEGu_3fvm7machine6engineNtB7_6Engine8load_raw0Bb_
FN:372,_RNCNvNtNtCs2gD7la8YEGu_3fvm7machine6engine17fix_wasm_sections0B7_
FN:207,_RINvMs3_NtNtCs2gD7la8YEGu_3fvm7machine6engineNtB6_6Engine7preloadppEBa_
FN:44,_RNvMs_NtNtCs2gD7la8YEGu_3fvm7machine6engineNtB4_11MultiEngine3new
FN:346,_RINvMs3_NtNtCs2gD7la8YEGu_3fvm7machine6engineNtB6_6Engine9new_storepEBa_
FN:314,_RINvMs3_NtNtCs2gD7la8YEGu_3fvm7machine6engineNtB6_6Engine12get_instancepEBa_
FN:28,_RINvXsb_NtNtCs2gD7la8YEGu_3fvm7machine6engineNtB6_12EngineConfigNtNtCslBoGNiFC398_4core4hash4Hash4hashpEBa_
FN:369,_RNvNtNtCs2gD7la8YEGu_3fvm7machine6engine17fix_wasm_sections
FN:303,_RNvMs3_NtNtCs2gD7la8YEGu_3fvm7machine6engineNtB5_6Engine10get_module
FN:28,_RNvXsa_NtNtCs2gD7la8YEGu_3fvm7machine6engineNtB5_12EngineConfigNtNtCslBoGNiFC398_4core3cmp9PartialEq2eqB9_
FN:28,_RNvXs6_NtNtCs2gD7la8YEGu_3fvm7machine6engineNtB5_12EngineConfigNtNtCslBoGNiFC398_4core5clone5Clone5cloneB9_
FN:52,_RNCNvMs_NtNtCs2gD7la8YEGu_3fvm7machine6engineNtB6_11MultiEngine3get0Ba_
FN:245,_RNvMs3_NtNtCs2gD7la8YEGu_3fvm7machine6engineNtB5_6Engine8load_raw
FN:66,_RNvXs0_NtNtCs2gD7la8YEGu_3fvm7machine6engineNtB5_11MultiEngineNtNtCslBoGNiFC398_4core7default7Default7default
FN:289,_RNvMs3_NtNtCs2gD7la8YEGu_3fvm7machine6engineNtB5_6Engine13load_compiled
FN:273,_RNCNvMs3_NtNtCs2gD7la8YEGu_3fvm7machine6engineNtB7_6Engine8load_raws_0Bb_
FN:177,_RNvMs2_NtNtCs2gD7la8YEGu_3fvm7machine6engineNtB5_6Engine3new
FN:35,_RNvXNtNtCs2gD7la8YEGu_3fvm7machine6engineNtB2_12EngineConfigINtNtCslBoGNiFC398_4core7convert4FromRNtB4_13NetworkConfigE4from
FN:20,_RNvXs4_NtNtCs2gD7la8YEGu_3fvm7machine6engineNtB5_6EngineNtNtCslBoGNiFC398_4core5clone5Clone5cloneB9_
FN:71,_RNvNtNtCs2gD7la8YEGu_3fvm7machine6engine23default_wasmtime_config
FN:172,_RNvMs2_NtNtCs2gD7la8YEGu_3fvm7machine6engineNtB5_6Engine11new_default
FN:346,_RINvMs3_NtNtCs5xYBAi2tWzh_3fvm7machine6engineNtB6_6Engine9new_storepEBa_
FN:24,_RNvXs5_NtNtCs5xYBAi2tWzh_3fvm7machine6engineNtB5_11MultiEngineNtNtCslBoGNiFC398_4core5clone5Clone5cloneB9_
FN:207,_RINvMs3_NtNtCs5xYBAi2tWzh_3fvm7machine6engineNtB6_6Engine7preloadppEBa_
FN:314,_RINvMs3_NtNtCs5xYBAi2tWzh_3fvm7machine6engineNtB6_6Engine12get_instancepEBa_
FN:217,_RNCINvMs3_NtNtCs5xYBAi2tWzh_3fvm7machine6engineNtB8_6Engine7preloadppE0Bc_
FN:28,_RNvXsa_NtNtCs5xYBAi2tWzh_3fvm7machine6engineNtB5_12EngineConfigNtNtCslBoGNiFC398_4core3cmp9PartialEq2neB9_
FN:20,_RNvXs4_NtNtCs5xYBAi2tWzh_3fvm7machine6engineNtB5_6EngineNtNtCslBoGNiFC398_4core5clone5Clone5cloneB9_
FN:177,_RNvMs2_NtNtCs5xYBAi2tWzh_3fvm7machine6engineNtB5_6Engine3new
FN:71,_RNvNtNtCs5xYBAi2tWzh_3fvm7machine6engine23default_wasmtime_config
FN:28,_RNvXs6_NtNtCs5xYBAi2tWzh_3fvm7machine6engineNtB5_12EngineConfigNtNtCslBoGNiFC398_4core5clone5Clone5cloneB9_
FN:52,_RNCNvMs_NtNtCs5xYBAi2tWzh_3fvm7machine6engineNtB6_11MultiEngine3get0Ba_
FN:372,_RNCNvNtNtCs5xYBAi2tWzh_3fvm7machine6engine17fix_wasm_sections0B7_
FN:247,_RNCNvMs3_NtNtCs5xYBAi2tWzh_3fvm7machine6engineNtB7_6Engine8load_raw0Bb_
FN:172,_RNvMs2_NtNtCs5xYBAi2tWzh_3fvm7machine6engineNtB5_6Engine11new_default
FN:166,_RNvXs1_NtNtCs5xYBAi2tWzh_3fvm7machine6engineNtB5_6EngineNtNtNtCslBoGNiFC398_4core3ops5deref5Deref5deref
FN:369,_RNvNtNtCs5xYBAi2tWzh_3fvm7machine6engine17fix_wasm_sections
FN:66,_RNvXs0_NtNtCs5xYBAi2tWzh_3fvm7machine6engineNtB5_11MultiEngineNtNtCslBoGNiFC398_4core7default7Default7default
FN:245,_RNvMs3_NtNtCs5xYBAi2tWzh_3fvm7machine6engineNtB5_6Engine8load_raw
FN:48,_RNvMs_NtNtCs5xYBAi2tWzh_3fvm7machine6engineNtB4_11MultiEngine3get
FN:28,_RNvXsa_NtNtCs5xYBAi2tWzh_3fvm7machine6engineNtB5_12EngineConfigNtNtCslBoGNiFC398_4core3cmp9PartialEq2eqB9_
FN:28,_RINvXsb_NtNtCs5xYBAi2tWzh_3fvm7machine6engineNtB6_12EngineConfigNtNtCslBoGNiFC398_4core4hash4Hash4hashNtNtNtNtCsduPDAHU5p59_3std11collections4hash3map13DefaultHasherEBa_
FN:303,_RNvMs3_NtNtCs5xYBAi2tWzh_3fvm7machine6engineNtB5_6Engine10get_module
FN:289,_RNvMs3_NtNtCs5xYBAi2tWzh_3fvm7machine6engineNtB5_6Engine13load_compiled
FN:230,_RNvMs3_NtNtCs5xYBAi2tWzh_3fvm7machine6engineNtB5_6Engine13load_bytecode
FN:44,_RNvMs_NtNtCs5xYBAi2tWzh_3fvm7machine6engineNtB4_11MultiEngine3new
FN:273,_RNCNvMs3_NtNtCs5xYBAi2tWzh_3fvm7machine6engineNtB7_6Engine8load_raws_0Bb_
FN:373,_RNCNvNtNtCs5xYBAi2tWzh_3fvm7machine6engine17fix_wasm_sectionss_0B7_
FN:35,_RNvXNtNtCs5xYBAi2tWzh_3fvm7machine6engineNtB2_12EngineConfigINtNtCslBoGNiFC398_4core7convert4FromRNtB4_13NetworkConfigE4from
FNDA:0,_RNCNvNtNtCs2gD7la8YEGu_3fvm7machine6engine17fix_wasm_sectionss_0B7_
FNDA:0,_RNvXs1_NtNtCs2gD7la8YEGu_3fvm7machine6engineNtB5_6EngineNtNtNtCslBoGNiFC398_4core3ops5deref5Deref5deref
FNDA:0,_RNvXsa_NtNtCs2gD7la8YEGu_3fvm7machine6engineNtB5_12EngineConfigNtNtCslBoGNiFC398_4core3cmp9PartialEq2neB9_
FNDA:0,_RNvMs_NtNtCs2gD7la8YEGu_3fvm7machine6engineNtB4_11MultiEngine3get
FNDA:0,_RNCINvMs3_NtNtCs2gD7la8YEGu_3fvm7machine6engineNtB8_6Engine7preloadppE0Bc_
FNDA:0,_RNvMs3_NtNtCs2gD7la8YEGu_3fvm7machine6engineNtB5_6Engine13load_bytecode
FNDA:0,_RNvXs5_NtNtCs2gD7la8YEGu_3fvm7machine6engineNtB5_11MultiEngineNtNtCslBoGNiFC398_4core5clone5Clone5cloneB9_
FNDA:0,_RNCNvMs3_NtNtCs2gD7la8YEGu_3fvm7machine6engineNtB7_6Engine8load_raw0Bb_
FNDA:0,_RNCNvNtNtCs2gD7la8YEGu_3fvm7machine6engine17fix_wasm_sections0B7_
FNDA:0,_RINvMs3_NtNtCs2gD7la8YEGu_3fvm7machine6engineNtB6_6Engine7preloadppEBa_
FNDA:0,_RNvMs_NtNtCs2gD7la8YEGu_3fvm7machine6engineNtB4_11MultiEngine3new
FNDA:0,_RINvMs3_NtNtCs2gD7la8YEGu_3fvm7machine6engineNtB6_6Engine9new_storepEBa_
FNDA:0,_RINvMs3_NtNtCs2gD7la8YEGu_3fvm7machine6engineNtB6_6Engine12get_instancepEBa_
FNDA:0,_RINvXsb_NtNtCs2gD7la8YEGu_3fvm7machine6engineNtB6_12EngineConfigNtNtCslBoGNiFC398_4core4hash4Hash4hashpEBa_
FNDA:0,_RNvNtNtCs2gD7la8YEGu_3fvm7machine6engine17fix_wasm_sections
FNDA:0,_RNvMs3_NtNtCs2gD7la8YEGu_3fvm7machine6engineNtB5_6Engine10get_module
FNDA:0,_RNvXsa_NtNtCs2gD7la8YEGu_3fvm7machine6engineNtB5_12EngineConfigNtNtCslBoGNiFC398_4core3cmp9PartialEq2eqB9_
FNDA:0,_RNvXs6_NtNtCs2gD7la8YEGu_3fvm7machine6engineNtB5_12EngineConfigNtNtCslBoGNiFC398_4core5clone5Clone5cloneB9_
FNDA:0,_RNCNvMs_NtNtCs2gD7la8YEGu_3fvm7machine6engineNtB6_11MultiEngine3get0Ba_
FNDA:0,_RNvMs3_NtNtCs2gD7la8YEGu_3fvm7machine6engineNtB5_6Engine8load_raw
FNDA:0,_RNvXs0_NtNtCs2gD7la8YEGu_3fvm7machine6engineNtB5_11MultiEngineNtNtCslBoGNiFC398_4core7default7Default7default
FNDA:0,_RNvMs3_NtNtCs2gD7la8YEGu_3fvm7machine6engineNtB5_6Engine13load_compiled
FNDA:0,_RNCNvMs3_NtNtCs2gD7la8YEGu_3fvm7machine6engineNtB7_6Engine8load_raws_0Bb_
FNDA:1,_RNvMs2_NtNtCs2gD7la8YEGu_3fvm7machine6engineNtB5_6Engine3new
FNDA:1,_RNvXNtNtCs2gD7la8YEGu_3fvm7machine6engineNtB2_12EngineConfigINtNtCslBoGNiFC398_4core7convert4FromRNtB4_13NetworkConfigE4from
FNDA:1,_RNvXs4_NtNtCs2gD7la8YEGu_3fvm7machine6engineNtB5_6EngineNtNtCslBoGNiFC398_4core5clone5Clone5cloneB9_
FNDA:1,_RNvNtNtCs2gD7la8YEGu_3fvm7machine6engine23default_wasmtime_config
FNDA:1,_RNvMs2_NtNtCs2gD7la8YEGu_3fvm7machine6engineNtB5_6Engine11new_default
FNDA:0,_RINvMs3_NtNtCs5xYBAi2tWzh_3fvm7machine6engineNtB6_6Engine9new_storepEBa_
FNDA:0,_RNvXs5_NtNtCs5xYBAi2tWzh_3fvm7machine6engineNtB5_11MultiEngineNtNtCslBoGNiFC398_4core5clone5Clone5cloneB9_
FNDA:0,_RINvMs3_NtNtCs5xYBAi2tWzh_3fvm7machine6engineNtB6_6Engine7preloadppEBa_
FNDA:0,_RINvMs3_NtNtCs5xYBAi2tWzh_3fvm7machine6engineNtB6_6Engine12get_instancepEBa_
FNDA:0,_RNCINvMs3_NtNtCs5xYBAi2tWzh_3fvm7machine6engineNtB8_6Engine7preloadppE0Bc_
FNDA:0,_RNvXsa_NtNtCs5xYBAi2tWzh_3fvm7machine6engineNtB5_12EngineConfigNtNtCslBoGNiFC398_4core3cmp9PartialEq2neB9_
FNDA:0,_RNvXs4_NtNtCs5xYBAi2tWzh_3fvm7machine6engineNtB5_6EngineNtNtCslBoGNiFC398_4core5clone5Clone5cloneB9_
FNDA:18,_RNvMs2_NtNtCs5xYBAi2tWzh_3fvm7machine6engineNtB5_6Engine3new
FNDA:18,_RNvNtNtCs5xYBAi2tWzh_3fvm7machine6engine23default_wasmtime_config
FNDA:0,_RNvXs6_NtNtCs5xYBAi2tWzh_3fvm7machine6engineNtB5_12EngineConfigNtNtCslBoGNiFC398_4core5clone5Clone5cloneB9_
FNDA:0,_RNCNvMs_NtNtCs5xYBAi2tWzh_3fvm7machine6engineNtB6_11MultiEngine3get0Ba_
FNDA:0,_RNCNvNtNtCs5xYBAi2tWzh_3fvm7machine6engine17fix_wasm_sections0B7_
FNDA:0,_RNCNvMs3_NtNtCs5xYBAi2tWzh_3fvm7machine6engineNtB7_6Engine8load_raw0Bb_
FNDA:18,_RNvMs2_NtNtCs5xYBAi2tWzh_3fvm7machine6engineNtB5_6Engine11new_default
FNDA:0,_RNvXs1_NtNtCs5xYBAi2tWzh_3fvm7machine6engineNtB5_6EngineNtNtNtCslBoGNiFC398_4core3ops5deref5Deref5deref
FNDA:0,_RNvNtNtCs5xYBAi2tWzh_3fvm7machine6engine17fix_wasm_sections
FNDA:0,_RNvXs0_NtNtCs5xYBAi2tWzh_3fvm7machine6engineNtB5_11MultiEngineNtNtCslBoGNiFC398_4core7default7Default7default
FNDA:0,_RNvMs3_NtNtCs5xYBAi2tWzh_3fvm7machine6engineNtB5_6Engine8load_raw
FNDA:0,_RNvMs_NtNtCs5xYBAi2tWzh_3fvm7machine6engineNtB4_11MultiEngine3get
FNDA:0,_RNvXsa_NtNtCs5xYBAi2tWzh_3fvm7machine6engineNtB5_12EngineConfigNtNtCslBoGNiFC398_4core3cmp9PartialEq2eqB9_
FNDA:0,_RINvXsb_NtNtCs5xYBAi2tWzh_3fvm7machine6engineNtB6_12EngineConfigNtNtCslBoGNiFC398_4core4hash4Hash4hashNtNtNtNtCsduPDAHU5p59_3std11collections4hash3map13DefaultHasherEBa_
FNDA:0,_RNvMs3_NtNtCs5xYBAi2tWzh_3fvm7machine6engineNtB5_6Engine10get_module
FNDA:0,_RNvMs3_NtNtCs5xYBAi2tWzh_3fvm7machine6engineNtB5_6Engine13load_compiled
FNDA:0,_RNvMs3_NtNtCs5xYBAi2tWzh_3fvm7machine6engineNtB5_6Engine13load_bytecode
FNDA:0,_RNvMs_NtNtCs5xYBAi2tWzh_3fvm7machine6engineNtB4_11MultiEngine3new
FNDA:0,_RNCNvMs3_NtNtCs5xYBAi2tWzh_3fvm7machine6engineNtB7_6Engine8load_raws_0Bb_
FNDA:0,_RNCNvNtNtCs5xYBAi2tWzh_3fvm7machine6engine17fix_wasm_sectionss_0B7_
FNDA:18,_RNvXNtNtCs5xYBAi2tWzh_3fvm7machine6engineNtB2_12EngineConfigINtNtCslBoGNiFC398_4core7convert4FromRNtB4_13NetworkConfigE4from
FNF:27
FNH:5
DA:20,1
DA:24,0
DA:28,0
DA:35,19
DA:36,19
DA:37,19
DA:38,19
DA:39,19
DA:40,19
DA:44,0
DA:45,0
DA:46,0
DA:48,0
DA:49,0
DA:50,0
DA:51,0
DA:52,0
DA:54,0
DA:56,0
DA:57,0
DA:58,0
DA:61,0
DA:62,0
DA:66,0
DA:67,0
DA:68,0
DA:71,19
DA:72,19
DA:73,19
DA:74,19
DA:75,19
DA:76,19
DA:77,19
DA:78,19
DA:79,19
DA:80,19
DA:81,19
DA:82,19
DA:83,19
DA:84,19
DA:85,19
DA:86,19
DA:87,19
DA:88,19
DA:89,19
DA:90,19
DA:91,19
DA:92,19
DA:93,19
DA:94,19
DA:95,19
DA:96,19
DA:97,19
DA:98,19
DA:99,19
DA:100,19
DA:101,19
DA:102,19
DA:103,19
DA:104,19
DA:105,19
DA:106,19
DA:107,19
DA:108,19
DA:109,19
DA:110,19
DA:111,19
DA:112,19
DA:113,19
DA:114,19
DA:115,19
DA:116,19
DA:117,19
DA:118,19
DA:119,19
DA:120,19
DA:121,19
DA:122,19
DA:123,19
DA:124,19
DA:125,19
DA:126,19
DA:127,19
DA:128,19
DA:129,19
DA:130,19
DA:131,19
DA:132,19
DA:133,19
DA:134,19
DA:135,19
DA:136,19
DA:137,19
DA:138,19
DA:139,19
DA:140,19
DA:141,19
DA:142,19
DA:143,19
DA:144,19
DA:145,19
DA:166,0
DA:167,0
DA:168,0
DA:172,19
DA:173,19
DA:174,19
DA:177,19
DA:178,19
DA:180,19
DA:181,19
DA:182,19
DA:183,19
DA:184,19
DA:185,19
DA:186,19
DA:187,19
DA:188,19
DA:189,19
DA:190,19
DA:191,19
DA:192,19
DA:193,19
DA:194,19
DA:195,19
DA:196,19
DA:207,0
DA:208,0
DA:209,0
DA:210,0
DA:211,0
DA:212,0
DA:213,0
DA:214,0
DA:215,0
DA:216,0
DA:217,0
DA:218,0
DA:219,0
DA:220,0
DA:221,0
DA:222,0
DA:223,0
DA:224,0
DA:226,0
DA:227,0
DA:230,0
DA:231,0
DA:232,0
DA:233,0
DA:235,0
DA:236,0
DA:237,0
DA:240,0
DA:241,0
DA:245,0
DA:246,0
DA:247,0
DA:256,0
DA:261,0
DA:262,0
DA:272,0
DA:273,0
DA:276,0
DA:278,0
DA:279,0
DA:281,0
DA:282,0
DA:289,0
DA:290,0
DA:291,0
DA:292,0
DA:294,0
DA:295,0
DA:296,0
DA:299,0
DA:300,0
DA:303,0
DA:304,0
DA:305,0
DA:306,0
DA:307,0
DA:308,0
DA:309,0
DA:310,0
DA:314,0
DA:315,0
DA:316,0
DA:317,0
DA:318,0
DA:319,0
DA:321,0
DA:322,0
DA:323,0
DA:324,0
DA:325,0
DA:326,0
DA:327,0
DA:328,0
DA:331,0
DA:332,0
DA:333,0
DA:335,0
DA:336,0
DA:337,0
DA:338,0
DA:340,0
DA:342,0
DA:343,0
DA:346,0
DA:347,0
DA:348,0
DA:349,0
DA:350,0
DA:351,0
DA:352,0
DA:353,0
DA:354,0
DA:355,0
DA:356,0
DA:357,0
DA:358,0
DA:359,0
DA:360,0
DA:361,0
DA:362,0
DA:369,0
DA:370,0
DA:371,0
DA:372,0
DA:373,0
DA:374,0
DA:375,0
DA:376,0
DA:377,0
DA:378,0
BRF:0
BRH:0
LF:245
LH:104
end_of_record
SF:/home/mriise/Projects/ref-fvm/fvm/src/machine/mod.rs
FN:162,_RNvXs5_NtCs2gD7la8YEGu_3fvm7machineNtB5_14MachineContextNtNtNtCslBoGNiFC398_4core3ops5deref8DerefMut9deref_mutB7_
FN:206,_RNvMs_NtCs2gD7la8YEGu_3fvm7machineNtB4_14MachineContext14enable_tracing
FN:162,_RNvXs3_NtCs2gD7la8YEGu_3fvm7machineNtB5_14MachineContextNtNtCslBoGNiFC398_4core3fmt5Debug3fmt
FN:136,_RNvMNtCs2gD7la8YEGu_3fvm7machineNtB2_13NetworkConfig22enable_actor_debugging
FN:90,_RNvXs0_NtCs2gD7la8YEGu_3fvm7machineNtB5_13NetworkConfigNtNtCslBoGNiFC398_4core3fmt5Debug3fmt
FN:80,_RNvYpNtNtCs2gD7la8YEGu_3fvm7machine7Machine5flushB7_
FN:200,_RNvMs_NtCs2gD7la8YEGu_3fvm7machineNtB4_14MachineContext22set_circulating_supply
FN:194,_RNvMs_NtCs2gD7la8YEGu_3fvm7machineNtB4_14MachineContext12set_base_fee
FN:149,_RNvMNtCs2gD7la8YEGu_3fvm7machineNtB2_13NetworkConfig9for_epoch
FN:143,_RNvMNtCs2gD7la8YEGu_3fvm7machineNtB2_13NetworkConfig15override_actors
FN:123,_RNvMNtCs2gD7la8YEGu_3fvm7machineNtB2_13NetworkConfig3new
FN:90,_RNvXs1_NtCs2gD7la8YEGu_3fvm7machineNtB5_13NetworkConfigNtNtCslBoGNiFC398_4core5clone5Clone5cloneB7_
FN:162,_RNvXs2_NtCs2gD7la8YEGu_3fvm7machineNtB5_14MachineContextNtNtCslBoGNiFC398_4core5clone5Clone5cloneB7_
FN:162,_RNvXs4_NtCs2gD7la8YEGu_3fvm7machineNtB5_14MachineContextNtNtNtCslBoGNiFC398_4core3ops5deref5Deref5derefB7_
FN:162,_RNvXs4_NtCs5xYBAi2tWzh_3fvm7machineNtB5_14MachineContextNtNtNtCslBoGNiFC398_4core3ops5deref5Deref5derefCs4BSQmiRtlYl_3fvm
FN:200,_RNvMs_NtCs5xYBAi2tWzh_3fvm7machineNtB4_14MachineContext22set_circulating_supply
FN:194,_RNvMs_NtCs5xYBAi2tWzh_3fvm7machineNtB4_14MachineContext12set_base_fee
FN:162,_RNvXs3_NtCs5xYBAi2tWzh_3fvm7machineNtB5_14MachineContextNtNtCslBoGNiFC398_4core3fmt5Debug3fmt
FN:136,_RNvMNtCs5xYBAi2tWzh_3fvm7machineNtB2_13NetworkConfig22enable_actor_debugging
FN:149,_RNvMNtCs5xYBAi2tWzh_3fvm7machineNtB2_13NetworkConfig9for_epoch
FN:206,_RNvMs_NtCs5xYBAi2tWzh_3fvm7machineNtB4_14MachineContext14enable_tracing
FN:90,_RNvXs0_NtCs5xYBAi2tWzh_3fvm7machineNtB5_13NetworkConfigNtNtCslBoGNiFC398_4core3fmt5Debug3fmt
FN:90,_RNvXs1_NtCs5xYBAi2tWzh_3fvm7machineNtB5_13NetworkConfigNtNtCslBoGNiFC398_4core5clone5Clone5cloneB7_
FN:123,_RNvMNtCs5xYBAi2tWzh_3fvm7machineNtB2_13NetworkConfig3new
FN:143,_RNvMNtCs5xYBAi2tWzh_3fvm7machineNtB2_13NetworkConfig15override_actors
FN:162,_RNvXs4_NtCs5xYBAi2tWzh_3fvm7machineNtB5_14MachineContextNtNtNtCslBoGNiFC398_4core3ops5deref5Deref5derefB7_
FN:80,_RNvYpNtNtCs5xYBAi2tWzh_3fvm7machine7Machine5flushB7_
FN:162,_RNvXs2_NtCs5xYBAi2tWzh_3fvm7machineNtB5_14MachineContextNtNtCslBoGNiFC398_4core5clone5Clone5cloneB7_
FN:162,_RNvXs5_NtCs5xYBAi2tWzh_3fvm7machineNtB5_14MachineContextNtNtNtCslBoGNiFC398_4core3ops5deref8DerefMut9deref_mutB7_
FNDA:0,_RNvXs5_NtCs2gD7la8YEGu_3fvm7machineNtB5_14MachineContextNtNtNtCslBoGNiFC398_4core3ops5deref8DerefMut9deref_mutB7_
FNDA:0,_RNvMs_NtCs2gD7la8YEGu_3fvm7machineNtB4_14MachineContext14enable_tracing
FNDA:0,_RNvXs3_NtCs2gD7la8YEGu_3fvm7machineNtB5_14MachineContextNtNtCslBoGNiFC398_4core3fmt5Debug3fmt
FNDA:0,_RNvMNtCs2gD7la8YEGu_3fvm7machineNtB2_13NetworkConfig22enable_actor_debugging
FNDA:0,_RNvXs0_NtCs2gD7la8YEGu_3fvm7machineNtB5_13NetworkConfigNtNtCslBoGNiFC398_4core3fmt5Debug3fmt
FNDA:0,_RNvYpNtNtCs2gD7la8YEGu_3fvm7machine7Machine5flushB7_
FNDA:0,_RNvMs_NtCs2gD7la8YEGu_3fvm7machineNtB4_14MachineContext22set_circulating_supply
FNDA:0,_RNvMs_NtCs2gD7la8YEGu_3fvm7machineNtB4_14MachineContext12set_base_fee
FNDA:1,_RNvMNtCs2gD7la8YEGu_3fvm7machineNtB2_13NetworkConfig9for_epoch
FNDA:1,_RNvMNtCs2gD7la8YEGu_3fvm7machineNtB2_13NetworkConfig15override_actors
FNDA:1,_RNvMNtCs2gD7la8YEGu_3fvm7machineNtB2_13NetworkConfig3new
FNDA:2,_RNvXs1_NtCs2gD7la8YEGu_3fvm7machineNtB5_13NetworkConfigNtNtCslBoGNiFC398_4core5clone5Clone5cloneB7_
FNDA:1,_RNvXs2_NtCs2gD7la8YEGu_3fvm7machineNtB5_14MachineContextNtNtCslBoGNiFC398_4core5clone5Clone5cloneB7_
FNDA:2,_RNvXs4_NtCs2gD7la8YEGu_3fvm7machineNtB5_14MachineContextNtNtNtCslBoGNiFC398_4core3ops5deref5Deref5derefB7_
FNDA:43,_RNvXs4_NtCs5xYBAi2tWzh_3fvm7machineNtB5_14MachineContextNtNtNtCslBoGNiFC398_4core3ops5deref5Deref5derefCs4BSQmiRtlYl_3fvm
FNDA:0,_RNvMs_NtCs5xYBAi2tWzh_3fvm7machineNtB4_14MachineContext22set_circulating_supply
FNDA:0,_RNvMs_NtCs5xYBAi2tWzh_3fvm7machineNtB4_14MachineContext12set_base_fee
FNDA:0,_RNvXs3_NtCs5xYBAi2tWzh_3fvm7machineNtB5_14MachineContextNtNtCslBoGNiFC398_4core3fmt5Debug3fmt
FNDA:0,_RNvMNtCs5xYBAi2tWzh_3fvm7machineNtB2_13NetworkConfig22enable_actor_debugging
FNDA:18,_RNvMNtCs5xYBAi2tWzh_3fvm7machineNtB2_13NetworkConfig9for_epoch
FNDA:0,_RNvMs_NtCs5xYBAi2tWzh_3fvm7machineNtB4_14MachineContext14enable_tracing
FNDA:0,_RNvXs0_NtCs5xYBAi2tWzh_3fvm7machineNtB5_13NetworkConfigNtNtCslBoGNiFC398_4core3fmt5Debug3fmt
FNDA:18,_RNvXs1_NtCs5xYBAi2tWzh_3fvm7machineNtB5_13NetworkConfigNtNtCslBoGNiFC398_4core5clone5Clone5cloneB7_
FNDA:18,_RNvMNtCs5xYBAi2tWzh_3fvm7machineNtB2_13NetworkConfig3new
FNDA:18,_RNvMNtCs5xYBAi2tWzh_3fvm7machineNtB2_13NetworkConfig15override_actors
FNDA:0,_RNvXs4_NtCs5xYBAi2tWzh_3fvm7machineNtB5_14MachineContextNtNtNtCslBoGNiFC398_4core3ops5deref5Deref5derefB7_
FNDA:0,_RNvYpNtNtCs5xYBAi2tWzh_3fvm7machine7Machine5flushB7_
FNDA:0,_RNvXs2_NtCs5xYBAi2tWzh_3fvm7machineNtB5_14MachineContextNtNtCslBoGNiFC398_4core5clone5Clone5cloneB7_
FNDA:0,_RNvXs5_NtCs5xYBAi2tWzh_3fvm7machineNtB5_14MachineContextNtNtNtCslBoGNiFC398_4core3ops5deref8DerefMut9deref_mutB7_
FNF:14
FNH:6
DA:80,0
DA:81,0
DA:82,0
DA:90,20
DA:123,19
DA:124,19
DA:125,19
DA:126,19
DA:127,19
DA:128,19
DA:129,19
DA:130,19
DA:131,19
DA:132,19
DA:136,0
DA:137,0
DA:138,0
DA:139,0
DA:143,19
DA:144,19
DA:145,19
DA:146,19
DA:149,19
DA:150,19
DA:151,19
DA:152,19
DA:153,19
DA:154,19
DA:155,19
DA:156,19
DA:157,19
DA:158,19
DA:162,45
DA:194,0
DA:195,0
DA:196,0
DA:197,0
DA:200,0
DA:201,0
DA:202,0
DA:203,0
DA:206,0
DA:207,0
DA:208,0
DA:209,0
BRF:0
BRH:0
LF:49
LH:27
end_of_record
SF:/home/mriise/Projects/ref-fvm/fvm/src/state_tree.rs
FN:540,_RNvMs0_NtCs2gD7la8YEGu_3fvm10state_treeNtB5_10ActorState12deduct_funds
FN:516,_RNvXNvXNvNvXsa_NtCs2gD7la8YEGu_3fvm10state_treeNtBd_10ActorStateNtNtCsj3WkLEH4Ge0_5serde2de11Deserialize11deserialize1__NtB7_5InnerB10_11deserializeNtB2_9___VisitorNtB12_7Visitor9expecting
FN:507,_RINvMs_NtCs2gD7la8YEGu_3fvm10state_treeINtB5_9StateTreepE8for_eachpEB7_
FN:41,_RNvXs1_NtCs2gD7la8YEGu_3fvm10state_treeNtB5_14StateSnapLayerNtNtCslBoGNiFC398_4core3fmt5Debug3fmt
FN:507,_RNCINvMs_NtCs2gD7la8YEGu_3fvm10state_treeINtB7_9StateTreepE8for_eachpE0B9_
FN:551,_RNvMs0_NtCs2gD7la8YEGu_3fvm10state_treeNtB5_10ActorState13deposit_funds
FN:720,_RNCNvNtNtCs2gD7la8YEGu_3fvm10state_tree5testss_14get_set_non_id0B7_
FN:752,_RNCNvNtNtCs2gD7la8YEGu_3fvm10state_tree5tests17test_transactions0B7_
FN:701,_RNCNvNtNtCs2gD7la8YEGu_3fvm10state_tree5tests14get_set_non_id0B7_
FN:854,_RNCNvNtNtCs2gD7la8YEGu_3fvm10state_tree5tests20unsupported_versions0B7_
FN:829,_RNvNtNtCs2gD7la8YEGu_3fvm10state_tree5testss_18revert_transaction
FN:753,_RNvNtNtCs2gD7la8YEGu_3fvm10state_tree5testss_17test_transactions
FN:729,_RNCNvNtNtCs2gD7la8YEGu_3fvm10state_tree5testss_14get_set_non_ids_0B7_
FN:828,_RNCNvNtNtCs2gD7la8YEGu_3fvm10state_tree5tests18revert_transaction0B7_
FN:664,_RNvNtNtCs2gD7la8YEGu_3fvm10state_tree5tests9empty_cid
FN:669,_RNvNtNtCs2gD7la8YEGu_3fvm10state_tree5testss_13get_set_cache
FN:689,_RNvNtNtCs2gD7la8YEGu_3fvm10state_tree5testss_12delete_actor
FN:702,_RNvNtNtCs2gD7la8YEGu_3fvm10state_tree5testss_14get_set_non_id
FN:688,_RNCNvNtNtCs2gD7la8YEGu_3fvm10state_tree5tests12delete_actor0B7_
FN:855,_RNvNtNtCs2gD7la8YEGu_3fvm10state_tree5testss_20unsupported_versions
FN:668,_RNCNvNtNtCs2gD7la8YEGu_3fvm10state_tree5tests13get_set_cache0B7_
FN:516,_RINvXs9_NtCs2gD7la8YEGu_3fvm10state_treeNtB6_10ActorStateNtNtCsj3WkLEH4Ge0_5serde3ser9Serialize9serializeQINtNtCs7jq4FGjB44s_18serde_ipld_dagcbor3ser10SerializerNtNtNtCshVKh6t4RGJQ_7cbor4ii4core5utils9BufWriterEEB8_
FN:516,_RINvXNvXNvXNvNvXsa_NtCs2gD7la8YEGu_3fvm10state_treeNtBh_10ActorStateNtNtCsj3WkLEH4Ge0_5serde2de11Deserialize11deserialize1__NtBb_5InnerB14_11deserializeNtB6_9___VisitorNtB16_7Visitor9visit_seqNtB3_17___DeserializeWithB14_11deserializeNtNtCsh2sCZRDX7aL_12libipld_core4ipld4IpldEBj_
FN:276,_RNvMs_NtCs2gD7la8YEGu_3fvm10state_treeINtB4_9StateTreeRNtNtCslbkBntY5hAO_19fvm_ipld_blockstore6memory16MemoryBlockstoreE5storeB6_
FN:516,_RNvXs4_NtCs2gD7la8YEGu_3fvm10state_treeNtB5_10ActorStateNtNtCslBoGNiFC398_4core3cmp9PartialEq2eqB7_
FN:454,_RNvMs_NtCs2gD7la8YEGu_3fvm10state_treeINtB4_9StateTreeNtNtCslbkBntY5hAO_19fvm_ipld_blockstore6memory16MemoryBlockstoreE5flushB6_
FN:423,_RNvMs_NtCs2gD7la8YEGu_3fvm10state_treeINtB4_9StateTreeRNtNtCslbkBntY5hAO_19fvm_ipld_blockstore6memory16MemoryBlockstoreE20register_new_addressB6_
FN:56,_RNvMNtCs2gD7la8YEGu_3fvm10state_treeNtB2_14StateSnapshots3new
FN:167,_RNCNvMNtCs2gD7la8YEGu_3fvm10state_treeNtB4_14StateSnapshots9set_actor0B6_
FN:80,_RNvMNtCs2gD7la8YEGu_3fvm10state_treeNtB2_14StateSnapshots16merge_last_layer
FN:202,_RNvMs_NtCs2gD7la8YEGu_3fvm10state_treeINtB4_9StateTreeNtNtCslbkBntY5hAO_19fvm_ipld_blockstore6memory16MemoryBlockstoreE3newB6_
FN:69,_RNCNvMNtCs2gD7la8YEGu_3fvm10state_treeNtB4_14StateSnapshots10drop_layer0B6_
FN:230,_RNvMs_NtCs2gD7la8YEGu_3fvm10state_treeINtB4_9StateTreeINtNtNtB6_10blockstore8buffered18BufferedBlockstoreNtNtCslbkBntY5hAO_19fvm_ipld_blockstore6memory16MemoryBlockstoreEE13new_from_rootB6_
FN:133,_RNvMNtCs2gD7la8YEGu_3fvm10state_treeNtB2_14StateSnapshots21cache_resolve_address
FN:281,_RNvMs_NtCs2gD7la8YEGu_3fvm10state_treeINtB4_9StateTreeINtNtNtB6_10blockstore8buffered18BufferedBlockstoreNtNtCslbkBntY5hAO_19fvm_ipld_blockstore6memory16MemoryBlockstoreEE9get_actorB6_
FN:301,_RNCNvMs_NtCs2gD7la8YEGu_3fvm10state_treeINtB6_9StateTreeINtNtNtB8_10blockstore8buffered18BufferedBlockstoreNtNtCslbkBntY5hAO_19fvm_ipld_blockstore6memory16MemoryBlockstoreEE12get_actor_id0B8_
FN:405,_RINvMs_NtCs2gD7la8YEGu_3fvm10state_treeINtB5_9StateTreeRNtNtCslbkBntY5hAO_19fvm_ipld_blockstore6memory16MemoryBlockstoreE21maybe_mutate_actor_idNCNvNtB5_5testss_14get_set_non_ids_0EB7_
FN:454,_RNvMs_NtCs2gD7la8YEGu_3fvm10state_treeINtB4_9StateTreeRNtNtCslbkBntY5hAO_19fvm_ipld_blockstore6memory16MemoryBlockstoreE5flushB6_
FN:332,_RNvMs_NtCs2gD7la8YEGu_3fvm10state_treeINtB4_9StateTreeRNtNtCslbkBntY5hAO_19fvm_ipld_blockstore6memory16MemoryBlockstoreE9lookup_idB6_
FN:516,_RNvXs8_NtCs2gD7la8YEGu_3fvm10state_treeNtB5_10ActorStateNtNtCslBoGNiFC398_4core3fmt5Debug3fmt
FN:516,_RINvXNvXNvNvXsa_NtCs2gD7la8YEGu_3fvm10state_treeNtBe_10ActorStateNtNtCsj3WkLEH4Ge0_5serde2de11Deserialize11deserialize1__NtB8_5InnerB11_11deserializeNtB3_9___VisitorNtB13_7Visitor9visit_seqQNtNtNtCsh2sCZRDX7aL_12libipld_core5serde2de15SeqDeserializerEBg_
FN:516,_RINvXNvXNvNvXs9_NtCs2gD7la8YEGu_3fvm10state_treeNtBe_10ActorStateNtNtCsj3WkLEH4Ge0_5serde3ser9Serialize9serialize1__NtB8_5InnerB11_9serializeNtB3_15___SerializeWithB11_9serializeQINtNtCs7jq4FGjB44s_18serde_ipld_dagcbor3ser10SerializerNtNtNtCshVKh6t4RGJQ_7cbor4ii4core5utils9BufWriterEEBg_
FN:394,_RNCINvMs_NtCs2gD7la8YEGu_3fvm10state_treeINtB7_9StateTreeRNtNtCslbkBntY5hAO_19fvm_ipld_blockstore6memory16MemoryBlockstoreE15mutate_actor_idNCNvNtB7_5testss_14get_set_non_ids_0E0B9_
FN:516,_RNCINvXNvXNvNvXsa_NtCs2gD7la8YEGu_3fvm10state_treeNtBg_10ActorStateNtNtCsj3WkLEH4Ge0_5serde2de11Deserialize11deserialize1__NtBa_5InnerB13_11deserializeNtB5_9___VisitorNtB15_7Visitor9visit_seqQNtNtNtCsh2sCZRDX7aL_12libipld_core5serde2de15SeqDeserializerE0Bi_
FN:445,_RNvMs_NtCs2gD7la8YEGu_3fvm10state_treeINtB4_9StateTreeRNtNtCslbkBntY5hAO_19fvm_ipld_blockstore6memory16MemoryBlockstoreE15end_transactionB6_
FN:369,_RNvMs_NtCs2gD7la8YEGu_3fvm10state_treeINtB4_9StateTreeRNtNtCslbkBntY5hAO_19fvm_ipld_blockstore6memory16MemoryBlockstoreE15delete_actor_idB6_
FN:276,_RNvMs_NtCs2gD7la8YEGu_3fvm10state_treeINtB4_9StateTreeINtNtNtB6_10blockstore8buffered18BufferedBlockstoreNtNtCslbkBntY5hAO_19fvm_ipld_blockstore6memory16MemoryBlockstoreEE5storeB6_
FN:440,_RNvMs_NtCs2gD7la8YEGu_3fvm10state_treeINtB4_9StateTreeRNtNtCslbkBntY5hAO_19fvm_ipld_blockstore6memory16MemoryBlockstoreE17begin_transactionB6_
FN:121,_RNvMNtCs2gD7la8YEGu_3fvm10state_treeNtB2_14StateSnapshots15resolve_address
FN:516,_RINvXNvNvXsa_NtCs2gD7la8YEGu_3fvm10state_treeNtBb_10ActorStateNtNtCsj3WkLEH4Ge0_5serde2de11Deserialize11deserialize1__NtB5_5InnerBY_11deserializeINtCs66xhiZNt6H5_11serde_tuple12DeserializerNtNtCsh2sCZRDX7aL_12libipld_core4ipld4IpldEEBd_
FN:326,_RNvMs_NtCs2gD7la8YEGu_3fvm10state_treeINtB4_9StateTreeRNtNtCslbkBntY5hAO_19fvm_ipld_blockstore6memory16MemoryBlockstoreE12set_actor_idB6_
FN:376,_RINvMs_NtCs2gD7la8YEGu_3fvm10state_treeINtB5_9StateTreeRNtNtCslbkBntY5hAO_19fvm_ipld_blockstore6memory16MemoryBlockstoreE12mutate_actorNCNvNtB5_5testss_14get_set_non_ids_0EB7_
FN:357,_RNvMs_NtCs2gD7la8YEGu_3fvm10state_treeINtB4_9StateTreeRNtNtCslbkBntY5hAO_19fvm_ipld_blockstore6memory16MemoryBlockstoreE12delete_actorB6_
FN:202,_RNvMs_NtCs2gD7la8YEGu_3fvm10state_treeINtB4_9StateTreeRNtNtCslbkBntY5hAO_19fvm_ipld_blockstore6memory16MemoryBlockstoreE3newB6_
FN:290,_RNvMs_NtCs2gD7la8YEGu_3fvm10state_treeINtB4_9StateTreeRNtNtCslbkBntY5hAO_19fvm_ipld_blockstore6memory16MemoryBlockstoreE12get_actor_idB6_
FN:164,_RNvMNtCs2gD7la8YEGu_3fvm10state_treeNtB2_14StateSnapshots9set_actor
FN:390,_RINvMs_NtCs2gD7la8YEGu_3fvm10state_treeINtB5_9StateTreeRNtNtCslbkBntY5hAO_19fvm_ipld_blockstore6memory16MemoryBlockstoreE15mutate_actor_idNCNvNtB5_5testss_14get_set_non_ids_0EB7_
FN:516,_RINvXNvNvXs9_NtCs2gD7la8YEGu_3fvm10state_treeNtBb_10ActorStateNtNtCsj3WkLEH4Ge0_5serde3ser9Serialize9serialize1__NtB5_5InnerBY_9serializeINtCs66xhiZNt6H5_11serde_tuple10SerializerQINtNtCs7jq4FGjB44s_18serde_ipld_dagcbor3ser10SerializerNtNtNtCshVKh6t4RGJQ_7cbor4ii4core5utils9BufWriterEEEBd_
FN:276,_RNvMs_NtCs2gD7la8YEGu_3fvm10state_treeINtB4_9StateTreeNtNtCslbkBntY5hAO_19fvm_ipld_blockstore6memory16MemoryBlockstoreE5storeB6_
FN:67,_RNvMNtCs2gD7la8YEGu_3fvm10state_treeNtB2_14StateSnapshots10drop_layer
FN:183,_RNCNvMNtCs2gD7la8YEGu_3fvm10state_treeNtB4_14StateSnapshots12delete_actor0B6_
FN:319,_RNCNvMs_NtCs2gD7la8YEGu_3fvm10state_treeINtB6_9StateTreeRNtNtCslbkBntY5hAO_19fvm_ipld_blockstore6memory16MemoryBlockstoreE9set_actor0B8_
FN:83,_RNCNvMNtCs2gD7la8YEGu_3fvm10state_treeNtB4_14StateSnapshots16merge_last_layer0B6_
FN:516,_RINvXsa_NtCs2gD7la8YEGu_3fvm10state_treeNtB6_10ActorStateNtNtCsj3WkLEH4Ge0_5serde2de11Deserialize11deserializeNtNtCsh2sCZRDX7aL_12libipld_core4ipld4IpldEB8_
FN:360,_RNCNvMs_NtCs2gD7la8YEGu_3fvm10state_treeINtB6_9StateTreeRNtNtCslbkBntY5hAO_19fvm_ipld_blockstore6memory16MemoryBlockstoreE12delete_actor0B8_
FN:516,_RNvXs7_NtCs2gD7la8YEGu_3fvm10state_treeNtB5_10ActorStateNtNtCslBoGNiFC398_4core5clone5Clone5cloneB7_
FN:101,_RNCNvMNtCs2gD7la8YEGu_3fvm10state_treeNtB4_14StateSnapshots16merge_last_layers_0B6_
FN:531,_RNvMs0_NtCs2gD7la8YEGu_3fvm10state_treeNtB5_10ActorState3new
FN:281,_RNvMs_NtCs2gD7la8YEGu_3fvm10state_treeINtB4_9StateTreeRNtNtCslbkBntY5hAO_19fvm_ipld_blockstore6memory16MemoryBlockstoreE9get_actorB6_
FN:62,_RNvMNtCs2gD7la8YEGu_3fvm10state_treeNtB2_14StateSnapshots9add_layer
FN:290,_RNvMs_NtCs2gD7la8YEGu_3fvm10state_treeINtB4_9StateTreeINtNtNtB6_10blockstore8buffered18BufferedBlockstoreNtNtCslbkBntY5hAO_19fvm_ipld_blockstore6memory16MemoryBlockstoreEE12get_actor_idB6_
FN:180,_RNvMNtCs2gD7la8YEGu_3fvm10state_treeNtB2_14StateSnapshots12delete_actor
FN:516,_RNvXs4_NtCs2gD7la8YEGu_3fvm10state_treeNtB5_10ActorStateNtNtCslBoGNiFC398_4core3cmp9PartialEq2neB7_
FN:151,_RNvMNtCs2gD7la8YEGu_3fvm10state_treeNtB2_14StateSnapshots9get_actor
FN:301,_RNCNvMs_NtCs2gD7la8YEGu_3fvm10state_treeINtB6_9StateTreeRNtNtCslbkBntY5hAO_19fvm_ipld_blockstore6memory16MemoryBlockstoreE12get_actor_id0B8_
FN:136,_RNCNvMNtCs2gD7la8YEGu_3fvm10state_treeNtB4_14StateSnapshots21cache_resolve_address0B6_
FN:316,_RNvMs_NtCs2gD7la8YEGu_3fvm10state_treeINtB4_9StateTreeRNtNtCslbkBntY5hAO_19fvm_ipld_blockstore6memory16MemoryBlockstoreE9set_actorB6_
FN:332,_RNvMs_NtCs2gD7la8YEGu_3fvm10state_treeINtB4_9StateTreeINtNtNtB6_10blockstore8buffered18BufferedBlockstoreNtNtCslbkBntY5hAO_19fvm_ipld_blockstore6memory16MemoryBlockstoreEE9lookup_idB6_
FN:499,_RNvMs_NtCs2gD7la8YEGu_3fvm10state_treeINtB4_9StateTreeNtNtCslbkBntY5hAO_19fvm_ipld_blockstore6memory16MemoryBlockstoreE10into_storeB6_
FN:41,_RNvXs2_NtCs2gD7la8YEGu_3fvm10state_treeNtB5_14StateSnapLayerNtNtCslBoGNiFC398_4core7default7Default7defaultB7_
FN:516,_RINvXsa_NtCs5xYBAi2tWzh_3fvm10state_treeNtB6_10ActorStateNtNtCsj3WkLEH4Ge0_5serde2de11Deserialize11deserializeNtNtCsh2sCZRDX7aL_12libipld_core4ipld4IpldECs4BSQmiRtlYl_3fvm
FN:516,_RINvXs9_NtCs5xYBAi2tWzh_3fvm10state_treeNtB6_10ActorStateNtNtCsj3WkLEH4Ge0_5serde3ser9Serialize9serializeQINtNtCs7jq4FGjB44s_18serde_ipld_dagcbor3ser10SerializerNtNtNtCshVKh6t4RGJQ_7cbor4ii4core5utils9BufWriterEECs4BSQmiRtlYl_3fvm
FN:202,_RNvMs_NtCs5xYBAi2tWzh_3fvm10state_treeINtB4_9StateTreeNtNtCslbkBntY5hAO_19fvm_ipld_blockstore6memory16MemoryBlockstoreE3newCs4BSQmiRtlYl_3fvm
FN:516,_RINvXNvXNvNvXsa_NtCs5xYBAi2tWzh_3fvm10state_treeNtBe_10ActorStateNtNtCsj3WkLEH4Ge0_5serde2de11Deserialize11deserialize1__NtB8_5InnerB11_11deserializeNtB3_9___VisitorNtB13_7Visitor9visit_seqQNtNtNtCsh2sCZRDX7aL_12libipld_core5serde2de15SeqDeserializerECs4BSQmiRtlYl_3fvm
FN:516,_RNCINvXNvXNvNvXsa_NtCs5xYBAi2tWzh_3fvm10state_treeNtBg_10ActorStateNtNtCsj3WkLEH4Ge0_5serde2de11Deserialize11deserialize1__NtBa_5InnerB13_11deserializeNtB5_9___VisitorNtB15_7Visitor9visit_seqQNtNtNtCsh2sCZRDX7aL_12libipld_core5serde2de15SeqDeserializerE0Cs4BSQmiRtlYl_3fvm
FN:516,_RNvXs7_NtCs5xYBAi2tWzh_3fvm10state_treeNtB5_10ActorStateNtNtCslBoGNiFC398_4core5clone5Clone5cloneCs4BSQmiRtlYl_3fvm
FN:276,_RNvMs_NtCs5xYBAi2tWzh_3fvm10state_treeINtB4_9StateTreeNtNtCslbkBntY5hAO_19fvm_ipld_blockstore6memory16MemoryBlockstoreE5storeCs4BSQmiRtlYl_3fvm
FN:516,_RINvXNvXNvNvXs9_NtCs5xYBAi2tWzh_3fvm10state_treeNtBe_10ActorStateNtNtCsj3WkLEH4Ge0_5serde3ser9Serialize9serialize1__NtB8_5InnerB11_9serializeNtB3_15___SerializeWithB11_9serializeQINtNtCs7jq4FGjB44s_18serde_ipld_dagcbor3ser10SerializerNtNtNtCshVKh6t4RGJQ_7cbor4ii4core5utils9BufWriterEECs4BSQmiRtlYl_3fvm
FN:516,_RNvXs4_NtCs5xYBAi2tWzh_3fvm10state_treeNtB5_10ActorStateNtNtCslBoGNiFC398_4core3cmp9PartialEq2neCs4BSQmiRtlYl_3fvm
FN:454,_RNvMs_NtCs5xYBAi2tWzh_3fvm10state_treeINtB4_9StateTreeNtNtCslbkBntY5hAO_19fvm_ipld_blockstore6memory16MemoryBlockstoreE5flushCs4BSQmiRtlYl_3fvm
FN:516,_RINvXNvXNvXNvNvXsa_NtCs5xYBAi2tWzh_3fvm10state_treeNtBh_10ActorStateNtNtCsj3WkLEH4Ge0_5serde2de11Deserialize11deserialize1__NtBb_5InnerB14_11deserializeNtB6_9___VisitorNtB16_7Visitor9visit_seqNtB3_17___DeserializeWithB14_11deserializeNtNtCsh2sCZRDX7aL_12libipld_core4ipld4IpldECs4BSQmiRtlYl_3fvm
FN:230,_RNvMs_NtCs5xYBAi2tWzh_3fvm10state_treeINtB4_9StateTreeNtNtCslbkBntY5hAO_19fvm_ipld_blockstore6memory16MemoryBlockstoreE13new_from_rootCs4BSQmiRtlYl_3fvm
FN:516,_RINvXNvNvXs9_NtCs5xYBAi2tWzh_3fvm10state_treeNtBb_10ActorStateNtNtCsj3WkLEH4Ge0_5serde3ser9Serialize9serialize1__NtB5_5InnerBY_9serializeINtCs66xhiZNt6H5_11serde_tuple10SerializerQINtNtCs7jq4FGjB44s_18serde_ipld_dagcbor3ser10SerializerNtNtNtCshVKh6t4RGJQ_7cbor4ii4core5utils9BufWriterEEECs4BSQmiRtlYl_3fvm
FN:516,_RINvXNvNvXsa_NtCs5xYBAi2tWzh_3fvm10state_treeNtBb_10ActorStateNtNtCsj3WkLEH4Ge0_5serde2de11Deserialize11deserialize1__NtB5_5InnerBY_11deserializeINtCs66xhiZNt6H5_11serde_tuple12DeserializerNtNtCsh2sCZRDX7aL_12libipld_core4ipld4IpldEECs4BSQmiRtlYl_3fvm
FN:499,_RNvMs_NtCs5xYBAi2tWzh_3fvm10state_treeINtB4_9StateTreeNtNtCslbkBntY5hAO_19fvm_ipld_blockstore6memory16MemoryBlockstoreE10into_storeCs4BSQmiRtlYl_3fvm
FN:369,_RNvMs_NtCs5xYBAi2tWzh_3fvm10state_treeINtB4_9StateTreepE15delete_actor_idB6_
FN:507,_RINvMs_NtCs5xYBAi2tWzh_3fvm10state_treeINtB5_9StateTreepE8for_eachpEB7_
FN:516,_RINvXNvXNvXNvNvXsa_NtCs5xYBAi2tWzh_3fvm10state_treeNtBh_10ActorStateNtNtCsj3WkLEH4Ge0_5serde2de11Deserialize11deserialize1__NtBb_5InnerB14_11deserializeNtB6_9___VisitorNtB16_7Visitor9visit_seqNtB3_17___DeserializeWithB14_11deserializepEBj_
FN:360,_RNCNvMs_NtCs5xYBAi2tWzh_3fvm10state_treeINtB6_9StateTreepE12delete_actor0B8_
FN:516,_RINvXs9_NtCs5xYBAi2tWzh_3fvm10state_treeNtB6_10ActorStateNtNtCsj3WkLEH4Ge0_5serde3ser9Serialize9serializepEB8_
FN:516,_RNvXs4_NtCs5xYBAi2tWzh_3fvm10state_treeNtB5_10ActorStateNtNtCslBoGNiFC398_4core3cmp9PartialEq2eqB7_
FN:230,_RNvMs_NtCs5xYBAi2tWzh_3fvm10state_treeINtB4_9StateTreepE13new_from_rootB6_
FN:332,_RNvMs_NtCs5xYBAi2tWzh_3fvm10state_treeINtB4_9StateTreepE9lookup_idB6_
FN:405,_RINvMs_NtCs5xYBAi2tWzh_3fvm10state_treeINtB5_9StateTreepE21maybe_mutate_actor_idpEB7_
FN:326,_RNvMs_NtCs5xYBAi2tWzh_3fvm10state_treeINtB4_9StateTreepE12set_actor_idB6_
FN:319,_RNCNvMs_NtCs5xYBAi2tWzh_3fvm10state_treeINtB6_9StateTreepE9set_actor0B8_
FN:423,_RNvMs_NtCs5xYBAi2tWzh_3fvm10state_treeINtB4_9StateTreepE20register_new_addressB6_
FN:290,_RNvMs_NtCs5xYBAi2tWzh_3fvm10state_treeINtB4_9StateTreepE12get_actor_idB6_
FN:516,_RINvXsa_NtCs5xYBAi2tWzh_3fvm10state_treeNtB6_10ActorStateNtNtCsj3WkLEH4Ge0_5serde2de11Deserialize11deserializepEB8_
FN:454,_RNvMs_NtCs5xYBAi2tWzh_3fvm10state_treeINtB4_9StateTreepE5flushB6_
FN:445,_RNvMs_NtCs5xYBAi2tWzh_3fvm10state_treeINtB4_9StateTreepE15end_transactionB6_
FN:516,_RINvXNvNvXs9_NtCs5xYBAi2tWzh_3fvm10state_treeNtBb_10ActorStateNtNtCsj3WkLEH4Ge0_5serde3ser9Serialize9serialize1__NtB5_5InnerBY_9serializepEBd_
FN:507,_RNCINvMs_NtCs5xYBAi2tWzh_3fvm10state_treeINtB7_9StateTreepE8for_eachpE0B9_
FN:516,_RINvXNvNvXsa_NtCs5xYBAi2tWzh_3fvm10state_treeNtBb_10ActorStateNtNtCsj3WkLEH4Ge0_5serde2de11Deserialize11deserialize1__NtB5_5InnerBY_11deserializepEBd_
FN:394,_RNCINvMs_NtCs5xYBAi2tWzh_3fvm10state_treeINtB7_9StateTreepE15mutate_actor_idpE0B9_
FN:202,_RNvMs_NtCs5xYBAi2tWzh_3fvm10state_treeINtB4_9StateTreepE3newB6_
FN:281,_RNvMs_NtCs5xYBAi2tWzh_3fvm10state_treeINtB4_9StateTreepE9get_actorB6_
FN:516,_RINvXNvXNvNvXs9_NtCs5xYBAi2tWzh_3fvm10state_treeNtBe_10ActorStateNtNtCsj3WkLEH4Ge0_5serde3ser9Serialize9serialize1__NtB8_5InnerB11_9serializeNtB3_15___SerializeWithB11_9serializepEBg_
FN:276,_RNvMs_NtCs5xYBAi2tWzh_3fvm10state_treeINtB4_9StateTreepE5storeB6_
FN:376,_RINvMs_NtCs5xYBAi2tWzh_3fvm10state_treeINtB5_9StateTreepE12mutate_actorpEB7_
FN:440,_RNvMs_NtCs5xYBAi2tWzh_3fvm10state_treeINtB4_9StateTreepE17begin_transactionB6_
FN:516,_RNCINvXNvXNvNvXsa_NtCs5xYBAi2tWzh_3fvm10state_treeNtBg_10ActorStateNtNtCsj3WkLEH4Ge0_5serde2de11Deserialize11deserialize1__NtBa_5InnerB13_11deserializeNtB5_9___VisitorNtB15_7Visitor9visit_seqpE0Bi_
FN:301,_RNCNvMs_NtCs5xYBAi2tWzh_3fvm10state_treeINtB6_9StateTreepE12get_actor_id0B8_
FN:499,_RNvMs_NtCs5xYBAi2tWzh_3fvm10state_treeINtB4_9StateTreepE10into_storeB6_
FN:516,_RINvXNvXNvNvXsa_NtCs5xYBAi2tWzh_3fvm10state_treeNtBe_10ActorStateNtNtCsj3WkLEH4Ge0_5serde2de11Deserialize11deserialize1__NtB8_5InnerB11_11deserializeNtB3_9___VisitorNtB13_7Visitor9visit_seqpEBg_
FN:390,_RINvMs_NtCs5xYBAi2tWzh_3fvm10state_treeINtB5_9StateTreepE15mutate_actor_idpEB7_
FN:516,_RNvXs4_NtCs5xYBAi2tWzh_3fvm10state_treeNtB5_10ActorStateNtNtCslBoGNiFC398_4core3cmp9PartialEq2neB7_
FN:316,_RNvMs_NtCs5xYBAi2tWzh_3fvm10state_treeINtB4_9StateTreepE9set_actorB6_
FN:357,_RNvMs_NtCs5xYBAi2tWzh_3fvm10state_treeINtB4_9StateTreepE12delete_actorB6_
FN:41,_RNvXs1_NtCs5xYBAi2tWzh_3fvm10state_treeNtB5_14StateSnapLayerNtNtCslBoGNiFC398_4core3fmt5Debug3fmt
FN:164,_RNvMNtCs5xYBAi2tWzh_3fvm10state_treeNtB2_14StateSnapshots9set_actor
FN:136,_RNCNvMNtCs5xYBAi2tWzh_3fvm10state_treeNtB4_14StateSnapshots21cache_resolve_address0B6_
FN:167,_RNCNvMNtCs5xYBAi2tWzh_3fvm10state_treeNtB4_14StateSnapshots9set_actor0B6_
FN:62,_RNvMNtCs5xYBAi2tWzh_3fvm10state_treeNtB2_14StateSnapshots9add_layer
FN:151,_RNvMNtCs5xYBAi2tWzh_3fvm10state_treeNtB2_14StateSnapshots9get_actor
FN:41,_RNvXs2_NtCs5xYBAi2tWzh_3fvm10state_treeNtB5_14StateSnapLayerNtNtCslBoGNiFC398_4core7default7Default7defaultB7_
FN:83,_RNCNvMNtCs5xYBAi2tWzh_3fvm10state_treeNtB4_14StateSnapshots16merge_last_layer0B6_
FN:133,_RNvMNtCs5xYBAi2tWzh_3fvm10state_treeNtB2_14StateSnapshots21cache_resolve_address
FN:516,_RNvXNvXNvNvXsa_NtCs5xYBAi2tWzh_3fvm10state_treeNtBd_10ActorStateNtNtCsj3WkLEH4Ge0_5serde2de11Deserialize11deserialize1__NtB7_5InnerB10_11deserializeNtB2_9___VisitorNtB12_7Visitor9expecting
FN:183,_RNCNvMNtCs5xYBAi2tWzh_3fvm10state_treeNtB4_14StateSnapshots12delete_actor0B6_
FN:551,_RNvMs0_NtCs5xYBAi2tWzh_3fvm10state_treeNtB5_10ActorState13deposit_funds
FN:56,_RNvMNtCs5xYBAi2tWzh_3fvm10state_treeNtB2_14StateSnapshots3new
FN:121,_RNvMNtCs5xYBAi2tWzh_3fvm10state_treeNtB2_14StateSnapshots15resolve_address
FN:69,_RNCNvMNtCs5xYBAi2tWzh_3fvm10state_treeNtB4_14StateSnapshots10drop_layer0B6_
FN:516,_RNvXs7_NtCs5xYBAi2tWzh_3fvm10state_treeNtB5_10ActorStateNtNtCslBoGNiFC398_4core5clone5Clone5cloneB7_
FN:540,_RNvMs0_NtCs5xYBAi2tWzh_3fvm10state_treeNtB5_10ActorState12deduct_funds
FN:67,_RNvMNtCs5xYBAi2tWzh_3fvm10state_treeNtB2_14StateSnapshots10drop_layer
FN:531,_RNvMs0_NtCs5xYBAi2tWzh_3fvm10state_treeNtB5_10ActorState3new
FN:101,_RNCNvMNtCs5xYBAi2tWzh_3fvm10state_treeNtB4_14StateSnapshots16merge_last_layers_0B6_
FN:180,_RNvMNtCs5xYBAi2tWzh_3fvm10state_treeNtB2_14StateSnapshots12delete_actor
FN:80,_RNvMNtCs5xYBAi2tWzh_3fvm10state_treeNtB2_14StateSnapshots16merge_last_layer
FN:516,_RNvXs8_NtCs5xYBAi2tWzh_3fvm10state_treeNtB5_10ActorStateNtNtCslBoGNiFC398_4core3fmt5Debug3fmt
FNDA:0,_RNvMs0_NtCs2gD7la8YEGu_3fvm10state_treeNtB5_10ActorState12deduct_funds
FNDA:0,_RNvXNvXNvNvXsa_NtCs2gD7la8YEGu_3fvm10state_treeNtBd_10ActorStateNtNtCsj3WkLEH4Ge0_5serde2de11Deserialize11deserialize1__NtB7_5InnerB10_11deserializeNtB2_9___VisitorNtB12_7Visitor9expecting
FNDA:0,_RINvMs_NtCs2gD7la8YEGu_3fvm10state_treeINtB5_9StateTreepE8for_eachpEB7_
FNDA:0,_RNvXs1_NtCs2gD7la8YEGu_3fvm10state_treeNtB5_14StateSnapLayerNtNtCslBoGNiFC398_4core3fmt5Debug3fmt
FNDA:0,_RNCINvMs_NtCs2gD7la8YEGu_3fvm10state_treeINtB7_9StateTreepE8for_eachpE0B9_
FNDA:0,_RNvMs0_NtCs2gD7la8YEGu_3fvm10state_treeNtB5_10ActorState13deposit_funds
FNDA:0,_RNCNvNtNtCs2gD7la8YEGu_3fvm10state_tree5testss_14get_set_non_id0B7_
FNDA:1,_RNCNvNtNtCs2gD7la8YEGu_3fvm10state_tree5tests17test_transactions0B7_
FNDA:1,_RNCNvNtNtCs2gD7la8YEGu_3fvm10state_tree5tests14get_set_non_id0B7_
FNDA:1,_RNCNvNtNtCs2gD7la8YEGu_3fvm10state_tree5tests20unsupported_versions0B7_
FNDA:1,_RNvNtNtCs2gD7la8YEGu_3fvm10state_tree5testss_18revert_transaction
FNDA:1,_RNvNtNtCs2gD7la8YEGu_3fvm10state_tree5testss_17test_transactions
FNDA:1,_RNCNvNtNtCs2gD7la8YEGu_3fvm10state_tree5testss_14get_set_non_ids_0B7_
FNDA:1,_RNCNvNtNtCs2gD7la8YEGu_3fvm10state_tree5tests18revert_transaction0B7_
FNDA:6,_RNvNtNtCs2gD7la8YEGu_3fvm10state_tree5tests9empty_cid
FNDA:1,_RNvNtNtCs2gD7la8YEGu_3fvm10state_tree5testss_13get_set_cache
FNDA:1,_RNvNtNtCs2gD7la8YEGu_3fvm10state_tree5testss_12delete_actor
FNDA:1,_RNvNtNtCs2gD7la8YEGu_3fvm10state_tree5testss_14get_set_non_id
FNDA:1,_RNCNvNtNtCs2gD7la8YEGu_3fvm10state_tree5tests12delete_actor0B7_
FNDA:1,_RNvNtNtCs2gD7la8YEGu_3fvm10state_tree5testss_20unsupported_versions
FNDA:1,_RNCNvNtNtCs2gD7la8YEGu_3fvm10state_tree5tests13get_set_cache0B7_
FNDA:3,_RINvXs9_NtCs2gD7la8YEGu_3fvm10state_treeNtB6_10ActorStateNtNtCsj3WkLEH4Ge0_5serde3ser9Serialize9serializeQINtNtCs7jq4FGjB44s_18serde_ipld_dagcbor3ser10SerializerNtNtNtCshVKh6t4RGJQ_7cbor4ii4core5utils9BufWriterEEB8_
FNDA:0,_RINvXNvXNvXNvNvXsa_NtCs2gD7la8YEGu_3fvm10state_treeNtBh_10ActorStateNtNtCsj3WkLEH4Ge0_5serde2de11Deserialize11deserialize1__NtBb_5InnerB14_11deserializeNtB6_9___VisitorNtB16_7Visitor9visit_seqNtB3_17___DeserializeWithB14_11deserializeNtNtCsh2sCZRDX7aL_12libipld_core4ipld4IpldEBj_
FNDA:6,_RNvMs_NtCs2gD7la8YEGu_3fvm10state_treeINtB4_9StateTreeRNtNtCslbkBntY5hAO_19fvm_ipld_blockstore6memory16MemoryBlockstoreE5storeB6_
FNDA:6,_RNvXs4_NtCs2gD7la8YEGu_3fvm10state_treeNtB5_10ActorStateNtNtCslBoGNiFC398_4core3cmp9PartialEq2eqB7_
FNDA:1,_RNvMs_NtCs2gD7la8YEGu_3fvm10state_treeINtB4_9StateTreeNtNtCslbkBntY5hAO_19fvm_ipld_blockstore6memory16MemoryBlockstoreE5flushB6_
FNDA:1,_RNvMs_NtCs2gD7la8YEGu_3fvm10state_treeINtB4_9StateTreeRNtNtCslbkBntY5hAO_19fvm_ipld_blockstore6memory16MemoryBlockstoreE20register_new_addressB6_
FNDA:7,_RNvMNtCs2gD7la8YEGu_3fvm10state_treeNtB2_14StateSnapshots3new
FNDA:0,_RNCNvMNtCs2gD7la8YEGu_3fvm10state_treeNtB4_14StateSnapshots9set_actor0B6_
FNDA:1,_RNvMNtCs2gD7la8YEGu_3fvm10state_treeNtB2_14StateSnapshots16merge_last_layer
FNDA:1,_RNvMs_NtCs2gD7la8YEGu_3fvm10state_treeINtB4_9StateTreeNtNtCslbkBntY5hAO_19fvm_ipld_blockstore6memory16MemoryBlockstoreE3newB6_
FNDA:0,_RNCNvMNtCs2gD7la8YEGu_3fvm10state_treeNtB4_14StateSnapshots10drop_layer0B6_
FNDA:1,_RNvMs_NtCs2gD7la8YEGu_3fvm10state_treeINtB4_9StateTreeINtNtNtB6_10blockstore8buffered18BufferedBlockstoreNtNtCslbkBntY5hAO_19fvm_ipld_blockstore6memory16MemoryBlockstoreEE13new_from_rootB6_
FNDA:0,_RNvMNtCs2gD7la8YEGu_3fvm10state_treeNtB2_14StateSnapshots21cache_resolve_address
FNDA:0,_RNvMs_NtCs2gD7la8YEGu_3fvm10state_treeINtB4_9StateTreeINtNtNtB6_10blockstore8buffered18BufferedBlockstoreNtNtCslbkBntY5hAO_19fvm_ipld_blockstore6memory16MemoryBlockstoreEE9get_actorB6_
FNDA:0,_RNCNvMs_NtCs2gD7la8YEGu_3fvm10state_treeINtB6_9StateTreeINtNtNtB8_10blockstore8buffered18BufferedBlockstoreNtNtCslbkBntY5hAO_19fvm_ipld_blockstore6memory16MemoryBlockstoreEE12get_actor_id0B8_
FNDA:1,_RINvMs_NtCs2gD7la8YEGu_3fvm10state_treeINtB5_9StateTreeRNtNtCslbkBntY5hAO_19fvm_ipld_blockstore6memory16MemoryBlockstoreE21maybe_mutate_actor_idNCNvNtB5_5testss_14get_set_non_ids_0EB7_
FNDA:2,_RNvMs_NtCs2gD7la8YEGu_3fvm10state_treeINtB4_9StateTreeRNtNtCslbkBntY5hAO_19fvm_ipld_blockstore6memory16MemoryBlockstoreE5flushB6_
FNDA:22,_RNvMs_NtCs2gD7la8YEGu_3fvm10state_treeINtB4_9StateTreeRNtNtCslbkBntY5hAO_19fvm_ipld_blockstore6memory16MemoryBlockstoreE9lookup_idB6_
FNDA:0,_RNvXs8_NtCs2gD7la8YEGu_3fvm10state_treeNtB5_10ActorStateNtNtCslBoGNiFC398_4core3fmt5Debug3fmt
FNDA:0,_RINvXNvXNvNvXsa_NtCs2gD7la8YEGu_3fvm10state_treeNtBe_10ActorStateNtNtCsj3WkLEH4Ge0_5serde2de11Deserialize11deserialize1__NtB8_5InnerB11_11deserializeNtB3_9___VisitorNtB13_7Visitor9visit_seqQNtNtNtCsh2sCZRDX7aL_12libipld_core5serde2de15SeqDeserializerEBg_
FNDA:3,_RINvXNvXNvNvXs9_NtCs2gD7la8YEGu_3fvm10state_treeNtBe_10ActorStateNtNtCsj3WkLEH4Ge0_5serde3ser9Serialize9serialize1__NtB8_5InnerB11_9serializeNtB3_15___SerializeWithB11_9serializeQINtNtCs7jq4FGjB44s_18serde_ipld_dagcbor3ser10SerializerNtNtNtCshVKh6t4RGJQ_7cbor4ii4core5utils9BufWriterEEBg_
FNDA:1,_RNCINvMs_NtCs2gD7la8YEGu_3fvm10state_treeINtB7_9StateTreeRNtNtCslbkBntY5hAO_19fvm_ipld_blockstore6memory16MemoryBlockstoreE15mutate_actor_idNCNvNtB7_5testss_14get_set_non_ids_0E0B9_
FNDA:0,_RNCINvXNvXNvNvXsa_NtCs2gD7la8YEGu_3fvm10state_treeNtBg_10ActorStateNtNtCsj3WkLEH4Ge0_5serde2de11Deserialize11deserialize1__NtBa_5InnerB13_11deserializeNtB5_9___VisitorNtB15_7Visitor9visit_seqQNtNtNtCsh2sCZRDX7aL_12libipld_core5serde2de15SeqDeserializerE0Bi_
FNDA:2,_RNvMs_NtCs2gD7la8YEGu_3fvm10state_treeINtB4_9StateTreeRNtNtCslbkBntY5hAO_19fvm_ipld_blockstore6memory16MemoryBlockstoreE15end_transactionB6_
FNDA:1,_RNvMs_NtCs2gD7la8YEGu_3fvm10state_treeINtB4_9StateTreeRNtNtCslbkBntY5hAO_19fvm_ipld_blockstore6memory16MemoryBlockstoreE15delete_actor_idB6_
FNDA:2,_RNvMs_NtCs2gD7la8YEGu_3fvm10state_treeINtB4_9StateTreeINtNtNtB6_10blockstore8buffered18BufferedBlockstoreNtNtCslbkBntY5hAO_19fvm_ipld_blockstore6memory16MemoryBlockstoreEE5storeB6_
FNDA:3,_RNvMs_NtCs2gD7la8YEGu_3fvm10state_treeINtB4_9StateTreeRNtNtCslbkBntY5hAO_19fvm_ipld_blockstore6memory16MemoryBlockstoreE17begin_transactionB6_
FNDA:0,_RNvMNtCs2gD7la8YEGu_3fvm10state_treeNtB2_14StateSnapshots15resolve_address
FNDA:0,_RINvXNvNvXsa_NtCs2gD7la8YEGu_3fvm10state_treeNtBb_10ActorStateNtNtCsj3WkLEH4Ge0_5serde2de11Deserialize11deserialize1__NtB5_5InnerBY_11deserializeINtCs66xhiZNt6H5_11serde_tuple12DeserializerNtNtCsh2sCZRDX7aL_12libipld_core4ipld4IpldEEBd_
FNDA:11,_RNvMs_NtCs2gD7la8YEGu_3fvm10state_treeINtB4_9StateTreeRNtNtCslbkBntY5hAO_19fvm_ipld_blockstore6memory16MemoryBlockstoreE12set_actor_idB6_
FNDA:1,_RINvMs_NtCs2gD7la8YEGu_3fvm10state_treeINtB5_9StateTreeRNtNtCslbkBntY5hAO_19fvm_ipld_blockstore6memory16MemoryBlockstoreE12mutate_actorNCNvNtB5_5testss_14get_set_non_ids_0EB7_
FNDA:1,_RNvMs_NtCs2gD7la8YEGu_3fvm10state_treeINtB4_9StateTreeRNtNtCslbkBntY5hAO_19fvm_ipld_blockstore6memory16MemoryBlockstoreE12delete_actorB6_
FNDA:8,_RNvMs_NtCs2gD7la8YEGu_3fvm10state_treeINtB4_9StateTreeRNtNtCslbkBntY5hAO_19fvm_ipld_blockstore6memory16MemoryBlockstoreE3newB6_
FNDA:11,_RNvMs_NtCs2gD7la8YEGu_3fvm10state_treeINtB4_9StateTreeRNtNtCslbkBntY5hAO_19fvm_ipld_blockstore6memory16MemoryBlockstoreE12get_actor_idB6_
FNDA:11,_RNvMNtCs2gD7la8YEGu_3fvm10state_treeNtB2_14StateSnapshots9set_actor
FNDA:1,_RINvMs_NtCs2gD7la8YEGu_3fvm10state_treeINtB5_9StateTreeRNtNtCslbkBntY5hAO_19fvm_ipld_blockstore6memory16MemoryBlockstoreE15mutate_actor_idNCNvNtB5_5testss_14get_set_non_ids_0EB7_
FNDA:3,_RINvXNvNvXs9_NtCs2gD7la8YEGu_3fvm10state_treeNtBb_10ActorStateNtNtCsj3WkLEH4Ge0_5serde3ser9Serialize9serialize1__NtB5_5InnerBY_9serializeINtCs66xhiZNt6H5_11serde_tuple10SerializerQINtNtCs7jq4FGjB44s_18serde_ipld_dagcbor3ser10SerializerNtNtNtCshVKh6t4RGJQ_7cbor4ii4core5utils9BufWriterEEEBd_
FNDA:1,_RNvMs_NtCs2gD7la8YEGu_3fvm10state_treeINtB4_9StateTreeNtNtCslbkBntY5hAO_19fvm_ipld_blockstore6memory16MemoryBlockstoreE5storeB6_
FNDA:2,_RNvMNtCs2gD7la8YEGu_3fvm10state_treeNtB2_14StateSnapshots10drop_layer
FNDA:0,_RNCNvMNtCs2gD7la8YEGu_3fvm10state_treeNtB4_14StateSnapshots12delete_actor0B6_
FNDA:0,_RNCNvMs_NtCs2gD7la8YEGu_3fvm10state_treeINtB6_9StateTreeRNtNtCslbkBntY5hAO_19fvm_ipld_blockstore6memory16MemoryBlockstoreE9set_actor0B8_
FNDA:0,_RNCNvMNtCs2gD7la8YEGu_3fvm10state_treeNtB4_14StateSnapshots16merge_last_layer0B6_
FNDA:0,_RINvXsa_NtCs2gD7la8YEGu_3fvm10state_treeNtB6_10ActorStateNtNtCsj3WkLEH4Ge0_5serde2de11Deserialize11deserializeNtNtCsh2sCZRDX7aL_12libipld_core4ipld4IpldEB8_
FNDA:0,_RNCNvMs_NtCs2gD7la8YEGu_3fvm10state_treeINtB6_9StateTreeRNtNtCslbkBntY5hAO_19fvm_ipld_blockstore6memory16MemoryBlockstoreE12delete_actor0B8_
FNDA:14,_RNvXs7_NtCs2gD7la8YEGu_3fvm10state_treeNtB5_10ActorStateNtNtCslBoGNiFC398_4core5clone5Clone5cloneB7_
FNDA:0,_RNCNvMNtCs2gD7la8YEGu_3fvm10state_treeNtB4_14StateSnapshots16merge_last_layers_0B6_
FNDA:11,_RNvMs0_NtCs2gD7la8YEGu_3fvm10state_treeNtB5_10ActorState3new
FNDA:10,_RNvMs_NtCs2gD7la8YEGu_3fvm10state_treeINtB4_9StateTreeRNtNtCslbkBntY5hAO_19fvm_ipld_blockstore6memory16MemoryBlockstoreE9get_actorB6_
FNDA:3,_RNvMNtCs2gD7la8YEGu_3fvm10state_treeNtB2_14StateSnapshots9add_layer
FNDA:0,_RNvMs_NtCs2gD7la8YEGu_3fvm10state_treeINtB4_9StateTreeINtNtNtB6_10blockstore8buffered18BufferedBlockstoreNtNtCslbkBntY5hAO_19fvm_ipld_blockstore6memory16MemoryBlockstoreEE12get_actor_idB6_
FNDA:1,_RNvMNtCs2gD7la8YEGu_3fvm10state_treeNtB2_14StateSnapshots12delete_actor
FNDA:0,_RNvXs4_NtCs2gD7la8YEGu_3fvm10state_treeNtB5_10ActorStateNtNtCslBoGNiFC398_4core3cmp9PartialEq2neB7_
FNDA:11,_RNvMNtCs2gD7la8YEGu_3fvm10state_treeNtB2_14StateSnapshots9get_actor
FNDA:0,_RNCNvMs_NtCs2gD7la8YEGu_3fvm10state_treeINtB6_9StateTreeRNtNtCslbkBntY5hAO_19fvm_ipld_blockstore6memory16MemoryBlockstoreE12get_actor_id0B8_
FNDA:0,_RNCNvMNtCs2gD7la8YEGu_3fvm10state_treeNtB4_14StateSnapshots21cache_resolve_address0B6_
FNDA:10,_RNvMs_NtCs2gD7la8YEGu_3fvm10state_treeINtB4_9StateTreeRNtNtCslbkBntY5hAO_19fvm_ipld_blockstore6memory16MemoryBlockstoreE9set_actorB6_
FNDA:0,_RNvMs_NtCs2gD7la8YEGu_3fvm10state_treeINtB4_9StateTreeINtNtNtB6_10blockstore8buffered18BufferedBlockstoreNtNtCslbkBntY5hAO_19fvm_ipld_blockstore6memory16MemoryBlockstoreEE9lookup_idB6_
FNDA:1,_RNvMs_NtCs2gD7la8YEGu_3fvm10state_treeINtB4_9StateTreeNtNtCslbkBntY5hAO_19fvm_ipld_blockstore6memory16MemoryBlockstoreE10into_storeB6_
FNDA:10,_RNvXs2_NtCs2gD7la8YEGu_3fvm10state_treeNtB5_14StateSnapLayerNtNtCslBoGNiFC398_4core7default7Default7defaultB7_
FNDA:0,_RINvXsa_NtCs5xYBAi2tWzh_3fvm10state_treeNtB6_10ActorStateNtNtCsj3WkLEH4Ge0_5serde2de11Deserialize11deserializeNtNtCsh2sCZRDX7aL_12libipld_core4ipld4IpldECs4BSQmiRtlYl_3fvm
FNDA:0,_RINvXs9_NtCs5xYBAi2tWzh_3fvm10state_treeNtB6_10ActorStateNtNtCsj3WkLEH4Ge0_5serde3ser9Serialize9serializeQINtNtCs7jq4FGjB44s_18serde_ipld_dagcbor3ser10SerializerNtNtNtCshVKh6t4RGJQ_7cbor4ii4core5utils9BufWriterEECs4BSQmiRtlYl_3fvm
FNDA:18,_RNvMs_NtCs5xYBAi2tWzh_3fvm10state_treeINtB4_9StateTreeNtNtCslbkBntY5hAO_19fvm_ipld_blockstore6memory16MemoryBlockstoreE3newCs4BSQmiRtlYl_3fvm
FNDA:0,_RINvXNvXNvNvXsa_NtCs5xYBAi2tWzh_3fvm10state_treeNtBe_10ActorStateNtNtCsj3WkLEH4Ge0_5serde2de11Deserialize11deserialize1__NtB8_5InnerB11_11deserializeNtB3_9___VisitorNtB13_7Visitor9visit_seqQNtNtNtCsh2sCZRDX7aL_12libipld_core5serde2de15SeqDeserializerECs4BSQmiRtlYl_3fvm
FNDA:0,_RNCINvXNvXNvNvXsa_NtCs5xYBAi2tWzh_3fvm10state_treeNtBg_10ActorStateNtNtCsj3WkLEH4Ge0_5serde2de11Deserialize11deserialize1__NtBa_5InnerB13_11deserializeNtB5_9___VisitorNtB15_7Visitor9visit_seqQNtNtNtCsh2sCZRDX7aL_12libipld_core5serde2de15SeqDeserializerE0Cs4BSQmiRtlYl_3fvm
FNDA:0,_RNvXs7_NtCs5xYBAi2tWzh_3fvm10state_treeNtB5_10ActorStateNtNtCslBoGNiFC398_4core5clone5Clone5cloneCs4BSQmiRtlYl_3fvm
FNDA:24,_RNvMs_NtCs5xYBAi2tWzh_3fvm10state_treeINtB4_9StateTreeNtNtCslbkBntY5hAO_19fvm_ipld_blockstore6memory16MemoryBlockstoreE5storeCs4BSQmiRtlYl_3fvm
FNDA:0,_RINvXNvXNvNvXs9_NtCs5xYBAi2tWzh_3fvm10state_treeNtBe_10ActorStateNtNtCsj3WkLEH4Ge0_5serde3ser9Serialize9serialize1__NtB8_5InnerB11_9serializeNtB3_15___SerializeWithB11_9serializeQINtNtCs7jq4FGjB44s_18serde_ipld_dagcbor3ser10SerializerNtNtNtCshVKh6t4RGJQ_7cbor4ii4core5utils9BufWriterEECs4BSQmiRtlYl_3fvm
FNDA:0,_RNvXs4_NtCs5xYBAi2tWzh_3fvm10state_treeNtB5_10ActorStateNtNtCslBoGNiFC398_4core3cmp9PartialEq2neCs4BSQmiRtlYl_3fvm
FNDA:18,_RNvMs_NtCs5xYBAi2tWzh_3fvm10state_treeINtB4_9StateTreeNtNtCslbkBntY5hAO_19fvm_ipld_blockstore6memory16MemoryBlockstoreE5flushCs4BSQmiRtlYl_3fvm
FNDA:0,_RINvXNvXNvXNvNvXsa_NtCs5xYBAi2tWzh_3fvm10state_treeNtBh_10ActorStateNtNtCsj3WkLEH4Ge0_5serde2de11Deserialize11deserialize1__NtBb_5InnerB14_11deserializeNtB6_9___VisitorNtB16_7Visitor9visit_seqNtB3_17___DeserializeWithB14_11deserializeNtNtCsh2sCZRDX7aL_12libipld_core4ipld4IpldECs4BSQmiRtlYl_3fvm
FNDA:18,_RNvMs_NtCs5xYBAi2tWzh_3fvm10state_treeINtB4_9StateTreeNtNtCslbkBntY5hAO_19fvm_ipld_blockstore6memory16MemoryBlockstoreE13new_from_rootCs4BSQmiRtlYl_3fvm
FNDA:0,_RINvXNvNvXs9_NtCs5xYBAi2tWzh_3fvm10state_treeNtBb_10ActorStateNtNtCsj3WkLEH4Ge0_5serde3ser9Serialize9serialize1__NtB5_5InnerBY_9serializeINtCs66xhiZNt6H5_11serde_tuple10SerializerQINtNtCs7jq4FGjB44s_18serde_ipld_dagcbor3ser10SerializerNtNtNtCshVKh6t4RGJQ_7cbor4ii4core5utils9BufWriterEEECs4BSQmiRtlYl_3fvm
FNDA:0,_RINvXNvNvXsa_NtCs5xYBAi2tWzh_3fvm10state_treeNtBb_10ActorStateNtNtCsj3WkLEH4Ge0_5serde2de11Deserialize11deserialize1__NtB5_5InnerBY_11deserializeINtCs66xhiZNt6H5_11serde_tuple12DeserializerNtNtCsh2sCZRDX7aL_12libipld_core4ipld4IpldEECs4BSQmiRtlYl_3fvm
FNDA:18,_RNvMs_NtCs5xYBAi2tWzh_3fvm10state_treeINtB4_9StateTreeNtNtCslbkBntY5hAO_19fvm_ipld_blockstore6memory16MemoryBlockstoreE10into_storeCs4BSQmiRtlYl_3fvm
FNDA:0,_RNvMs_NtCs5xYBAi2tWzh_3fvm10state_treeINtB4_9StateTreepE15delete_actor_idB6_
FNDA:0,_RINvMs_NtCs5xYBAi2tWzh_3fvm10state_treeINtB5_9StateTreepE8for_eachpEB7_
FNDA:0,_RINvXNvXNvXNvNvXsa_NtCs5xYBAi2tWzh_3fvm10state_treeNtBh_10ActorStateNtNtCsj3WkLEH4Ge0_5serde2de11Deserialize11deserialize1__NtBb_5InnerB14_11deserializeNtB6_9___VisitorNtB16_7Visitor9visit_seqNtB3_17___DeserializeWithB14_11deserializepEBj_
FNDA:0,_RNCNvMs_NtCs5xYBAi2tWzh_3fvm10state_treeINtB6_9StateTreepE12delete_actor0B8_
FNDA:0,_RINvXs9_NtCs5xYBAi2tWzh_3fvm10state_treeNtB6_10ActorStateNtNtCsj3WkLEH4Ge0_5serde3ser9Serialize9serializepEB8_
FNDA:0,_RNvXs4_NtCs5xYBAi2tWzh_3fvm10state_treeNtB5_10ActorStateNtNtCslBoGNiFC398_4core3cmp9PartialEq2eqB7_
FNDA:0,_RNvMs_NtCs5xYBAi2tWzh_3fvm10state_treeINtB4_9StateTreepE13new_from_rootB6_
FNDA:0,_RNvMs_NtCs5xYBAi2tWzh_3fvm10state_treeINtB4_9StateTreepE9lookup_idB6_
FNDA:0,_RINvMs_NtCs5xYBAi2tWzh_3fvm10state_treeINtB5_9StateTreepE21maybe_mutate_actor_idpEB7_
FNDA:0,_RNvMs_NtCs5xYBAi2tWzh_3fvm10state_treeINtB4_9StateTreepE12set_actor_idB6_
FNDA:0,_RNCNvMs_NtCs5xYBAi2tWzh_3fvm10state_treeINtB6_9StateTreepE9set_actor0B8_
FNDA:0,_RNvMs_NtCs5xYBAi2tWzh_3fvm10state_treeINtB4_9StateTreepE20register_new_addressB6_
FNDA:0,_RNvMs_NtCs5xYBAi2tWzh_3fvm10state_treeINtB4_9StateTreepE12get_actor_idB6_
FNDA:0,_RINvXsa_NtCs5xYBAi2tWzh_3fvm10state_treeNtB6_10ActorStateNtNtCsj3WkLEH4Ge0_5serde2de11Deserialize11deserializepEB8_
FNDA:0,_RNvMs_NtCs5xYBAi2tWzh_3fvm10state_treeINtB4_9StateTreepE5flushB6_
FNDA:0,_RNvMs_NtCs5xYBAi2tWzh_3fvm10state_treeINtB4_9StateTreepE15end_transactionB6_
FNDA:0,_RINvXNvNvXs9_NtCs5xYBAi2tWzh_3fvm10state_treeNtBb_10ActorStateNtNtCsj3WkLEH4Ge0_5serde3ser9Serialize9serialize1__NtB5_5InnerBY_9serializepEBd_
FNDA:0,_RNCINvMs_NtCs5xYBAi2tWzh_3fvm10state_treeINtB7_9StateTreepE8for_eachpE0B9_
FNDA:0,_RINvXNvNvXsa_NtCs5xYBAi2tWzh_3fvm10state_treeNtBb_10ActorStateNtNtCsj3WkLEH4Ge0_5serde2de11Deserialize11deserialize1__NtB5_5InnerBY_11deserializepEBd_
FNDA:0,_RNCINvMs_NtCs5xYBAi2tWzh_3fvm10state_treeINtB7_9StateTreepE15mutate_actor_idpE0B9_
FNDA:0,_RNvMs_NtCs5xYBAi2tWzh_3fvm10state_treeINtB4_9StateTreepE3newB6_
FNDA:0,_RNvMs_NtCs5xYBAi2tWzh_3fvm10state_treeINtB4_9StateTreepE9get_actorB6_
FNDA:0,_RINvXNvXNvNvXs9_NtCs5xYBAi2tWzh_3fvm10state_treeNtBe_10ActorStateNtNtCsj3WkLEH4Ge0_5serde3ser9Serialize9serialize1__NtB8_5InnerB11_9serializeNtB3_15___SerializeWithB11_9serializepEBg_
FNDA:0,_RNvMs_NtCs5xYBAi2tWzh_3fvm10state_treeINtB4_9StateTreepE5storeB6_
FNDA:0,_RINvMs_NtCs5xYBAi2tWzh_3fvm10state_treeINtB5_9StateTreepE12mutate_actorpEB7_
FNDA:0,_RNvMs_NtCs5xYBAi2tWzh_3fvm10state_treeINtB4_9StateTreepE17begin_transactionB6_
FNDA:0,_RNCINvXNvXNvNvXsa_NtCs5xYBAi2tWzh_3fvm10state_treeNtBg_10ActorStateNtNtCsj3WkLEH4Ge0_5serde2de11Deserialize11deserialize1__NtBa_5InnerB13_11deserializeNtB5_9___VisitorNtB15_7Visitor9visit_seqpE0Bi_
FNDA:0,_RNCNvMs_NtCs5xYBAi2tWzh_3fvm10state_treeINtB6_9StateTreepE12get_actor_id0B8_
FNDA:0,_RNvMs_NtCs5xYBAi2tWzh_3fvm10state_treeINtB4_9StateTreepE10into_storeB6_
FNDA:0,_RINvXNvXNvNvXsa_NtCs5xYBAi2tWzh_3fvm10state_treeNtBe_10ActorStateNtNtCsj3WkLEH4Ge0_5serde2de11Deserialize11deserialize1__NtB8_5InnerB11_11deserializeNtB3_9___VisitorNtB13_7Visitor9visit_seqpEBg_
FNDA:0,_RINvMs_NtCs5xYBAi2tWzh_3fvm10state_treeINtB5_9StateTreepE15mutate_actor_idpEB7_
FNDA:0,_RNvXs4_NtCs5xYBAi2tWzh_3fvm10state_treeNtB5_10ActorStateNtNtCslBoGNiFC398_4core3cmp9PartialEq2neB7_
FNDA:0,_RNvMs_NtCs5xYBAi2tWzh_3fvm10state_treeINtB4_9StateTreepE9set_actorB6_
FNDA:0,_RNvMs_NtCs5xYBAi2tWzh_3fvm10state_treeINtB4_9StateTreepE12delete_actorB6_
FNDA:0,_RNvXs1_NtCs5xYBAi2tWzh_3fvm10state_treeNtB5_14StateSnapLayerNtNtCslBoGNiFC398_4core3fmt5Debug3fmt
FNDA:0,_RNvMNtCs5xYBAi2tWzh_3fvm10state_treeNtB2_14StateSnapshots9set_actor
FNDA:0,_RNCNvMNtCs5xYBAi2tWzh_3fvm10state_treeNtB4_14StateSnapshots21cache_resolve_address0B6_
FNDA:0,_RNCNvMNtCs5xYBAi2tWzh_3fvm10state_treeNtB4_14StateSnapshots9set_actor0B6_
FNDA:0,_RNvMNtCs5xYBAi2tWzh_3fvm10state_treeNtB2_14StateSnapshots9add_layer
FNDA:0,_RNvMNtCs5xYBAi2tWzh_3fvm10state_treeNtB2_14StateSnapshots9get_actor
FNDA:36,_RNvXs2_NtCs5xYBAi2tWzh_3fvm10state_treeNtB5_14StateSnapLayerNtNtCslBoGNiFC398_4core7default7Default7defaultB7_
FNDA:0,_RNCNvMNtCs5xYBAi2tWzh_3fvm10state_treeNtB4_14StateSnapshots16merge_last_layer0B6_
FNDA:0,_RNvMNtCs5xYBAi2tWzh_3fvm10state_treeNtB2_14StateSnapshots21cache_resolve_address
FNDA:0,_RNvXNvXNvNvXsa_NtCs5xYBAi2tWzh_3fvm10state_treeNtBd_10ActorStateNtNtCsj3WkLEH4Ge0_5serde2de11Deserialize11deserialize1__NtB7_5InnerB10_11deserializeNtB2_9___VisitorNtB12_7Visitor9expecting
FNDA:0,_RNCNvMNtCs5xYBAi2tWzh_3fvm10state_treeNtB4_14StateSnapshots12delete_actor0B6_
FNDA:0,_RNvMs0_NtCs5xYBAi2tWzh_3fvm10state_treeNtB5_10ActorState13deposit_funds
FNDA:36,_RNvMNtCs5xYBAi2tWzh_3fvm10state_treeNtB2_14StateSnapshots3new
FNDA:0,_RNvMNtCs5xYBAi2tWzh_3fvm10state_treeNtB2_14StateSnapshots15resolve_address
FNDA:0,_RNCNvMNtCs5xYBAi2tWzh_3fvm10state_treeNtB4_14StateSnapshots10drop_layer0B6_
FNDA:0,_RNvXs7_NtCs5xYBAi2tWzh_3fvm10state_treeNtB5_10ActorStateNtNtCslBoGNiFC398_4core5clone5Clone5cloneB7_
FNDA:0,_RNvMs0_NtCs5xYBAi2tWzh_3fvm10state_treeNtB5_10ActorState12deduct_funds
FNDA:0,_RNvMNtCs5xYBAi2tWzh_3fvm10state_treeNtB2_14StateSnapshots10drop_layer
FNDA:0,_RNvMs0_NtCs5xYBAi2tWzh_3fvm10state_treeNtB5_10ActorState3new
FNDA:0,_RNCNvMNtCs5xYBAi2tWzh_3fvm10state_treeNtB4_14StateSnapshots16merge_last_layers_0B6_
FNDA:0,_RNvMNtCs5xYBAi2tWzh_3fvm10state_treeNtB2_14StateSnapshots12delete_actor
FNDA:0,_RNvMNtCs5xYBAi2tWzh_3fvm10state_treeNtB2_14StateSnapshots16merge_last_layer
FNDA:0,_RNvXs8_NtCs5xYBAi2tWzh_3fvm10state_treeNtB5_10ActorStateNtNtCslBoGNiFC398_4core3fmt5Debug3fmt
FNF:64
FNH:45
DA:41,46
DA:56,43
DA:57,43
DA:58,43
DA:59,43
DA:60,43
DA:62,3
DA:63,3
DA:64,3
DA:67,2
DA:68,2
DA:69,2
DA:70,0
DA:71,0
DA:72,0
DA:73,0
DA:74,2
DA:75,2
DA:77,2
DA:78,2
DA:80,1
DA:81,1
DA:82,1
DA:83,1
DA:84,0
DA:85,0
DA:86,0
DA:87,0
DA:88,1
DA:89,1
DA:91,1
DA:92,1
DA:93,1
DA:94,1
DA:95,1
DA:96,1
DA:97,1
DA:98,1
DA:99,1
DA:100,1
DA:101,1
DA:102,0
DA:103,0
DA:104,0
DA:105,0
DA:106,1
DA:107,1
DA:109,1
DA:110,1
DA:111,1
DA:112,1
DA:113,1
DA:114,1
DA:115,1
DA:116,1
DA:117,1
DA:118,1
DA:121,0
DA:122,0
DA:123,0
DA:124,0
DA:125,0
DA:126,0
DA:127,0
DA:130,0
DA:131,0
DA:133,0
DA:134,0
DA:135,0
DA:136,0
DA:137,0
DA:138,0
DA:139,0
DA:140,0
DA:141,0
DA:142,0
DA:144,0
DA:145,0
DA:146,0
DA:147,0
DA:148,0
DA:151,11
DA:152,11
DA:153,11
DA:154,9
DA:155,9
DA:156,9
DA:157,9
DA:158,2
DA:161,2
DA:162,11
DA:164,11
DA:165,11
DA:166,11
DA:167,11
DA:168,0
DA:169,0
DA:170,0
DA:171,0
DA:172,11
DA:173,11
DA:175,11
DA:176,11
DA:177,11
DA:178,11
DA:180,1
DA:181,1
DA:182,1
DA:183,1
DA:184,0
DA:185,0
DA:186,0
DA:187,0
DA:188,1
DA:189,1
DA:191,1
DA:192,1
DA:193,1
DA:194,1
DA:195,1
DA:202,27
DA:203,27
DA:205,3
DA:206,3
DA:207,3
DA:208,3
DA:211,24
DA:212,24
DA:213,24
DA:214,24
DA:215,24
DA:216,24
DA:217,24
DA:218,24
DA:219,24
DA:220,24
DA:221,24
DA:222,24
DA:223,24
DA:224,24
DA:225,24
DA:226,24
DA:227,27
DA:230,19
DA:232,19
DA:234,19
DA:235,19
DA:236,19
DA:237,19
DA:239,0
DA:240,0
DA:241,0
DA:242,0
DA:244,0
DA:245,0
DA:246,0
DA:247,0
DA:248,0
DA:249,0
DA:253,19
DA:255,0
DA:256,0
DA:257,0
DA:258,0
DA:261,19
DA:262,19
DA:263,19
DA:265,19
DA:266,19
DA:267,19
DA:268,19
DA:269,19
DA:270,19
DA:273,19
DA:276,33
DA:277,33
DA:278,33
DA:281,10
DA:282,10
DA:283,10
DA:284,0
DA:286,10
DA:287,10
DA:290,11
DA:291,11
DA:292,11
DA:293,8
DA:294,1
DA:297,2
DA:298,2
DA:299,2
DA:300,2
DA:301,2
DA:302,2
DA:303,2
DA:306,2
DA:307,0
DA:308,2
DA:310,2
DA:313,11
DA:316,10
DA:317,10
DA:318,10
DA:319,10
DA:320,10
DA:322,10
DA:323,10
DA:326,11
DA:327,11
DA:328,11
DA:332,22
DA:333,22
DA:334,0
DA:336,0
DA:337,0
DA:338,0
DA:340,0
DA:342,0
DA:343,0
DA:344,0
DA:345,0
DA:347,0
DA:348,0
DA:351,0
DA:353,0
DA:354,22
DA:357,1
DA:358,1
DA:359,1
DA:360,1
DA:361,1
DA:363,1
DA:364,1
DA:369,1
DA:371,1
DA:372,1
DA:376,1
DA:377,1
DA:378,1
DA:379,1
DA:380,1
DA:381,1
DA:382,0
DA:385,1
DA:386,1
DA:390,1
DA:391,1
DA:392,1
DA:393,1
DA:394,1
DA:395,1
DA:396,1
DA:398,0
DA:400,1
DA:401,1
DA:405,1
DA:406,1
DA:407,1
DA:408,1
DA:410,1
DA:411,1
DA:412,0
DA:416,1
DA:418,1
DA:419,1
DA:420,1
DA:423,1
DA:424,1
DA:426,1
DA:429,1
DA:430,1
DA:431,1
DA:432,1
DA:434,1
DA:436,1
DA:437,1
DA:440,3
DA:441,3
DA:442,3
DA:445,2
DA:446,2
DA:447,1
DA:449,1
DA:451,2
DA:454,21
DA:455,21
DA:456,0
DA:457,0
DA:458,0
DA:459,0
DA:460,21
DA:462,21
DA:463,3
DA:464,3
DA:466,0
DA:468,3
DA:469,3
DA:470,3
DA:471,3
DA:476,21
DA:478,21
DA:479,0
DA:481,21
DA:482,21
DA:483,21
DA:484,21
DA:485,21
DA:486,21
DA:487,21
DA:488,21
DA:489,21
DA:490,21
DA:491,21
DA:492,21
DA:493,21
DA:496,21
DA:499,19
DA:500,19
DA:501,19
DA:507,0
DA:508,0
DA:509,0
DA:510,0
DA:511,0
DA:512,0
DA:516,14
DA:531,11
DA:532,11
DA:533,11
DA:534,11
DA:535,11
DA:536,11
DA:537,11
DA:538,11
DA:540,0
DA:541,0
DA:542,0
DA:543,0
DA:544,0
DA:545,0
DA:546,0
DA:547,0
DA:548,0
DA:549,0
DA:551,0
DA:552,0
DA:553,0
DA:664,6
DA:665,6
DA:666,6
DA:668,1
DA:669,1
DA:670,1
DA:671,1
DA:672,1
DA:673,1
DA:674,1
DA:675,1
DA:676,1
DA:677,1
DA:679,1
DA:681,1
DA:683,1
DA:685,1
DA:686,1
DA:688,1
DA:689,1
DA:690,1
DA:691,1
DA:692,1
DA:693,1
DA:694,1
DA:695,1
DA:696,1
DA:697,1
DA:698,1
DA:699,1
DA:701,1
DA:702,1
DA:703,1
DA:704,1
DA:705,1
DA:706,1
DA:707,1
DA:708,1
DA:709,1
DA:710,1
DA:711,1
DA:712,1
DA:713,1
DA:714,1
DA:715,1
DA:716,1
DA:717,1
DA:718,1
DA:719,1
DA:720,1
DA:721,1
DA:722,1
DA:723,1
DA:724,1
DA:725,1
DA:726,1
DA:727,1
DA:728,1
DA:729,1
DA:730,1
DA:731,1
DA:732,1
DA:733,1
DA:734,1
DA:735,1
DA:736,1
DA:737,1
DA:738,1
DA:739,1
DA:740,1
DA:741,1
DA:742,1
DA:743,1
DA:746,1
DA:747,1
DA:748,1
DA:749,1
DA:750,1
DA:752,1
DA:753,1
DA:754,1
DA:755,1
DA:756,1
DA:757,1
DA:758,1
DA:759,3
DA:760,3
DA:761,3
DA:763,1
DA:764,1
DA:765,1
DA:766,1
DA:767,1
DA:768,1
DA:769,1
DA:770,1
DA:771,1
DA:772,1
DA:773,1
DA:774,1
DA:775,1
DA:776,1
DA:777,1
DA:778,1
DA:779,1
DA:780,1
DA:781,1
DA:782,1
DA:783,1
DA:784,1
DA:785,1
DA:786,1
DA:787,1
DA:788,1
DA:789,1
DA:790,1
DA:791,1
DA:792,1
DA:793,1
DA:794,1
DA:795,1
DA:796,1
DA:797,1
DA:798,1
DA:799,1
DA:800,1
DA:801,1
DA:802,1
DA:803,1
DA:804,1
DA:805,1
DA:806,1
DA:807,1
DA:808,1
DA:809,1
DA:810,1
DA:811,1
DA:812,1
DA:813,1
DA:814,1
DA:815,1
DA:817,1
DA:818,1
DA:819,1
DA:820,1
DA:821,1
DA:822,1
DA:823,1
DA:824,1
DA:825,1
DA:826,1
DA:828,1
DA:829,1
DA:830,1
DA:831,1
DA:832,1
DA:833,1
DA:834,1
DA:835,1
DA:836,1
DA:837,1
DA:838,1
DA:839,1
DA:840,1
DA:841,1
DA:842,1
DA:843,1
DA:844,1
DA:845,1
DA:846,1
DA:847,1
DA:848,1
DA:849,1
DA:850,1
DA:851,1
DA:852,1
DA:854,1
DA:855,1
DA:856,1
DA:857,1
DA:858,1
DA:859,1
DA:860,1
DA:861,1
DA:862,4
DA:864,3
DA:865,3
DA:867,1
BRF:0
BRH:0
LF:562
LH:440
end_of_record
SF:/home/mriise/Projects/ref-fvm/fvm/src/syscalls/actor.rs
FN:34,_RNCINvNtNtCs2gD7la8YEGu_3fvm8syscalls5actor18get_actor_code_cidpE0B8_
FN:80,_RINvNtNtCs2gD7la8YEGu_3fvm8syscalls5actor12create_actorpEB6_
FN:106,_RNCINvNtNtCs2gD7la8YEGu_3fvm8syscalls5actor21get_code_cid_for_typepE0B8_
FN:95,_RNCINvNtNtCs2gD7la8YEGu_3fvm8syscalls5actor22get_builtin_actor_typepE0B8_
FN:89,_RINvNtNtCs2gD7la8YEGu_3fvm8syscalls5actor22get_builtin_actor_typepEB6_
FN:29,_RINvNtNtCs2gD7la8YEGu_3fvm8syscalls5actor18get_actor_code_cidpEB6_
FN:46,_RINvNtNtCs2gD7la8YEGu_3fvm8syscalls5actor17new_actor_addresspEB6_
FN:18,_RNCINvNtNtCs2gD7la8YEGu_3fvm8syscalls5actor15resolve_addresspE0B8_
FN:98,_RINvNtNtCs2gD7la8YEGu_3fvm8syscalls5actor21get_code_cid_for_typepEB6_
FN:9,_RINvNtNtCs2gD7la8YEGu_3fvm8syscalls5actor15resolve_addresspEB6_
FN:89,_RINvNtNtCs5xYBAi2tWzh_3fvm8syscalls5actor22get_builtin_actor_typepEB6_
FN:18,_RNCINvNtNtCs5xYBAi2tWzh_3fvm8syscalls5actor15resolve_addresspE0B8_
FN:95,_RNCINvNtNtCs5xYBAi2tWzh_3fvm8syscalls5actor22get_builtin_actor_typepE0B8_
FN:80,_RINvNtNtCs5xYBAi2tWzh_3fvm8syscalls5actor12create_actorpEB6_
FN:9,_RINvNtNtCs5xYBAi2tWzh_3fvm8syscalls5actor15resolve_addresspEB6_
FN:34,_RNCINvNtNtCs5xYBAi2tWzh_3fvm8syscalls5actor18get_actor_code_cidpE0B8_
FN:46,_RINvNtNtCs5xYBAi2tWzh_3fvm8syscalls5actor17new_actor_addresspEB6_
FN:29,_RINvNtNtCs5xYBAi2tWzh_3fvm8syscalls5actor18get_actor_code_cidpEB6_
FN:106,_RNCINvNtNtCs5xYBAi2tWzh_3fvm8syscalls5actor21get_code_cid_for_typepE0B8_
FN:98,_RINvNtNtCs5xYBAi2tWzh_3fvm8syscalls5actor21get_code_cid_for_typepEB6_
FNDA:0,_RNCINvNtNtCs2gD7la8YEGu_3fvm8syscalls5actor18get_actor_code_cidpE0B8_
FNDA:0,_RINvNtNtCs2gD7la8YEGu_3fvm8syscalls5actor12create_actorpEB6_
FNDA:0,_RNCINvNtNtCs2gD7la8YEGu_3fvm8syscalls5actor21get_code_cid_for_typepE0B8_
FNDA:0,_RNCINvNtNtCs2gD7la8YEGu_3fvm8syscalls5actor22get_builtin_actor_typepE0B8_
FNDA:0,_RINvNtNtCs2gD7la8YEGu_3fvm8syscalls5actor22get_builtin_actor_typepEB6_
FNDA:0,_RINvNtNtCs2gD7la8YEGu_3fvm8syscalls5actor18get_actor_code_cidpEB6_
FNDA:0,_RINvNtNtCs2gD7la8YEGu_3fvm8syscalls5actor17new_actor_addresspEB6_
FNDA:0,_RNCINvNtNtCs2gD7la8YEGu_3fvm8syscalls5actor15resolve_addresspE0B8_
FNDA:0,_RINvNtNtCs2gD7la8YEGu_3fvm8syscalls5actor21get_code_cid_for_typepEB6_
FNDA:0,_RINvNtNtCs2gD7la8YEGu_3fvm8syscalls5actor15resolve_addresspEB6_
FNDA:0,_RINvNtNtCs5xYBAi2tWzh_3fvm8syscalls5actor22get_builtin_actor_typepEB6_
FNDA:0,_RNCINvNtNtCs5xYBAi2tWzh_3fvm8syscalls5actor15resolve_addresspE0B8_
FNDA:0,_RNCINvNtNtCs5xYBAi2tWzh_3fvm8syscalls5actor22get_builtin_actor_typepE0B8_
FNDA:0,_RINvNtNtCs5xYBAi2tWzh_3fvm8syscalls5actor12create_actorpEB6_
FNDA:0,_RINvNtNtCs5xYBAi2tWzh_3fvm8syscalls5actor15resolve_addresspEB6_
FNDA:0,_RNCINvNtNtCs5xYBAi2tWzh_3fvm8syscalls5actor18get_actor_code_cidpE0B8_
FNDA:0,_RINvNtNtCs5xYBAi2tWzh_3fvm8syscalls5actor17new_actor_addresspEB6_
FNDA:0,_RINvNtNtCs5xYBAi2tWzh_3fvm8syscalls5actor18get_actor_code_cidpEB6_
FNDA:0,_RNCINvNtNtCs5xYBAi2tWzh_3fvm8syscalls5actor21get_code_cid_for_typepE0B8_
FNDA:0,_RINvNtNtCs5xYBAi2tWzh_3fvm8syscalls5actor21get_code_cid_for_typepEB6_
FNF:10
FNH:0
DA:9,0
DA:10,0
DA:11,0
DA:12,0
DA:13,0
DA:14,0
DA:15,0
DA:16,0
DA:17,0
DA:18,0
DA:19,0
DA:20,0
DA:29,0
DA:31,0
DA:32,0
DA:33,0
DA:34,0
DA:36,0
DA:37,0
DA:46,0
DA:47,0
DA:48,0
DA:49,0
DA:50,0
DA:52,0
DA:56,0
DA:57,0
DA:58,0
DA:59,0
DA:60,0
DA:63,0
DA:66,0
DA:67,0
DA:68,0
DA:69,0
DA:70,0
DA:73,0
DA:74,0
DA:75,0
DA:76,0
DA:77,0
DA:78,0
DA:80,0
DA:81,0
DA:82,0
DA:83,0
DA:84,0
DA:85,0
DA:86,0
DA:87,0
DA:89,0
DA:90,0
DA:91,0
DA:92,0
DA:93,0
DA:94,0
DA:95,0
DA:96,0
DA:98,0
DA:99,0
DA:100,0
DA:101,0
DA:102,0
DA:103,0
DA:105,0
DA:106,0
DA:107,0
DA:109,0
DA:110,0
DA:111,0
BRF:0
BRH:0
LF:74
LH:0
end_of_record
SF:/home/mriise/Projects/ref-fvm/fvm/src/syscalls/bind.rs
FN:115,_RNvXININtNtCs2gD7la8YEGu_3fvm8syscalls4binds3_0ppppppEINtNtCslmt8qyoSfgL_8wasmtime6linker6LinkerINtB7_14InvocationDatapEEINtB5_11BindSyscallTpppEppE4bindB9_
FN:194,_RNCNvXININtNtCs2gD7la8YEGu_3fvm8syscalls4binds0_0pppEINtNtCslmt8qyoSfgL_8wasmtime6linker6LinkerINtB9_14InvocationDatapEEINtB7_11BindSyscalluppE4bind0Bb_
FN:115,_RNvXININtNtCs2gD7la8YEGu_3fvm8syscalls4binds7_0ppppppppppEINtNtCslmt8qyoSfgL_8wasmtime6linker6LinkerINtB7_14InvocationDatapEEINtB5_11BindSyscallTpppppppEppE4bindB9_
FN:115,_RNvXININtNtCs2gD7la8YEGu_3fvm8syscalls4binds4_0pppppppEINtNtCslmt8qyoSfgL_8wasmtime6linker6LinkerINtB7_14InvocationDatapEEINtB5_11BindSyscallTppppEppE4bindB9_
FN:115,_RNvXININtNtCs2gD7la8YEGu_3fvm8syscalls4binds2_0pppppEINtNtCslmt8qyoSfgL_8wasmtime6linker6LinkerINtB7_14InvocationDatapEEINtB5_11BindSyscallTppEppE4bindB9_
FN:196,_RNCNvXININtNtCs2gD7la8YEGu_3fvm8syscalls4binds2_0pppppEINtNtCslmt8qyoSfgL_8wasmtime6linker6LinkerINtB9_14InvocationDatapEEINtB7_11BindSyscallTppEppE4binds_0Bb_
FN:115,_RNvXININtNtCs2gD7la8YEGu_3fvm8syscalls4binds0_0pppEINtNtCslmt8qyoSfgL_8wasmtime6linker6LinkerINtB7_14InvocationDatapEEINtB5_11BindSyscalluppE4bindB9_
FN:194,_RNCNvXININtNtCs2gD7la8YEGu_3fvm8syscalls4binds0_0pppEINtNtCslmt8qyoSfgL_8wasmtime6linker6LinkerINtB9_14InvocationDatapEEINtB7_11BindSyscalluppE4binds_0Bb_
FN:195,_RNCNvXININtNtCs2gD7la8YEGu_3fvm8syscalls4binds1_0ppppEINtNtCslmt8qyoSfgL_8wasmtime6linker6LinkerINtB9_14InvocationDatapEEINtB7_11BindSyscallTpEppE4binds_0Bb_
FN:197,_RNCNvXININtNtCs2gD7la8YEGu_3fvm8syscalls4binds3_0ppppppEINtNtCslmt8qyoSfgL_8wasmtime6linker6LinkerINtB9_14InvocationDatapEEINtB7_11BindSyscallTpppEppE4binds_0Bb_
FN:196,_RNCNvXININtNtCs2gD7la8YEGu_3fvm8syscalls4binds2_0pppppEINtNtCslmt8qyoSfgL_8wasmtime6linker6LinkerINtB9_14InvocationDatapEEINtB7_11BindSyscallTppEppE4bind0Bb_
FN:200,_RNCNvXININtNtCs2gD7la8YEGu_3fvm8syscalls4binds6_0pppppppppEINtNtCslmt8qyoSfgL_8wasmtime6linker6LinkerINtB9_14InvocationDatapEEINtB7_11BindSyscallTppppppEppE4binds_0Bb_
FN:115,_RNvXININtNtCs2gD7la8YEGu_3fvm8syscalls4binds1_0ppppEINtNtCslmt8qyoSfgL_8wasmtime6linker6LinkerINtB7_14InvocationDatapEEINtB5_11BindSyscallTpEppE4bindB9_
FN:199,_RNCNvXININtNtCs2gD7la8YEGu_3fvm8syscalls4binds5_0ppppppppEINtNtCslmt8qyoSfgL_8wasmtime6linker6LinkerINtB9_14InvocationDatapEEINtB7_11BindSyscallTpppppEppE4bind0Bb_
FN:87,_RINvNtNtCs2gD7la8YEGu_3fvm8syscalls4bind15memory_and_datapEB6_
FN:201,_RNCNvXININtNtCs2gD7la8YEGu_3fvm8syscalls4binds7_0ppppppppppEINtNtCslmt8qyoSfgL_8wasmtime6linker6LinkerINtB9_14InvocationDatapEEINtB7_11BindSyscallTpppppppEppE4binds_0Bb_
FN:64,_RNvXININtNtCs2gD7la8YEGu_3fvm8syscalls4bind0pEINtNtCslBoGNiFC398_4core6result6ResultpNtNtB7_5error5AbortENtB5_17IntoSyscallResult4intoB9_
FN:199,_RNCNvXININtNtCs2gD7la8YEGu_3fvm8syscalls4binds5_0ppppppppEINtNtCslmt8qyoSfgL_8wasmtime6linker6LinkerINtB9_14InvocationDatapEEINtB7_11BindSyscallTpppppEppE4binds_0Bb_
FN:115,_RNvXININtNtCs2gD7la8YEGu_3fvm8syscalls4binds6_0pppppppppEINtNtCslmt8qyoSfgL_8wasmtime6linker6LinkerINtB7_14InvocationDatapEEINtB5_11BindSyscallTppppppEppE4bindB9_
FN:198,_RNCNvXININtNtCs2gD7la8YEGu_3fvm8syscalls4binds4_0pppppppEINtNtCslmt8qyoSfgL_8wasmtime6linker6LinkerINtB9_14InvocationDatapEEINtB7_11BindSyscallTppppEppE4bind0Bb_
FN:195,_RNCNvXININtNtCs2gD7la8YEGu_3fvm8syscalls4binds1_0ppppEINtNtCslmt8qyoSfgL_8wasmtime6linker6LinkerINtB9_14InvocationDatapEEINtB7_11BindSyscallTpEppE4bind0Bb_
FN:200,_RNCNvXININtNtCs2gD7la8YEGu_3fvm8syscalls4binds6_0pppppppppEINtNtCslmt8qyoSfgL_8wasmtime6linker6LinkerINtB9_14InvocationDatapEEINtB7_11BindSyscallTppppppEppE4bind0Bb_
FN:201,_RNCNvXININtNtCs2gD7la8YEGu_3fvm8syscalls4binds7_0ppppppppppEINtNtCslmt8qyoSfgL_8wasmtime6linker6LinkerINtB9_14InvocationDatapEEINtB7_11BindSyscallTpppppppEppE4bind0Bb_
FN:198,_RNCNvXININtNtCs2gD7la8YEGu_3fvm8syscalls4binds4_0pppppppEINtNtCslmt8qyoSfgL_8wasmtime6linker6LinkerINtB9_14InvocationDatapEEINtB7_11BindSyscallTppppEppE4binds_0Bb_
FN:75,_RNvXININtNtCs2gD7la8YEGu_3fvm8syscalls4binds_0pEINtNtCslBoGNiFC398_4core6result6ResultpNtNtNtB9_6kernel5error14ExecutionErrorENtB5_17IntoSyscallResult4intoB9_
FN:115,_RNvXININtNtCs2gD7la8YEGu_3fvm8syscalls4binds5_0ppppppppEINtNtCslmt8qyoSfgL_8wasmtime6linker6LinkerINtB7_14InvocationDatapEEINtB5_11BindSyscallTpppppEppE4bindB9_
FN:197,_RNCNvXININtNtCs2gD7la8YEGu_3fvm8syscalls4binds3_0ppppppEINtNtCslmt8qyoSfgL_8wasmtime6linker6LinkerINtB9_14InvocationDatapEEINtB7_11BindSyscallTpppEppE4bind0Bb_
FN:75,_RNvXININtNtCs5xYBAi2tWzh_3fvm8syscalls4binds_0pEINtNtCslBoGNiFC398_4core6result6ResultpNtNtNtB9_6kernel5error14ExecutionErrorENtB5_17IntoSyscallResult4intoB9_
FN:115,_RNvXININtNtCs5xYBAi2tWzh_3fvm8syscalls4binds3_0ppppppEINtNtCslmt8qyoSfgL_8wasmtime6linker6LinkerINtB7_14InvocationDatapEEINtB5_11BindSyscallTpppEppE4bindB9_
FN:199,_RNCNvXININtNtCs5xYBAi2tWzh_3fvm8syscalls4binds5_0ppppppppEINtNtCslmt8qyoSfgL_8wasmtime6linker6LinkerINtB9_14InvocationDatapEEINtB7_11BindSyscallTpppppEppE4binds_0Bb_
FN:115,_RNvXININtNtCs5xYBAi2tWzh_3fvm8syscalls4binds1_0ppppEINtNtCslmt8qyoSfgL_8wasmtime6linker6LinkerINtB7_14InvocationDatapEEINtB5_11BindSyscallTpEppE4bindB9_
FN:199,_RNCNvXININtNtCs5xYBAi2tWzh_3fvm8syscalls4binds5_0ppppppppEINtNtCslmt8qyoSfgL_8wasmtime6linker6LinkerINtB9_14InvocationDatapEEINtB7_11BindSyscallTpppppEppE4bind0Bb_
FN:197,_RNCNvXININtNtCs5xYBAi2tWzh_3fvm8syscalls4binds3_0ppppppEINtNtCslmt8qyoSfgL_8wasmtime6linker6LinkerINtB9_14InvocationDatapEEINtB7_11BindSyscallTpppEppE4binds_0Bb_
FN:200,_RNCNvXININtNtCs5xYBAi2tWzh_3fvm8syscalls4binds6_0pppppppppEINtNtCslmt8qyoSfgL_8wasmtime6linker6LinkerINtB9_14InvocationDatapEEINtB7_11BindSyscallTppppppEppE4bind0Bb_
FN:198,_RNCNvXININtNtCs5xYBAi2tWzh_3fvm8syscalls4binds4_0pppppppEINtNtCslmt8qyoSfgL_8wasmtime6linker6LinkerINtB9_14InvocationDatapEEINtB7_11BindSyscallTppppEppE4binds_0Bb_
FN:115,_RNvXININtNtCs5xYBAi2tWzh_3fvm8syscalls4binds6_0pppppppppEINtNtCslmt8qyoSfgL_8wasmtime6linker6LinkerINtB7_14InvocationDatapEEINtB5_11BindSyscallTppppppEppE4bindB9_
FN:201,_RNCNvXININtNtCs5xYBAi2tWzh_3fvm8syscalls4binds7_0ppppppppppEINtNtCslmt8qyoSfgL_8wasmtime6linker6LinkerINtB9_14InvocationDatapEEINtB7_11BindSyscallTpppppppEppE4binds_0Bb_
FN:115,_RNvXININtNtCs5xYBAi2tWzh_3fvm8syscalls4binds4_0pppppppEINtNtCslmt8qyoSfgL_8wasmtime6linker6LinkerINtB7_14InvocationDatapEEINtB5_11BindSyscallTppppEppE4bindB9_
FN:201,_RNCNvXININtNtCs5xYBAi2tWzh_3fvm8syscalls4binds7_0ppppppppppEINtNtCslmt8qyoSfgL_8wasmtime6linker6LinkerINtB9_14InvocationDatapEEINtB7_11BindSyscallTpppppppEppE4bind0Bb_
FN:194,_RNCNvXININtNtCs5xYBAi2tWzh_3fvm8syscalls4binds0_0pppEINtNtCslmt8qyoSfgL_8wasmtime6linker6LinkerINtB9_14InvocationDatapEEINtB7_11BindSyscalluppE4binds_0Bb_
FN:115,_RNvXININtNtCs5xYBAi2tWzh_3fvm8syscalls4binds5_0ppppppppEINtNtCslmt8qyoSfgL_8wasmtime6linker6LinkerINtB7_14InvocationDatapEEINtB5_11BindSyscallTpppppEppE4bindB9_
FN:87,_RINvNtNtCs5xYBAi2tWzh_3fvm8syscalls4bind15memory_and_datapEB6_
FN:115,_RNvXININtNtCs5xYBAi2tWzh_3fvm8syscalls4binds0_0pppEINtNtCslmt8qyoSfgL_8wasmtime6linker6LinkerINtB7_14InvocationDatapEEINtB5_11BindSyscalluppE4bindB9_
FN:194,_RNCNvXININtNtCs5xYBAi2tWzh_3fvm8syscalls4binds0_0pppEINtNtCslmt8qyoSfgL_8wasmtime6linker6LinkerINtB9_14InvocationDatapEEINtB7_11BindSyscalluppE4bind0Bb_
FN:195,_RNCNvXININtNtCs5xYBAi2tWzh_3fvm8syscalls4binds1_0ppppEINtNtCslmt8qyoSfgL_8wasmtime6linker6LinkerINtB9_14InvocationDatapEEINtB7_11BindSyscallTpEppE4bind0Bb_
FN:195,_RNCNvXININtNtCs5xYBAi2tWzh_3fvm8syscalls4binds1_0ppppEINtNtCslmt8qyoSfgL_8wasmtime6linker6LinkerINtB9_14InvocationDatapEEINtB7_11BindSyscallTpEppE4binds_0Bb_
FN:197,_RNCNvXININtNtCs5xYBAi2tWzh_3fvm8syscalls4binds3_0ppppppEINtNtCslmt8qyoSfgL_8wasmtime6linker6LinkerINtB9_14InvocationDatapEEINtB7_11BindSyscallTpppEppE4bind0Bb_
FN:64,_RNvXININtNtCs5xYBAi2tWzh_3fvm8syscalls4bind0pEINtNtCslBoGNiFC398_4core6result6ResultpNtNtB7_5error5AbortENtB5_17IntoSyscallResult4intoB9_
FN:196,_RNCNvXININtNtCs5xYBAi2tWzh_3fvm8syscalls4binds2_0pppppEINtNtCslmt8qyoSfgL_8wasmtime6linker6LinkerINtB9_14InvocationDatapEEINtB7_11BindSyscallTppEppE4binds_0Bb_
FN:198,_RNCNvXININtNtCs5xYBAi2tWzh_3fvm8syscalls4binds4_0pppppppEINtNtCslmt8qyoSfgL_8wasmtime6linker6LinkerINtB9_14InvocationDatapEEINtB7_11BindSyscallTppppEppE4bind0Bb_
FN:115,_RNvXININtNtCs5xYBAi2tWzh_3fvm8syscalls4binds7_0ppppppppppEINtNtCslmt8qyoSfgL_8wasmtime6linker6LinkerINtB7_14InvocationDatapEEINtB5_11BindSyscallTpppppppEppE4bindB9_
FN:196,_RNCNvXININtNtCs5xYBAi2tWzh_3fvm8syscalls4binds2_0pppppEINtNtCslmt8qyoSfgL_8wasmtime6linker6LinkerINtB9_14InvocationDatapEEINtB7_11BindSyscallTppEppE4bind0Bb_
FN:200,_RNCNvXININtNtCs5xYBAi2tWzh_3fvm8syscalls4binds6_0pppppppppEINtNtCslmt8qyoSfgL_8wasmtime6linker6LinkerINtB9_14InvocationDatapEEINtB7_11BindSyscallTppppppEppE4binds_0Bb_
FN:115,_RNvXININtNtCs5xYBAi2tWzh_3fvm8syscalls4binds2_0pppppEINtNtCslmt8qyoSfgL_8wasmtime6linker6LinkerINtB7_14InvocationDatapEEINtB5_11BindSyscallTppEppE4bindB9_
FNDA:0,_RNvXININtNtCs2gD7la8YEGu_3fvm8syscalls4binds3_0ppppppEINtNtCslmt8qyoSfgL_8wasmtime6linker6LinkerINtB7_14InvocationDatapEEINtB5_11BindSyscallTpppEppE4bindB9_
FNDA:0,_RNCNvXININtNtCs2gD7la8YEGu_3fvm8syscalls4binds0_0pppEINtNtCslmt8qyoSfgL_8wasmtime6linker6LinkerINtB9_14InvocationDatapEEINtB7_11BindSyscalluppE4bind0Bb_
FNDA:0,_RNvXININtNtCs2gD7la8YEGu_3fvm8syscalls4binds7_0ppppppppppEINtNtCslmt8qyoSfgL_8wasmtime6linker6LinkerINtB7_14InvocationDatapEEINtB5_11BindSyscallTpppppppEppE4bindB9_
FNDA:0,_RNvXININtNtCs2gD7la8YEGu_3fvm8syscalls4binds4_0pppppppEINtNtCslmt8qyoSfgL_8wasmtime6linker6LinkerINtB7_14InvocationDatapEEINtB5_11BindSyscallTppppEppE4bindB9_
FNDA:0,_RNvXININtNtCs2gD7la8YEGu_3fvm8syscalls4binds2_0pppppEINtNtCslmt8qyoSfgL_8wasmtime6linker6LinkerINtB7_14InvocationDatapEEINtB5_11BindSyscallTppEppE4bindB9_
FNDA:0,_RNCNvXININtNtCs2gD7la8YEGu_3fvm8syscalls4binds2_0pppppEINtNtCslmt8qyoSfgL_8wasmtime6linker6LinkerINtB9_14InvocationDatapEEINtB7_11BindSyscallTppEppE4binds_0Bb_
FNDA:0,_RNvXININtNtCs2gD7la8YEGu_3fvm8syscalls4binds0_0pppEINtNtCslmt8qyoSfgL_8wasmtime6linker6LinkerINtB7_14InvocationDatapEEINtB5_11BindSyscalluppE4bindB9_
FNDA:0,_RNCNvXININtNtCs2gD7la8YEGu_3fvm8syscalls4binds0_0pppEINtNtCslmt8qyoSfgL_8wasmtime6linker6LinkerINtB9_14InvocationDatapEEINtB7_11BindSyscalluppE4binds_0Bb_
FNDA:0,_RNCNvXININtNtCs2gD7la8YEGu_3fvm8syscalls4binds1_0ppppEINtNtCslmt8qyoSfgL_8wasmtime6linker6LinkerINtB9_14InvocationDatapEEINtB7_11BindSyscallTpEppE4binds_0Bb_
FNDA:0,_RNCNvXININtNtCs2gD7la8YEGu_3fvm8syscalls4binds3_0ppppppEINtNtCslmt8qyoSfgL_8wasmtime6linker6LinkerINtB9_14InvocationDatapEEINtB7_11BindSyscallTpppEppE4binds_0Bb_
FNDA:0,_RNCNvXININtNtCs2gD7la8YEGu_3fvm8syscalls4binds2_0pppppEINtNtCslmt8qyoSfgL_8wasmtime6linker6LinkerINtB9_14InvocationDatapEEINtB7_11BindSyscallTppEppE4bind0Bb_
FNDA:0,_RNCNvXININtNtCs2gD7la8YEGu_3fvm8syscalls4binds6_0pppppppppEINtNtCslmt8qyoSfgL_8wasmtime6linker6LinkerINtB9_14InvocationDatapEEINtB7_11BindSyscallTppppppEppE4binds_0Bb_
FNDA:0,_RNvXININtNtCs2gD7la8YEGu_3fvm8syscalls4binds1_0ppppEINtNtCslmt8qyoSfgL_8wasmtime6linker6LinkerINtB7_14InvocationDatapEEINtB5_11BindSyscallTpEppE4bindB9_
FNDA:0,_RNCNvXININtNtCs2gD7la8YEGu_3fvm8syscalls4binds5_0ppppppppEINtNtCslmt8qyoSfgL_8wasmtime6linker6LinkerINtB9_14InvocationDatapEEINtB7_11BindSyscallTpppppEppE4bind0Bb_
FNDA:0,_RINvNtNtCs2gD7la8YEGu_3fvm8syscalls4bind15memory_and_datapEB6_
FNDA:0,_RNCNvXININtNtCs2gD7la8YEGu_3fvm8syscalls4binds7_0ppppppppppEINtNtCslmt8qyoSfgL_8wasmtime6linker6LinkerINtB9_14InvocationDatapEEINtB7_11BindSyscallTpppppppEppE4binds_0Bb_
FNDA:0,_RNvXININtNtCs2gD7la8YEGu_3fvm8syscalls4bind0pEINtNtCslBoGNiFC398_4core6result6ResultpNtNtB7_5error5AbortENtB5_17IntoSyscallResult4intoB9_
FNDA:0,_RNCNvXININtNtCs2gD7la8YEGu_3fvm8syscalls4binds5_0ppppppppEINtNtCslmt8qyoSfgL_8wasmtime6linker6LinkerINtB9_14InvocationDatapEEINtB7_11BindSyscallTpppppEppE4binds_0Bb_
FNDA:0,_RNvXININtNtCs2gD7la8YEGu_3fvm8syscalls4binds6_0pppppppppEINtNtCslmt8qyoSfgL_8wasmtime6linker6LinkerINtB7_14InvocationDatapEEINtB5_11BindSyscallTppppppEppE4bindB9_
FNDA:0,_RNCNvXININtNtCs2gD7la8YEGu_3fvm8syscalls4binds4_0pppppppEINtNtCslmt8qyoSfgL_8wasmtime6linker6LinkerINtB9_14InvocationDatapEEINtB7_11BindSyscallTppppEppE4bind0Bb_
FNDA:0,_RNCNvXININtNtCs2gD7la8YEGu_3fvm8syscalls4binds1_0ppppEINtNtCslmt8qyoSfgL_8wasmtime6linker6LinkerINtB9_14InvocationDatapEEINtB7_11BindSyscallTpEppE4bind0Bb_
FNDA:0,_RNCNvXININtNtCs2gD7la8YEGu_3fvm8syscalls4binds6_0pppppppppEINtNtCslmt8qyoSfgL_8wasmtime6linker6LinkerINtB9_14InvocationDatapEEINtB7_11BindSyscallTppppppEppE4bind0Bb_
FNDA:0,_RNCNvXININtNtCs2gD7la8YEGu_3fvm8syscalls4binds7_0ppppppppppEINtNtCslmt8qyoSfgL_8wasmtime6linker6LinkerINtB9_14InvocationDatapEEINtB7_11BindSyscallTpppppppEppE4bind0Bb_
FNDA:0,_RNCNvXININtNtCs2gD7la8YEGu_3fvm8syscalls4binds4_0pppppppEINtNtCslmt8qyoSfgL_8wasmtime6linker6LinkerINtB9_14InvocationDatapEEINtB7_11BindSyscallTppppEppE4binds_0Bb_
FNDA:0,_RNvXININtNtCs2gD7la8YEGu_3fvm8syscalls4binds_0pEINtNtCslBoGNiFC398_4core6result6ResultpNtNtNtB9_6kernel5error14ExecutionErrorENtB5_17IntoSyscallResult4intoB9_
FNDA:0,_RNvXININtNtCs2gD7la8YEGu_3fvm8syscalls4binds5_0ppppppppEINtNtCslmt8qyoSfgL_8wasmtime6linker6LinkerINtB7_14InvocationDatapEEINtB5_11BindSyscallTpppppEppE4bindB9_
FNDA:0,_RNCNvXININtNtCs2gD7la8YEGu_3fvm8syscalls4binds3_0ppppppEINtNtCslmt8qyoSfgL_8wasmtime6linker6LinkerINtB9_14InvocationDatapEEINtB7_11BindSyscallTpppEppE4bind0Bb_
FNDA:0,_RNvXININtNtCs5xYBAi2tWzh_3fvm8syscalls4binds_0pEINtNtCslBoGNiFC398_4core6result6ResultpNtNtNtB9_6kernel5error14ExecutionErrorENtB5_17IntoSyscallResult4intoB9_
FNDA:0,_RNvXININtNtCs5xYBAi2tWzh_3fvm8syscalls4binds3_0ppppppEINtNtCslmt8qyoSfgL_8wasmtime6linker6LinkerINtB7_14InvocationDatapEEINtB5_11BindSyscallTpppEppE4bindB9_
FNDA:0,_RNCNvXININtNtCs5xYBAi2tWzh_3fvm8syscalls4binds5_0ppppppppEINtNtCslmt8qyoSfgL_8wasmtime6linker6LinkerINtB9_14InvocationDatapEEINtB7_11BindSyscallTpppppEppE4binds_0Bb_
FNDA:0,_RNvXININtNtCs5xYBAi2tWzh_3fvm8syscalls4binds1_0ppppEINtNtCslmt8qyoSfgL_8wasmtime6linker6LinkerINtB7_14InvocationDatapEEINtB5_11BindSyscallTpEppE4bindB9_
FNDA:0,_RNCNvXININtNtCs5xYBAi2tWzh_3fvm8syscalls4binds5_0ppppppppEINtNtCslmt8qyoSfgL_8wasmtime6linker6LinkerINtB9_14InvocationDatapEEINtB7_11BindSyscallTpppppEppE4bind0Bb_
FNDA:0,_RNCNvXININtNtCs5xYBAi2tWzh_3fvm8syscalls4binds3_0ppppppEINtNtCslmt8qyoSfgL_8wasmtime6linker6LinkerINtB9_14InvocationDatapEEINtB7_11BindSyscallTpppEppE4binds_0Bb_
FNDA:0,_RNCNvXININtNtCs5xYBAi2tWzh_3fvm8syscalls4binds6_0pppppppppEINtNtCslmt8qyoSfgL_8wasmtime6linker6LinkerINtB9_14InvocationDatapEEINtB7_11BindSyscallTppppppEppE4bind0Bb_
FNDA:0,_RNCNvXININtNtCs5xYBAi2tWzh_3fvm8syscalls4binds4_0pppppppEINtNtCslmt8qyoSfgL_8wasmtime6linker6LinkerINtB9_14InvocationDatapEEINtB7_11BindSyscallTppppEppE4binds_0Bb_
FNDA:0,_RNvXININtNtCs5xYBAi2tWzh_3fvm8syscalls4binds6_0pppppppppEINtNtCslmt8qyoSfgL_8wasmtime6linker6LinkerINtB7_14InvocationDatapEEINtB5_11BindSyscallTppppppEppE4bindB9_
FNDA:0,_RNCNvXININtNtCs5xYBAi2tWzh_3fvm8syscalls4binds7_0ppppppppppEINtNtCslmt8qyoSfgL_8wasmtime6linker6LinkerINtB9_14InvocationDatapEEINtB7_11BindSyscallTpppppppEppE4binds_0Bb_
FNDA:0,_RNvXININtNtCs5xYBAi2tWzh_3fvm8syscalls4binds4_0pppppppEINtNtCslmt8qyoSfgL_8wasmtime6linker6LinkerINtB7_14InvocationDatapEEINtB5_11BindSyscallTppppEppE4bindB9_
FNDA:0,_RNCNvXININtNtCs5xYBAi2tWzh_3fvm8syscalls4binds7_0ppppppppppEINtNtCslmt8qyoSfgL_8wasmtime6linker6LinkerINtB9_14InvocationDatapEEINtB7_11BindSyscallTpppppppEppE4bind0Bb_
FNDA:0,_RNCNvXININtNtCs5xYBAi2tWzh_3fvm8syscalls4binds0_0pppEINtNtCslmt8qyoSfgL_8wasmtime6linker6LinkerINtB9_14InvocationDatapEEINtB7_11BindSyscalluppE4binds_0Bb_
FNDA:0,_RNvXININtNtCs5xYBAi2tWzh_3fvm8syscalls4binds5_0ppppppppEINtNtCslmt8qyoSfgL_8wasmtime6linker6LinkerINtB7_14InvocationDatapEEINtB5_11BindSyscallTpppppEppE4bindB9_
FNDA:0,_RINvNtNtCs5xYBAi2tWzh_3fvm8syscalls4bind15memory_and_datapEB6_
FNDA:0,_RNvXININtNtCs5xYBAi2tWzh_3fvm8syscalls4binds0_0pppEINtNtCslmt8qyoSfgL_8wasmtime6linker6LinkerINtB7_14InvocationDatapEEINtB5_11BindSyscalluppE4bindB9_
FNDA:0,_RNCNvXININtNtCs5xYBAi2tWzh_3fvm8syscalls4binds0_0pppEINtNtCslmt8qyoSfgL_8wasmtime6linker6LinkerINtB9_14InvocationDatapEEINtB7_11BindSyscalluppE4bind0Bb_
FNDA:0,_RNCNvXININtNtCs5xYBAi2tWzh_3fvm8syscalls4binds1_0ppppEINtNtCslmt8qyoSfgL_8wasmtime6linker6LinkerINtB9_14InvocationDatapEEINtB7_11BindSyscallTpEppE4bind0Bb_
FNDA:0,_RNCNvXININtNtCs5xYBAi2tWzh_3fvm8syscalls4binds1_0ppppEINtNtCslmt8qyoSfgL_8wasmtime6linker6LinkerINtB9_14InvocationDatapEEINtB7_11BindSyscallTpEppE4binds_0Bb_
FNDA:0,_RNCNvXININtNtCs5xYBAi2tWzh_3fvm8syscalls4binds3_0ppppppEINtNtCslmt8qyoSfgL_8wasmtime6linker6LinkerINtB9_14InvocationDatapEEINtB7_11BindSyscallTpppEppE4bind0Bb_
FNDA:0,_RNvXININtNtCs5xYBAi2tWzh_3fvm8syscalls4bind0pEINtNtCslBoGNiFC398_4core6result6ResultpNtNtB7_5error5AbortENtB5_17IntoSyscallResult4intoB9_
FNDA:0,_RNCNvXININtNtCs5xYBAi2tWzh_3fvm8syscalls4binds2_0pppppEINtNtCslmt8qyoSfgL_8wasmtime6linker6LinkerINtB9_14InvocationDatapEEINtB7_11BindSyscallTppEppE4binds_0Bb_
FNDA:0,_RNCNvXININtNtCs5xYBAi2tWzh_3fvm8syscalls4binds4_0pppppppEINtNtCslmt8qyoSfgL_8wasmtime6linker6LinkerINtB9_14InvocationDatapEEINtB7_11BindSyscallTppppEppE4bind0Bb_
FNDA:0,_RNvXININtNtCs5xYBAi2tWzh_3fvm8syscalls4binds7_0ppppppppppEINtNtCslmt8qyoSfgL_8wasmtime6linker6LinkerINtB7_14InvocationDatapEEINtB5_11BindSyscallTpppppppEppE4bindB9_
FNDA:0,_RNCNvXININtNtCs5xYBAi2tWzh_3fvm8syscalls4binds2_0pppppEINtNtCslmt8qyoSfgL_8wasmtime6linker6LinkerINtB9_14InvocationDatapEEINtB7_11BindSyscallTppEppE4bind0Bb_
FNDA:0,_RNCNvXININtNtCs5xYBAi2tWzh_3fvm8syscalls4binds6_0pppppppppEINtNtCslmt8qyoSfgL_8wasmtime6linker6LinkerINtB9_14InvocationDatapEEINtB7_11BindSyscallTppppppEppE4binds_0Bb_
FNDA:0,_RNvXININtNtCs5xYBAi2tWzh_3fvm8syscalls4binds2_0pppppEINtNtCslmt8qyoSfgL_8wasmtime6linker6LinkerINtB7_14InvocationDatapEEINtB5_11BindSyscallTppEppE4bindB9_
FNF:12
FNH:0
DA:64,0
DA:65,0
DA:66,0
DA:75,0
DA:76,0
DA:77,0
DA:78,0
DA:79,0
DA:80,0
DA:81,0
DA:84,0
DA:87,0
DA:88,0
DA:89,0
DA:90,0
DA:91,0
DA:92,0
DA:93,0
DA:115,0
DA:116,0
DA:117,0
DA:118,0
DA:119,0
DA:120,0
DA:121,0
DA:123,0
DA:150,0
DA:153,0
DA:187,0
DA:189,0
DA:194,0
DA:195,0
DA:196,0
DA:197,0
DA:198,0
DA:199,0
DA:200,0
DA:201,0
BRF:0
BRH:0
LF:38
LH:0
end_of_record
SF:/home/mriise/Projects/ref-fvm/fvm/src/syscalls/context.rs
FN:87,_RNvMs0_NtNtCs2gD7la8YEGu_3fvm8syscalls7contextNtB5_6Memory9write_cid
FN:61,_RNvMs0_NtNtCs2gD7la8YEGu_3fvm8syscalls7contextNtB5_6Memory13try_slice_mut
FN:63,_RNCNvMs0_NtNtCs2gD7la8YEGu_3fvm8syscalls7contextNtB7_6Memory13try_slice_mut0Bb_
FN:31,_RNvXs_NtNtCs2gD7la8YEGu_3fvm8syscalls7contextNtB4_6MemoryNtNtNtCslBoGNiFC398_4core3ops5deref8DerefMut9deref_mut
FN:107,_RINvMs0_NtNtCs2gD7la8YEGu_3fvm8syscalls7contextNtB6_6Memory9read_cborpEBa_
FN:44,_RNvMs0_NtNtCs2gD7la8YEGu_3fvm8syscalls7contextNtB5_6Memory12check_bounds
FN:102,_RNvMs0_NtNtCs2gD7la8YEGu_3fvm8syscalls7contextNtB5_6Memory12read_address
FN:64,_RNCNvMs0_NtNtCs2gD7la8YEGu_3fvm8syscalls7contextNtB7_6Memory13try_slice_muts_0Bb_
FN:110,_RNCINvMs0_NtNtCs2gD7la8YEGu_3fvm8syscalls7contextNtB8_6Memory9read_cborpE0Bc_
FN:167,_RNvNtNtNtCs2gD7la8YEGu_3fvm8syscalls7context4tests_23test_read_cid_truncated
FN:176,_RNvNtNtNtCs2gD7la8YEGu_3fvm8syscalls7context4tests_27test_read_cid_out_of_bounds
FN:156,_RNCNvNtNtNtCs2gD7la8YEGu_3fvm8syscalls7context4test13test_read_cid0B9_
FN:166,_RNCNvNtNtNtCs2gD7la8YEGu_3fvm8syscalls7context4test23test_read_cid_truncated0B9_
FN:157,_RNvNtNtNtCs2gD7la8YEGu_3fvm8syscalls7context4tests_13test_read_cid
FN:182,_RNvNtNtNtCs2gD7la8YEGu_3fvm8syscalls7context4tests_29test_read_slice_out_of_bounds
FN:189,_RNvNtNtNtCs2gD7la8YEGu_3fvm8syscalls7context4tests_21test_read_slice_empty
FN:181,_RNCNvNtNtNtCs2gD7la8YEGu_3fvm8syscalls7context4test29test_read_slice_out_of_bounds0B9_
FN:175,_RNCNvNtNtNtCs2gD7la8YEGu_3fvm8syscalls7context4test27test_read_cid_out_of_bounds0B9_
FN:188,_RNCNvNtNtNtCs2gD7la8YEGu_3fvm8syscalls7context4test21test_read_slice_empty0B9_
FN:55,_RNvMs0_NtNtCs2gD7la8YEGu_3fvm8syscalls7contextNtB5_6Memory9try_slice
FN:38,_RNvMs0_NtNtCs2gD7la8YEGu_3fvm8syscalls7contextNtB5_6Memory3new
FN:57,_RNCNvMs0_NtNtCs2gD7la8YEGu_3fvm8syscalls7contextNtB7_6Memory9try_slice0Bb_
FN:58,_RNCNvMs0_NtNtCs2gD7la8YEGu_3fvm8syscalls7contextNtB7_6Memory9try_slices_0Bb_
FN:25,_RNvXNtNtCs2gD7la8YEGu_3fvm8syscalls7contextNtB2_6MemoryNtNtNtCslBoGNiFC398_4core3ops5deref5Deref5deref
FN:68,_RNvMs0_NtNtCs2gD7la8YEGu_3fvm8syscalls7contextNtB5_6Memory8read_cid
FN:80,_RNCNvMs0_NtNtCs2gD7la8YEGu_3fvm8syscalls7contextNtB7_6Memory8read_cid0Bb_
FN:107,_RINvMs0_NtNtCs5xYBAi2tWzh_3fvm8syscalls7contextNtB6_6Memory9read_cborpEBa_
FN:110,_RNCINvMs0_NtNtCs5xYBAi2tWzh_3fvm8syscalls7contextNtB8_6Memory9read_cborpE0Bc_
FN:80,_RNCNvMs0_NtNtCs5xYBAi2tWzh_3fvm8syscalls7contextNtB7_6Memory8read_cid0Bb_
FN:25,_RNvXNtNtCs5xYBAi2tWzh_3fvm8syscalls7contextNtB2_6MemoryNtNtNtCslBoGNiFC398_4core3ops5deref5Deref5deref
FN:63,_RNCNvMs0_NtNtCs5xYBAi2tWzh_3fvm8syscalls7contextNtB7_6Memory13try_slice_mut0Bb_
FN:55,_RNvMs0_NtNtCs5xYBAi2tWzh_3fvm8syscalls7contextNtB5_6Memory9try_slice
FN:38,_RNvMs0_NtNtCs5xYBAi2tWzh_3fvm8syscalls7contextNtB5_6Memory3new
FN:87,_RNvMs0_NtNtCs5xYBAi2tWzh_3fvm8syscalls7contextNtB5_6Memory9write_cid
FN:57,_RNCNvMs0_NtNtCs5xYBAi2tWzh_3fvm8syscalls7contextNtB7_6Memory9try_slice0Bb_
FN:44,_RNvMs0_NtNtCs5xYBAi2tWzh_3fvm8syscalls7contextNtB5_6Memory12check_bounds
FN:58,_RNCNvMs0_NtNtCs5xYBAi2tWzh_3fvm8syscalls7contextNtB7_6Memory9try_slices_0Bb_
FN:61,_RNvMs0_NtNtCs5xYBAi2tWzh_3fvm8syscalls7contextNtB5_6Memory13try_slice_mut
FN:64,_RNCNvMs0_NtNtCs5xYBAi2tWzh_3fvm8syscalls7contextNtB7_6Memory13try_slice_muts_0Bb_
FN:31,_RNvXs_NtNtCs5xYBAi2tWzh_3fvm8syscalls7contextNtB4_6MemoryNtNtNtCslBoGNiFC398_4core3ops5deref8DerefMut9deref_mut
FN:68,_RNvMs0_NtNtCs5xYBAi2tWzh_3fvm8syscalls7contextNtB5_6Memory8read_cid
FN:102,_RNvMs0_NtNtCs5xYBAi2tWzh_3fvm8syscalls7contextNtB5_6Memory12read_address
FNDA:0,_RNvMs0_NtNtCs2gD7la8YEGu_3fvm8syscalls7contextNtB5_6Memory9write_cid
FNDA:0,_RNvMs0_NtNtCs2gD7la8YEGu_3fvm8syscalls7contextNtB5_6Memory13try_slice_mut
FNDA:0,_RNCNvMs0_NtNtCs2gD7la8YEGu_3fvm8syscalls7contextNtB7_6Memory13try_slice_mut0Bb_
FNDA:0,_RNvXs_NtNtCs2gD7la8YEGu_3fvm8syscalls7contextNtB4_6MemoryNtNtNtCslBoGNiFC398_4core3ops5deref8DerefMut9deref_mut
FNDA:0,_RINvMs0_NtNtCs2gD7la8YEGu_3fvm8syscalls7contextNtB6_6Memory9read_cborpEBa_
FNDA:0,_RNvMs0_NtNtCs2gD7la8YEGu_3fvm8syscalls7contextNtB5_6Memory12check_bounds
FNDA:0,_RNvMs0_NtNtCs2gD7la8YEGu_3fvm8syscalls7contextNtB5_6Memory12read_address
FNDA:0,_RNCNvMs0_NtNtCs2gD7la8YEGu_3fvm8syscalls7contextNtB7_6Memory13try_slice_muts_0Bb_
FNDA:0,_RNCINvMs0_NtNtCs2gD7la8YEGu_3fvm8syscalls7contextNtB8_6Memory9read_cborpE0Bc_
FNDA:1,_RNvNtNtNtCs2gD7la8YEGu_3fvm8syscalls7context4tests_23test_read_cid_truncated
FNDA:1,_RNvNtNtNtCs2gD7la8YEGu_3fvm8syscalls7context4tests_27test_read_cid_out_of_bounds
FNDA:1,_RNCNvNtNtNtCs2gD7la8YEGu_3fvm8syscalls7context4test13test_read_cid0B9_
FNDA:1,_RNCNvNtNtNtCs2gD7la8YEGu_3fvm8syscalls7context4test23test_read_cid_truncated0B9_
FNDA:1,_RNvNtNtNtCs2gD7la8YEGu_3fvm8syscalls7context4tests_13test_read_cid
FNDA:1,_RNvNtNtNtCs2gD7la8YEGu_3fvm8syscalls7context4tests_29test_read_slice_out_of_bounds
FNDA:1,_RNvNtNtNtCs2gD7la8YEGu_3fvm8syscalls7context4tests_21test_read_slice_empty
FNDA:1,_RNCNvNtNtNtCs2gD7la8YEGu_3fvm8syscalls7context4test29test_read_slice_out_of_bounds0B9_
FNDA:1,_RNCNvNtNtNtCs2gD7la8YEGu_3fvm8syscalls7context4test27test_read_cid_out_of_bounds0B9_
FNDA:1,_RNCNvNtNtNtCs2gD7la8YEGu_3fvm8syscalls7context4test21test_read_slice_empty0B9_
FNDA:3,_RNvMs0_NtNtCs2gD7la8YEGu_3fvm8syscalls7contextNtB5_6Memory9try_slice
FNDA:5,_RNvMs0_NtNtCs2gD7la8YEGu_3fvm8syscalls7contextNtB5_6Memory3new
FNDA:1,_RNCNvMs0_NtNtCs2gD7la8YEGu_3fvm8syscalls7contextNtB7_6Memory9try_slice0Bb_
FNDA:2,_RNCNvMs0_NtNtCs2gD7la8YEGu_3fvm8syscalls7contextNtB7_6Memory9try_slices_0Bb_
FNDA:3,_RNvXNtNtCs2gD7la8YEGu_3fvm8syscalls7contextNtB2_6MemoryNtNtNtCslBoGNiFC398_4core3ops5deref5Deref5deref
FNDA:3,_RNvMs0_NtNtCs2gD7la8YEGu_3fvm8syscalls7contextNtB5_6Memory8read_cid
FNDA:1,_RNCNvMs0_NtNtCs2gD7la8YEGu_3fvm8syscalls7contextNtB7_6Memory8read_cid0Bb_
FNDA:0,_RINvMs0_NtNtCs5xYBAi2tWzh_3fvm8syscalls7contextNtB6_6Memory9read_cborpEBa_
FNDA:0,_RNCINvMs0_NtNtCs5xYBAi2tWzh_3fvm8syscalls7contextNtB8_6Memory9read_cborpE0Bc_
FNDA:0,_RNCNvMs0_NtNtCs5xYBAi2tWzh_3fvm8syscalls7contextNtB7_6Memory8read_cid0Bb_
FNDA:0,_RNvXNtNtCs5xYBAi2tWzh_3fvm8syscalls7contextNtB2_6MemoryNtNtNtCslBoGNiFC398_4core3ops5deref5Deref5deref
FNDA:0,_RNCNvMs0_NtNtCs5xYBAi2tWzh_3fvm8syscalls7contextNtB7_6Memory13try_slice_mut0Bb_
FNDA:0,_RNvMs0_NtNtCs5xYBAi2tWzh_3fvm8syscalls7contextNtB5_6Memory9try_slice
FNDA:0,_RNvMs0_NtNtCs5xYBAi2tWzh_3fvm8syscalls7contextNtB5_6Memory3new
FNDA:0,_RNvMs0_NtNtCs5xYBAi2tWzh_3fvm8syscalls7contextNtB5_6Memory9write_cid
FNDA:0,_RNCNvMs0_NtNtCs5xYBAi2tWzh_3fvm8syscalls7contextNtB7_6Memory9try_slice0Bb_
FNDA:0,_RNvMs0_NtNtCs5xYBAi2tWzh_3fvm8syscalls7contextNtB5_6Memory12check_bounds
FNDA:0,_RNCNvMs0_NtNtCs5xYBAi2tWzh_3fvm8syscalls7contextNtB7_6Memory9try_slices_0Bb_
FNDA:0,_RNvMs0_NtNtCs5xYBAi2tWzh_3fvm8syscalls7contextNtB5_6Memory13try_slice_mut
FNDA:0,_RNCNvMs0_NtNtCs5xYBAi2tWzh_3fvm8syscalls7contextNtB7_6Memory13try_slice_muts_0Bb_
FNDA:0,_RNvXs_NtNtCs5xYBAi2tWzh_3fvm8syscalls7contextNtB4_6MemoryNtNtNtCslBoGNiFC398_4core3ops5deref8DerefMut9deref_mut
FNDA:0,_RNvMs0_NtNtCs5xYBAi2tWzh_3fvm8syscalls7contextNtB5_6Memory8read_cid
FNDA:0,_RNvMs0_NtNtCs5xYBAi2tWzh_3fvm8syscalls7contextNtB5_6Memory12read_address
FNF:26
FNH:17
DA:25,3
DA:26,3
DA:27,3
DA:31,0
DA:32,0
DA:33,0
DA:38,5
DA:39,5
DA:40,5
DA:41,5
DA:42,5
DA:44,0
DA:45,0
DA:46,0
DA:48,0
DA:49,0
DA:50,0
DA:51,0
DA:53,0
DA:55,3
DA:56,3
DA:57,3
DA:58,3
DA:59,3
DA:60,3
DA:61,0
DA:62,0
DA:63,0
DA:64,0
DA:65,0
DA:66,0
DA:68,3
DA:69,3
DA:70,3
DA:71,3
DA:72,3
DA:73,3
DA:74,3
DA:75,3
DA:76,3
DA:77,3
DA:78,3
DA:79,3
DA:80,3
DA:81,3
DA:83,2
DA:84,2
DA:85,3
DA:87,0
DA:88,0
DA:90,0
DA:91,0
DA:92,0
DA:93,0
DA:94,0
DA:95,0
DA:96,0
DA:97,0
DA:98,0
DA:99,0
DA:100,0
DA:102,0
DA:103,0
DA:104,0
DA:105,0
DA:107,0
DA:108,0
DA:110,0
DA:111,0
DA:112,0
DA:113,0
DA:114,0
DA:117,0
DA:156,1
DA:157,1
DA:158,1
DA:159,1
DA:160,1
DA:161,1
DA:162,1
DA:163,1
DA:164,1
DA:166,1
DA:167,1
DA:168,1
DA:169,1
DA:170,1
DA:171,1
DA:172,1
DA:173,1
DA:175,1
DA:176,1
DA:177,1
DA:178,1
DA:179,1
DA:181,1
DA:182,1
DA:183,1
DA:184,1
DA:185,1
DA:186,1
DA:188,1
DA:189,1
DA:190,1
DA:191,1
DA:192,1
BRF:0
BRH:0
LF:112
LH:67
end_of_record
SF:/home/mriise/Projects/ref-fvm/fvm/src/syscalls/crypto.rs
FN:106,_RINvNtNtCs2gD7la8YEGu_3fvm8syscalls6crypto11verify_sealpEB6_
FN:187,_RINvNtNtCs2gD7la8YEGu_3fvm8syscalls6crypto22verify_aggregate_sealspEB6_
FN:125,_RINvNtNtCs2gD7la8YEGu_3fvm8syscalls6crypto11verify_postpEB6_
FN:204,_RINvNtNtCs2gD7la8YEGu_3fvm8syscalls6crypto21verify_replica_updatepEB6_
FN:43,_RNCINvNtNtCs2gD7la8YEGu_3fvm8syscalls6crypto16verify_signaturepEs_0B8_
FN:57,_RINvNtNtCs2gD7la8YEGu_3fvm8syscalls6crypto4hashpEB6_
FN:117,_RNCINvNtNtCs2gD7la8YEGu_3fvm8syscalls6crypto11verify_sealpE0B8_
FN:76,_RINvNtNtCs2gD7la8YEGu_3fvm8syscalls6crypto27compute_unsealed_sector_cidpEB6_
FN:222,_RINvNtNtCs2gD7la8YEGu_3fvm8syscalls6crypto18batch_verify_sealspEB6_
FN:34,_RNCINvNtNtCs2gD7la8YEGu_3fvm8syscalls6crypto16verify_signaturepE0B8_
FN:23,_RINvNtNtCs2gD7la8YEGu_3fvm8syscalls6crypto16verify_signaturepEB6_
FN:198,_RNCINvNtNtCs2gD7la8YEGu_3fvm8syscalls6crypto22verify_aggregate_sealspE0B8_
FN:149,_RINvNtNtCs2gD7la8YEGu_3fvm8syscalls6crypto22verify_consensus_faultpEB6_
FN:136,_RNCINvNtNtCs2gD7la8YEGu_3fvm8syscalls6crypto11verify_postpE0B8_
FN:215,_RNCINvNtNtCs2gD7la8YEGu_3fvm8syscalls6crypto21verify_replica_updatepE0B8_
FN:57,_RINvNtNtCs5xYBAi2tWzh_3fvm8syscalls6crypto4hashpEB6_
FN:43,_RNCINvNtNtCs5xYBAi2tWzh_3fvm8syscalls6crypto16verify_signaturepEs_0B8_
FN:222,_RINvNtNtCs5xYBAi2tWzh_3fvm8syscalls6crypto18batch_verify_sealspEB6_
FN:34,_RNCINvNtNtCs5xYBAi2tWzh_3fvm8syscalls6crypto16verify_signaturepE0B8_
FN:106,_RINvNtNtCs5xYBAi2tWzh_3fvm8syscalls6crypto11verify_sealpEB6_
FN:136,_RNCINvNtNtCs5xYBAi2tWzh_3fvm8syscalls6crypto11verify_postpE0B8_
FN:23,_RINvNtNtCs5xYBAi2tWzh_3fvm8syscalls6crypto16verify_signaturepEB6_
FN:187,_RINvNtNtCs5xYBAi2tWzh_3fvm8syscalls6crypto22verify_aggregate_sealspEB6_
FN:215,_RNCINvNtNtCs5xYBAi2tWzh_3fvm8syscalls6crypto21verify_replica_updatepE0B8_
FN:149,_RINvNtNtCs5xYBAi2tWzh_3fvm8syscalls6crypto22verify_consensus_faultpEB6_
FN:204,_RINvNtNtCs5xYBAi2tWzh_3fvm8syscalls6crypto21verify_replica_updatepEB6_
FN:117,_RNCINvNtNtCs5xYBAi2tWzh_3fvm8syscalls6crypto11verify_sealpE0B8_
FN:76,_RINvNtNtCs5xYBAi2tWzh_3fvm8syscalls6crypto27compute_unsealed_sector_cidpEB6_
FN:198,_RNCINvNtNtCs5xYBAi2tWzh_3fvm8syscalls6crypto22verify_aggregate_sealspE0B8_
FN:125,_RINvNtNtCs5xYBAi2tWzh_3fvm8syscalls6crypto11verify_postpEB6_
FNDA:0,_RINvNtNtCs2gD7la8YEGu_3fvm8syscalls6crypto11verify_sealpEB6_
FNDA:0,_RINvNtNtCs2gD7la8YEGu_3fvm8syscalls6crypto22verify_aggregate_sealspEB6_
FNDA:0,_RINvNtNtCs2gD7la8YEGu_3fvm8syscalls6crypto11verify_postpEB6_
FNDA:0,_RINvNtNtCs2gD7la8YEGu_3fvm8syscalls6crypto21verify_replica_updatepEB6_
FNDA:0,_RNCINvNtNtCs2gD7la8YEGu_3fvm8syscalls6crypto16verify_signaturepEs_0B8_
FNDA:0,_RINvNtNtCs2gD7la8YEGu_3fvm8syscalls6crypto4hashpEB6_
FNDA:0,_RNCINvNtNtCs2gD7la8YEGu_3fvm8syscalls6crypto11verify_sealpE0B8_
FNDA:0,_RINvNtNtCs2gD7la8YEGu_3fvm8syscalls6crypto27compute_unsealed_sector_cidpEB6_
FNDA:0,_RINvNtNtCs2gD7la8YEGu_3fvm8syscalls6crypto18batch_verify_sealspEB6_
FNDA:0,_RNCINvNtNtCs2gD7la8YEGu_3fvm8syscalls6crypto16verify_signaturepE0B8_
FNDA:0,_RINvNtNtCs2gD7la8YEGu_3fvm8syscalls6crypto16verify_signaturepEB6_
FNDA:0,_RNCINvNtNtCs2gD7la8YEGu_3fvm8syscalls6crypto22verify_aggregate_sealspE0B8_
FNDA:0,_RINvNtNtCs2gD7la8YEGu_3fvm8syscalls6crypto22verify_consensus_faultpEB6_
FNDA:0,_RNCINvNtNtCs2gD7la8YEGu_3fvm8syscalls6crypto11verify_postpE0B8_
FNDA:0,_RNCINvNtNtCs2gD7la8YEGu_3fvm8syscalls6crypto21verify_replica_updatepE0B8_
FNDA:0,_RINvNtNtCs5xYBAi2tWzh_3fvm8syscalls6crypto4hashpEB6_
FNDA:0,_RNCINvNtNtCs5xYBAi2tWzh_3fvm8syscalls6crypto16verify_signaturepEs_0B8_
FNDA:0,_RINvNtNtCs5xYBAi2tWzh_3fvm8syscalls6crypto18batch_verify_sealspEB6_
FNDA:0,_RNCINvNtNtCs5xYBAi2tWzh_3fvm8syscalls6crypto16verify_signaturepE0B8_
FNDA:0,_RINvNtNtCs5xYBAi2tWzh_3fvm8syscalls6crypto11verify_sealpEB6_
FNDA:0,_RNCINvNtNtCs5xYBAi2tWzh_3fvm8syscalls6crypto11verify_postpE0B8_
FNDA:0,_RINvNtNtCs5xYBAi2tWzh_3fvm8syscalls6crypto16verify_signaturepEB6_
FNDA:0,_RINvNtNtCs5xYBAi2tWzh_3fvm8syscalls6crypto22verify_aggregate_sealspEB6_
FNDA:0,_RNCINvNtNtCs5xYBAi2tWzh_3fvm8syscalls6crypto21verify_replica_updatepE0B8_
FNDA:0,_RINvNtNtCs5xYBAi2tWzh_3fvm8syscalls6crypto22verify_consensus_faultpEB6_
FNDA:0,_RINvNtNtCs5xYBAi2tWzh_3fvm8syscalls6crypto21verify_replica_updatepEB6_
FNDA:0,_RNCINvNtNtCs5xYBAi2tWzh_3fvm8syscalls6crypto11verify_sealpE0B8_
FNDA:0,_RINvNtNtCs5xYBAi2tWzh_3fvm8syscalls6crypto27compute_unsealed_sector_cidpEB6_
FNDA:0,_RNCINvNtNtCs5xYBAi2tWzh_3fvm8syscalls6crypto22verify_aggregate_sealspE0B8_
FNDA:0,_RINvNtNtCs5xYBAi2tWzh_3fvm8syscalls6crypto11verify_postpEB6_
FNF:15
FNH:0
DA:23,0
DA:24,0
DA:25,0
DA:26,0
DA:27,0
DA:28,0
DA:29,0
DA:30,0
DA:31,0
DA:32,0
DA:33,0
DA:34,0
DA:35,0
DA:36,0
DA:37,0
DA:38,0
DA:40,0
DA:41,0
DA:42,0
DA:43,0
DA:44,0
DA:57,0
DA:60,0
DA:61,0
DA:62,0
DA:66,0
DA:67,0
DA:68,0
DA:69,0
DA:70,0
DA:76,0
DA:77,0
DA:78,0
DA:79,0
DA:80,0
DA:81,0
DA:82,0
DA:83,0
DA:84,0
DA:85,0
DA:86,0
DA:87,0
DA:88,0
DA:89,0
DA:90,0
DA:93,0
DA:94,0
DA:95,0
DA:98,0
DA:99,0
DA:106,0
DA:107,0
DA:108,0
DA:109,0
DA:110,0
DA:111,0
DA:112,0
DA:113,0
DA:114,0
DA:115,0
DA:116,0
DA:117,0
DA:118,0
DA:125,0
DA:126,0
DA:127,0
DA:128,0
DA:129,0
DA:130,0
DA:131,0
DA:132,0
DA:133,0
DA:134,0
DA:135,0
DA:136,0
DA:137,0
DA:149,0
DA:150,0
DA:151,0
DA:152,0
DA:153,0
DA:154,0
DA:155,0
DA:156,0
DA:157,0
DA:158,0
DA:159,0
DA:160,0
DA:162,0
DA:164,0
DA:166,0
DA:167,0
DA:168,0
DA:169,0
DA:170,0
DA:171,0
DA:172,0
DA:173,0
DA:176,0
DA:177,0
DA:178,0
DA:179,0
DA:180,0
DA:182,0
DA:187,0
DA:188,0
DA:189,0
DA:190,0
DA:191,0
DA:192,0
DA:193,0
DA:194,0
DA:195,0
DA:196,0
DA:197,0
DA:198,0
DA:199,0
DA:204,0
DA:205,0
DA:206,0
DA:207,0
DA:208,0
DA:209,0
DA:210,0
DA:211,0
DA:212,0
DA:213,0
DA:214,0
DA:215,0
DA:216,0
DA:222,0
DA:223,0
DA:224,0
DA:225,0
DA:226,0
DA:227,0
DA:229,0
DA:230,0
DA:231,0
DA:232,0
DA:233,0
DA:234,0
DA:237,0
DA:240,0
DA:241,0
DA:242,0
DA:243,0
DA:244,0
DA:245,0
DA:246,0
DA:247,0
DA:248,0
DA:249,0
DA:250,0
DA:251,0
DA:252,0
DA:253,0
DA:254,0
BRF:0
BRH:0
LF:164
LH:0
end_of_record
SF:/home/mriise/Projects/ref-fvm/fvm/src/syscalls/debug.rs
FN:5,_RINvNtNtCs2gD7la8YEGu_3fvm8syscalls5debug3logpEB6_
FN:17,_RINvNtNtCs2gD7la8YEGu_3fvm8syscalls5debug7enabledpEB6_
FN:17,_RINvNtNtCs5xYBAi2tWzh_3fvm8syscalls5debug7enabledpEB6_
FN:5,_RINvNtNtCs5xYBAi2tWzh_3fvm8syscalls5debug3logpEB6_
FNDA:0,_RINvNtNtCs2gD7la8YEGu_3fvm8syscalls5debug3logpEB6_
FNDA:0,_RINvNtNtCs2gD7la8YEGu_3fvm8syscalls5debug7enabledpEB6_
FNDA:0,_RINvNtNtCs5xYBAi2tWzh_3fvm8syscalls5debug7enabledpEB6_
FNDA:0,_RINvNtNtCs5xYBAi2tWzh_3fvm8syscalls5debug3logpEB6_
FNF:2
FNH:0
DA:5,0
DA:6,0
DA:7,0
DA:8,0
DA:9,0
DA:11,0
DA:12,0
DA:13,0
DA:14,0
DA:15,0
DA:17,0
DA:18,0
DA:19,0
DA:21,0
DA:23,0
BRF:0
BRH:0
LF:15
LH:0
end_of_record
SF:/home/mriise/Projects/ref-fvm/fvm/src/syscalls/error.rs
FN:12,_RNvXs3_NtNtCs2gD7la8YEGu_3fvm8syscalls5errorNtB5_5AbortNtNtCslBoGNiFC398_4core3fmt5Debug3fmt
FN:92,_RNCNvMs1_NtNtCs2gD7la8YEGu_3fvm8syscalls5errorNtB7_8Envelope4take0Bb_
FN:40,_RNvMNtNtCs2gD7la8YEGu_3fvm8syscalls5errorNtB2_5Abort19from_error_as_fatal
FN:71,_RNCNvXs0_NtNtCs2gD7la8YEGu_3fvm8syscalls5errorNtB7_5AbortINtNtCslBoGNiFC398_4core7convert4FromNtNtCslmt8qyoSfgL_8wasmtime4trap4TrapE4froms0_0Bb_
FN:91,_RNvMs1_NtNtCs2gD7la8YEGu_3fvm8syscalls5errorNtB5_8Envelope4take
FN:68,_RNCNvXs0_NtNtCs2gD7la8YEGu_3fvm8syscalls5errorNtB7_5AbortINtNtCslBoGNiFC398_4core7convert4FromNtNtCslmt8qyoSfgL_8wasmtime4trap4TrapE4from0Bb_
FN:69,_RNCNvXs0_NtNtCs2gD7la8YEGu_3fvm8syscalls5errorNtB7_5AbortINtNtCslBoGNiFC398_4core7convert4FromNtNtCslmt8qyoSfgL_8wasmtime4trap4TrapE4froms_0Bb_
FN:25,_RNvMNtNtCs2gD7la8YEGu_3fvm8syscalls5errorNtB2_5Abort10from_error
FN:79,_RNvXs4_NtNtCs2gD7la8YEGu_3fvm8syscalls5errorNtB5_8EnvelopeNtNtCslBoGNiFC398_4core3fmt7Display3fmtB9_
FN:62,_RNvXs0_NtNtCs2gD7la8YEGu_3fvm8syscalls5errorNtB5_5AbortINtNtCslBoGNiFC398_4core7convert4FromNtNtCslmt8qyoSfgL_8wasmtime4trap4TrapE4from
FN:86,_RNvMs1_NtNtCs2gD7la8YEGu_3fvm8syscalls5errorNtB5_8Envelope4wrap
FN:51,_RNvXs_NtNtCs2gD7la8YEGu_3fvm8syscalls5errorNtNtCslmt8qyoSfgL_8wasmtime4trap4TrapINtNtCslBoGNiFC398_4core7convert4FromNtB4_5AbortE4from
FN:79,_RNvXs5_NtNtCs2gD7la8YEGu_3fvm8syscalls5errorNtB5_8EnvelopeNtNtCslBoGNiFC398_4core3fmt5Debug3fmt
FN:97,_RNvXs2_NtNtCs2gD7la8YEGu_3fvm8syscalls5errorNtB5_8EnvelopeNtNtCsduPDAHU5p59_3std5error5Error6source
FN:51,_RNvXs_NtNtCs5xYBAi2tWzh_3fvm8syscalls5errorNtNtCslmt8qyoSfgL_8wasmtime4trap4TrapINtNtCslBoGNiFC398_4core7convert4FromNtB4_5AbortE4from
FN:92,_RNCNvMs1_NtNtCs5xYBAi2tWzh_3fvm8syscalls5errorNtB7_8Envelope4take0Bb_
FN:79,_RNvXs5_NtNtCs5xYBAi2tWzh_3fvm8syscalls5errorNtB5_8EnvelopeNtNtCslBoGNiFC398_4core3fmt5Debug3fmt
FN:69,_RNCNvXs0_NtNtCs5xYBAi2tWzh_3fvm8syscalls5errorNtB7_5AbortINtNtCslBoGNiFC398_4core7convert4FromNtNtCslmt8qyoSfgL_8wasmtime4trap4TrapE4froms_0Bb_
FN:91,_RNvMs1_NtNtCs5xYBAi2tWzh_3fvm8syscalls5errorNtB5_8Envelope4take
FN:79,_RNvXs4_NtNtCs5xYBAi2tWzh_3fvm8syscalls5errorNtB5_8EnvelopeNtNtCslBoGNiFC398_4core3fmt7Display3fmtB9_
FN:25,_RNvMNtNtCs5xYBAi2tWzh_3fvm8syscalls5errorNtB2_5Abort10from_error
FN:68,_RNCNvXs0_NtNtCs5xYBAi2tWzh_3fvm8syscalls5errorNtB7_5AbortINtNtCslBoGNiFC398_4core7convert4FromNtNtCslmt8qyoSfgL_8wasmtime4trap4TrapE4from0Bb_
FN:12,_RNvXs3_NtNtCs5xYBAi2tWzh_3fvm8syscalls5errorNtB5_5AbortNtNtCslBoGNiFC398_4core3fmt5Debug3fmt
FN:71,_RNCNvXs0_NtNtCs5xYBAi2tWzh_3fvm8syscalls5errorNtB7_5AbortINtNtCslBoGNiFC398_4core7convert4FromNtNtCslmt8qyoSfgL_8wasmtime4trap4TrapE4froms0_0Bb_
FN:62,_RNvXs0_NtNtCs5xYBAi2tWzh_3fvm8syscalls5errorNtB5_5AbortINtNtCslBoGNiFC398_4core7convert4FromNtNtCslmt8qyoSfgL_8wasmtime4trap4TrapE4from
FN:86,_RNvMs1_NtNtCs5xYBAi2tWzh_3fvm8syscalls5errorNtB5_8Envelope4wrap
FN:97,_RNvXs2_NtNtCs5xYBAi2tWzh_3fvm8syscalls5errorNtB5_8EnvelopeNtNtCsduPDAHU5p59_3std5error5Error6source
FN:40,_RNvMNtNtCs5xYBAi2tWzh_3fvm8syscalls5errorNtB2_5Abort19from_error_as_fatal
FNDA:0,_RNvXs3_NtNtCs2gD7la8YEGu_3fvm8syscalls5errorNtB5_5AbortNtNtCslBoGNiFC398_4core3fmt5Debug3fmt
FNDA:0,_RNCNvMs1_NtNtCs2gD7la8YEGu_3fvm8syscalls5errorNtB7_8Envelope4take0Bb_
FNDA:0,_RNvMNtNtCs2gD7la8YEGu_3fvm8syscalls5errorNtB2_5Abort19from_error_as_fatal
FNDA:0,_RNCNvXs0_NtNtCs2gD7la8YEGu_3fvm8syscalls5errorNtB7_5AbortINtNtCslBoGNiFC398_4core7convert4FromNtNtCslmt8qyoSfgL_8wasmtime4trap4TrapE4froms0_0Bb_
FNDA:0,_RNvMs1_NtNtCs2gD7la8YEGu_3fvm8syscalls5errorNtB5_8Envelope4take
FNDA:0,_RNCNvXs0_NtNtCs2gD7la8YEGu_3fvm8syscalls5errorNtB7_5AbortINtNtCslBoGNiFC398_4core7convert4FromNtNtCslmt8qyoSfgL_8wasmtime4trap4TrapE4from0Bb_
FNDA:0,_RNCNvXs0_NtNtCs2gD7la8YEGu_3fvm8syscalls5errorNtB7_5AbortINtNtCslBoGNiFC398_4core7convert4FromNtNtCslmt8qyoSfgL_8wasmtime4trap4TrapE4froms_0Bb_
FNDA:0,_RNvMNtNtCs2gD7la8YEGu_3fvm8syscalls5errorNtB2_5Abort10from_error
FNDA:0,_RNvXs4_NtNtCs2gD7la8YEGu_3fvm8syscalls5errorNtB5_8EnvelopeNtNtCslBoGNiFC398_4core3fmt7Display3fmtB9_
FNDA:0,_RNvXs0_NtNtCs2gD7la8YEGu_3fvm8syscalls5errorNtB5_5AbortINtNtCslBoGNiFC398_4core7convert4FromNtNtCslmt8qyoSfgL_8wasmtime4trap4TrapE4from
FNDA:0,_RNvMs1_NtNtCs2gD7la8YEGu_3fvm8syscalls5errorNtB5_8Envelope4wrap
FNDA:0,_RNvXs_NtNtCs2gD7la8YEGu_3fvm8syscalls5errorNtNtCslmt8qyoSfgL_8wasmtime4trap4TrapINtNtCslBoGNiFC398_4core7convert4FromNtB4_5AbortE4from
FNDA:0,_RNvXs5_NtNtCs2gD7la8YEGu_3fvm8syscalls5errorNtB5_8EnvelopeNtNtCslBoGNiFC398_4core3fmt5Debug3fmt
FNDA:0,_RNvXs2_NtNtCs2gD7la8YEGu_3fvm8syscalls5errorNtB5_8EnvelopeNtNtCsduPDAHU5p59_3std5error5Error6source
FNDA:0,_RNvXs_NtNtCs5xYBAi2tWzh_3fvm8syscalls5errorNtNtCslmt8qyoSfgL_8wasmtime4trap4TrapINtNtCslBoGNiFC398_4core7convert4FromNtB4_5AbortE4from
FNDA:0,_RNCNvMs1_NtNtCs5xYBAi2tWzh_3fvm8syscalls5errorNtB7_8Envelope4take0Bb_
FNDA:0,_RNvXs5_NtNtCs5xYBAi2tWzh_3fvm8syscalls5errorNtB5_8EnvelopeNtNtCslBoGNiFC398_4core3fmt5Debug3fmt
FNDA:0,_RNCNvXs0_NtNtCs5xYBAi2tWzh_3fvm8syscalls5errorNtB7_5AbortINtNtCslBoGNiFC398_4core7convert4FromNtNtCslmt8qyoSfgL_8wasmtime4trap4TrapE4froms_0Bb_
FNDA:0,_RNvMs1_NtNtCs5xYBAi2tWzh_3fvm8syscalls5errorNtB5_8Envelope4take
FNDA:0,_RNvXs4_NtNtCs5xYBAi2tWzh_3fvm8syscalls5errorNtB5_8EnvelopeNtNtCslBoGNiFC398_4core3fmt7Display3fmtB9_
FNDA:0,_RNvMNtNtCs5xYBAi2tWzh_3fvm8syscalls5errorNtB2_5Abort10from_error
FNDA:0,_RNCNvXs0_NtNtCs5xYBAi2tWzh_3fvm8syscalls5errorNtB7_5AbortINtNtCslBoGNiFC398_4core7convert4FromNtNtCslmt8qyoSfgL_8wasmtime4trap4TrapE4from0Bb_
FNDA:0,_RNvXs3_NtNtCs5xYBAi2tWzh_3fvm8syscalls5errorNtB5_5AbortNtNtCslBoGNiFC398_4core3fmt5Debug3fmt
FNDA:0,_RNCNvXs0_NtNtCs5xYBAi2tWzh_3fvm8syscalls5errorNtB7_5AbortINtNtCslBoGNiFC398_4core7convert4FromNtNtCslmt8qyoSfgL_8wasmtime4trap4TrapE4froms0_0Bb_
FNDA:0,_RNvXs0_NtNtCs5xYBAi2tWzh_3fvm8syscalls5errorNtB5_5AbortINtNtCslBoGNiFC398_4core7convert4FromNtNtCslmt8qyoSfgL_8wasmtime4trap4TrapE4from
FNDA:0,_RNvMs1_NtNtCs5xYBAi2tWzh_3fvm8syscalls5errorNtB5_8Envelope4wrap
FNDA:0,_RNvXs2_NtNtCs5xYBAi2tWzh_3fvm8syscalls5errorNtB5_8EnvelopeNtNtCsduPDAHU5p59_3std5error5Error6source
FNDA:0,_RNvMNtNtCs5xYBAi2tWzh_3fvm8syscalls5errorNtB2_5Abort19from_error_as_fatal
FNF:14
FNH:0
DA:12,0
DA:25,0
DA:26,0
DA:27,0
DA:28,0
DA:29,0
DA:30,0
DA:31,0
DA:32,0
DA:33,0
DA:34,0
DA:35,0
DA:37,0
DA:40,0
DA:41,0
DA:42,0
DA:43,0
DA:44,0
DA:46,0
DA:51,0
DA:52,0
DA:53,0
DA:62,0
DA:63,0
DA:64,0
DA:65,0
DA:66,0
DA:67,0
DA:68,0
DA:69,0
DA:70,0
DA:71,0
DA:72,0
DA:79,0
DA:86,0
DA:87,0
DA:88,0
DA:89,0
DA:90,0
DA:91,0
DA:92,0
DA:93,0
DA:97,0
DA:98,0
DA:99,0
BRF:0
BRH:0
LF:50
LH:0
end_of_record
SF:/home/mriise/Projects/ref-fvm/fvm/src/syscalls/gas.rs
FN:8,_RINvNtNtCs2gD7la8YEGu_3fvm8syscalls3gas10charge_gaspEB6_
FN:8,_RINvNtNtCs5xYBAi2tWzh_3fvm8syscalls3gas10charge_gaspEB6_
FNDA:0,_RINvNtNtCs2gD7la8YEGu_3fvm8syscalls3gas10charge_gaspEB6_
FNDA:0,_RINvNtNtCs5xYBAi2tWzh_3fvm8syscalls3gas10charge_gaspEB6_
FNF:1
FNH:0
DA:8,0
DA:9,0
DA:10,0
DA:11,0
DA:12,0
DA:13,0
DA:14,0
DA:15,0
DA:17,0
DA:18,0
BRF:0
BRH:0
LF:10
LH:0
end_of_record
SF:/home/mriise/Projects/ref-fvm/fvm/src/syscalls/ipld.rs
FN:36,_RINvNtNtCs2gD7la8YEGu_3fvm8syscalls4ipld10block_linkpEB6_
FN:60,_RNCINvNtNtCs2gD7la8YEGu_3fvm8syscalls4ipld10block_statpE0B8_
FN:7,_RINvNtNtCs2gD7la8YEGu_3fvm8syscalls4ipld10block_openpEB6_
FN:45,_RINvNtNtCs2gD7la8YEGu_3fvm8syscalls4ipld10block_readpEB6_
FN:17,_RINvNtNtCs2gD7la8YEGu_3fvm8syscalls4ipld12block_createpEB6_
FN:56,_RINvNtNtCs2gD7la8YEGu_3fvm8syscalls4ipld10block_statpEB6_
FN:36,_RINvNtNtCs5xYBAi2tWzh_3fvm8syscalls4ipld10block_linkpEB6_
FN:45,_RINvNtNtCs5xYBAi2tWzh_3fvm8syscalls4ipld10block_readpEB6_
FN:7,_RINvNtNtCs5xYBAi2tWzh_3fvm8syscalls4ipld10block_openpEB6_
FN:60,_RNCINvNtNtCs5xYBAi2tWzh_3fvm8syscalls4ipld10block_statpE0B8_
FN:56,_RINvNtNtCs5xYBAi2tWzh_3fvm8syscalls4ipld10block_statpEB6_
FN:17,_RINvNtNtCs5xYBAi2tWzh_3fvm8syscalls4ipld12block_createpEB6_
FNDA:0,_RINvNtNtCs2gD7la8YEGu_3fvm8syscalls4ipld10block_linkpEB6_
FNDA:0,_RNCINvNtNtCs2gD7la8YEGu_3fvm8syscalls4ipld10block_statpE0B8_
FNDA:0,_RINvNtNtCs2gD7la8YEGu_3fvm8syscalls4ipld10block_openpEB6_
FNDA:0,_RINvNtNtCs2gD7la8YEGu_3fvm8syscalls4ipld10block_readpEB6_
FNDA:0,_RINvNtNtCs2gD7la8YEGu_3fvm8syscalls4ipld12block_createpEB6_
FNDA:0,_RINvNtNtCs2gD7la8YEGu_3fvm8syscalls4ipld10block_statpEB6_
FNDA:0,_RINvNtNtCs5xYBAi2tWzh_3fvm8syscalls4ipld10block_linkpEB6_
FNDA:0,_RINvNtNtCs5xYBAi2tWzh_3fvm8syscalls4ipld10block_readpEB6_
FNDA:0,_RINvNtNtCs5xYBAi2tWzh_3fvm8syscalls4ipld10block_openpEB6_
FNDA:0,_RNCINvNtNtCs5xYBAi2tWzh_3fvm8syscalls4ipld10block_statpE0B8_
FNDA:0,_RINvNtNtCs5xYBAi2tWzh_3fvm8syscalls4ipld10block_statpEB6_
FNDA:0,_RINvNtNtCs5xYBAi2tWzh_3fvm8syscalls4ipld12block_createpEB6_
FNF:6
FNH:0
DA:7,0
DA:8,0
DA:9,0
DA:10,0
DA:11,0
DA:12,0
DA:13,0
DA:14,0
DA:15,0
DA:17,0
DA:18,0
DA:19,0
DA:20,0
DA:21,0
DA:22,0
DA:23,0
DA:24,0
DA:25,0
DA:36,0
DA:39,0
DA:42,0
DA:43,0
DA:45,0
DA:46,0
DA:47,0
DA:48,0
DA:49,0
DA:50,0
DA:51,0
DA:52,0
DA:53,0
DA:54,0
DA:56,0
DA:57,0
DA:58,0
DA:59,0
DA:60,0
DA:61,0
DA:62,0
DA:63,0
DA:64,0
BRF:0
BRH:0
LF:43
LH:0
end_of_record
SF:/home/mriise/Projects/ref-fvm/fvm/src/syscalls/mod.rs
FN:64,_RINvNtCs2gD7la8YEGu_3fvm8syscalls15charge_for_execppEB4_
FN:100,_RINvNtCs2gD7la8YEGu_3fvm8syscalls13bind_syscallspEB4_
FN:48,_RINvNtCs2gD7la8YEGu_3fvm8syscalls20update_gas_availableppEB4_
FN:57,_RNCINvNtCs2gD7la8YEGu_3fvm8syscalls20update_gas_availableppE0B6_
FN:48,_RINvNtCs5xYBAi2tWzh_3fvm8syscalls20update_gas_availableppEB4_
FN:100,_RINvNtCs5xYBAi2tWzh_3fvm8syscalls13bind_syscallspEB4_
FN:57,_RNCINvNtCs5xYBAi2tWzh_3fvm8syscalls20update_gas_availableppE0B6_
FN:64,_RINvNtCs5xYBAi2tWzh_3fvm8syscalls15charge_for_execppEB4_
FNDA:0,_RINvNtCs2gD7la8YEGu_3fvm8syscalls15charge_for_execppEB4_
FNDA:0,_RINvNtCs2gD7la8YEGu_3fvm8syscalls13bind_syscallspEB4_
FNDA:0,_RINvNtCs2gD7la8YEGu_3fvm8syscalls20update_gas_availableppEB4_
FNDA:0,_RNCINvNtCs2gD7la8YEGu_3fvm8syscalls20update_gas_availableppE0B6_
FNDA:0,_RINvNtCs5xYBAi2tWzh_3fvm8syscalls20update_gas_availableppEB4_
FNDA:0,_RINvNtCs5xYBAi2tWzh_3fvm8syscalls13bind_syscallspEB4_
FNDA:0,_RNCINvNtCs5xYBAi2tWzh_3fvm8syscalls20update_gas_availableppE0B6_
FNDA:0,_RINvNtCs5xYBAi2tWzh_3fvm8syscalls15charge_for_execppEB4_
FNF:4
FNH:0
DA:48,0
DA:49,0
DA:50,0
DA:51,0
DA:52,0
DA:53,0
DA:54,0
DA:55,0
DA:56,0
DA:57,0
DA:59,0
DA:60,0
DA:61,0
DA:64,0
DA:65,0
DA:66,0
DA:67,0
DA:68,0
DA:70,0
DA:71,0
DA:72,0
DA:73,0
DA:74,0
DA:77,0
DA:78,0
DA:79,0
DA:80,0
DA:81,0
DA:82,0
DA:83,0
DA:84,0
DA:85,0
DA:86,0
DA:87,0
DA:89,0
DA:90,0
DA:100,0
DA:101,0
DA:103,0
DA:104,0
DA:105,0
DA:106,0
DA:107,0
DA:108,0
DA:110,0
DA:111,0
DA:112,0
DA:113,0
DA:114,0
DA:116,0
DA:117,0
DA:118,0
DA:119,0
DA:121,0
DA:122,0
DA:123,0
DA:124,0
DA:125,0
DA:126,0
DA:127,0
DA:128,0
DA:129,0
DA:130,0
DA:131,0
DA:132,0
DA:133,0
DA:134,0
DA:136,0
DA:137,0
DA:138,0
DA:139,0
DA:140,0
DA:141,0
DA:142,0
DA:143,0
DA:144,0
DA:145,0
DA:146,0
DA:147,0
DA:148,0
DA:149,0
DA:150,0
DA:151,0
DA:152,0
DA:153,0
DA:154,0
DA:155,0
DA:156,0
DA:157,0
DA:158,0
DA:159,0
DA:160,0
DA:162,0
DA:163,0
DA:165,0
DA:168,0
DA:170,0
DA:171,0
DA:173,0
DA:174,0
BRF:0
BRH:0
LF:101
LH:0
end_of_record
SF:/home/mriise/Projects/ref-fvm/fvm/src/syscalls/network.rs
FN:19,_RINvNtNtCs2gD7la8YEGu_3fvm8syscalls7network21total_fil_circ_supplypEB6_
FN:8,_RINvNtNtCs2gD7la8YEGu_3fvm8syscalls7network8base_feepEB6_
FN:8,_RINvNtNtCs5xYBAi2tWzh_3fvm8syscalls7network8base_feepEB6_
FN:19,_RINvNtNtCs5xYBAi2tWzh_3fvm8syscalls7network21total_fil_circ_supplypEB6_
FNDA:0,_RINvNtNtCs2gD7la8YEGu_3fvm8syscalls7network21total_fil_circ_supplypEB6_
FNDA:0,_RINvNtNtCs2gD7la8YEGu_3fvm8syscalls7network8base_feepEB6_
FNDA:0,_RINvNtNtCs5xYBAi2tWzh_3fvm8syscalls7network8base_feepEB6_
FNDA:0,_RINvNtNtCs5xYBAi2tWzh_3fvm8syscalls7network21total_fil_circ_supplypEB6_
FNF:2
FNH:0
DA:8,0
DA:9,0
DA:10,0
DA:11,0
DA:12,0
DA:13,0
DA:14,0
DA:15,0
DA:19,0
DA:20,0
DA:21,0
DA:22,0
DA:23,0
DA:24,0
DA:25,0
BRF:0
BRH:0
LF:15
LH:0
end_of_record
SF:/home/mriise/Projects/ref-fvm/fvm/src/syscalls/rand.rs
FN:11,_RINvNtNtCs2gD7la8YEGu_3fvm8syscalls4rand20get_chain_randomnesspEB6_
FN:28,_RINvNtNtCs2gD7la8YEGu_3fvm8syscalls4rand21get_beacon_randomnesspEB6_
FN:11,_RINvNtNtCs5xYBAi2tWzh_3fvm8syscalls4rand20get_chain_randomnesspEB6_
FN:28,_RINvNtNtCs5xYBAi2tWzh_3fvm8syscalls4rand21get_beacon_randomnesspEB6_
FNDA:0,_RINvNtNtCs2gD7la8YEGu_3fvm8syscalls4rand20get_chain_randomnesspEB6_
FNDA:0,_RINvNtNtCs2gD7la8YEGu_3fvm8syscalls4rand21get_beacon_randomnesspEB6_
FNDA:0,_RINvNtNtCs5xYBAi2tWzh_3fvm8syscalls4rand20get_chain_randomnesspEB6_
FNDA:0,_RINvNtNtCs5xYBAi2tWzh_3fvm8syscalls4rand21get_beacon_randomnesspEB6_
FNF:2
FNH:0
DA:11,0
DA:12,0
DA:13,0
DA:14,0
DA:15,0
DA:16,0
DA:17,0
DA:18,0
DA:19,0
DA:20,0
DA:21,0
DA:22,0
DA:28,0
DA:29,0
DA:30,0
DA:31,0
DA:32,0
DA:33,0
DA:34,0
DA:35,0
DA:36,0
DA:37,0
DA:38,0
DA:39,0
BRF:0
BRH:0
LF:24
LH:0
end_of_record
SF:/home/mriise/Projects/ref-fvm/fvm/src/syscalls/send.rs
FN:12,_RINvNtNtCs2gD7la8YEGu_3fvm8syscalls4send4sendpEB6_
FN:12,_RINvNtNtCs5xYBAi2tWzh_3fvm8syscalls4send4sendpEB6_
FNDA:0,_RINvNtNtCs2gD7la8YEGu_3fvm8syscalls4send4sendpEB6_
FNDA:0,_RINvNtNtCs5xYBAi2tWzh_3fvm8syscalls4send4sendpEB6_
FNF:1
FNH:0
DA:12,0
DA:13,0
DA:14,0
DA:15,0
DA:16,0
DA:17,0
DA:18,0
DA:19,0
DA:20,0
DA:21,0
DA:22,0
DA:23,0
DA:24,0
DA:25,0
DA:26,0
DA:27,0
DA:28,0
DA:29,0
DA:30,0
DA:31,0
DA:32,0
DA:33,0
DA:34,0
DA:35,0
DA:36,0
DA:37,0
DA:38,0
DA:41,0
BRF:0
BRH:0
LF:28
LH:0
end_of_record
SF:/home/mriise/Projects/ref-fvm/fvm/src/syscalls/sself.rs
FN:20,_RINvNtNtCs2gD7la8YEGu_3fvm8syscalls5sself8set_rootpEB6_
FN:34,_RINvNtNtCs2gD7la8YEGu_3fvm8syscalls5sself13self_destructpEB6_
FN:13,_RINvNtNtCs2gD7la8YEGu_3fvm8syscalls5sself4rootpEB6_
FN:26,_RINvNtNtCs2gD7la8YEGu_3fvm8syscalls5sself15current_balancepEB6_
FN:13,_RINvNtNtCs5xYBAi2tWzh_3fvm8syscalls5sself4rootpEB6_
FN:34,_RINvNtNtCs5xYBAi2tWzh_3fvm8syscalls5sself13self_destructpEB6_
FN:26,_RINvNtNtCs5xYBAi2tWzh_3fvm8syscalls5sself15current_balancepEB6_
FN:20,_RINvNtNtCs5xYBAi2tWzh_3fvm8syscalls5sself8set_rootpEB6_
FNDA:0,_RINvNtNtCs2gD7la8YEGu_3fvm8syscalls5sself8set_rootpEB6_
FNDA:0,_RINvNtNtCs2gD7la8YEGu_3fvm8syscalls5sself13self_destructpEB6_
FNDA:0,_RINvNtNtCs2gD7la8YEGu_3fvm8syscalls5sself4rootpEB6_
FNDA:0,_RINvNtNtCs2gD7la8YEGu_3fvm8syscalls5sself15current_balancepEB6_
FNDA:0,_RINvNtNtCs5xYBAi2tWzh_3fvm8syscalls5sself4rootpEB6_
FNDA:0,_RINvNtNtCs5xYBAi2tWzh_3fvm8syscalls5sself13self_destructpEB6_
FNDA:0,_RINvNtNtCs5xYBAi2tWzh_3fvm8syscalls5sself15current_balancepEB6_
FNDA:0,_RINvNtNtCs5xYBAi2tWzh_3fvm8syscalls5sself8set_rootpEB6_
FNF:4
FNH:0
DA:13,0
DA:15,0
DA:17,0
DA:18,0
DA:20,0
DA:21,0
DA:22,0
DA:23,0
DA:24,0
DA:26,0
DA:27,0
DA:28,0
DA:29,0
DA:30,0
DA:31,0
DA:32,0
DA:34,0
DA:35,0
DA:36,0
DA:37,0
DA:38,0
DA:39,0
DA:40,0
DA:41,0
DA:42,0
BRF:0
BRH:0
LF:25
LH:0
end_of_record
SF:/home/mriise/Projects/ref-fvm/fvm/src/syscalls/vm.rs
FN:45,_RNCINvNtNtCs2gD7la8YEGu_3fvm8syscalls2vm5abortpEs_0B8_
FN:51,_RINvNtNtCs2gD7la8YEGu_3fvm8syscalls2vm7contextpEB6_
FN:41,_RNCINvNtNtCs2gD7la8YEGu_3fvm8syscalls2vm5abortpE0B8_
FN:12,_RNvXs0_NtNtCs2gD7la8YEGu_3fvm8syscalls2vmNtB5_5NeverNtNtCslBoGNiFC398_4core5clone5Clone5cloneB9_
FN:18,_RINvNtNtCs2gD7la8YEGu_3fvm8syscalls2vm5abortpEB6_
FN:12,_RNvXs0_NtNtCs5xYBAi2tWzh_3fvm8syscalls2vmNtB5_5NeverNtNtCslBoGNiFC398_4core5clone5Clone5cloneB9_
FN:41,_RNCINvNtNtCs5xYBAi2tWzh_3fvm8syscalls2vm5abortpE0B8_
FN:51,_RINvNtNtCs5xYBAi2tWzh_3fvm8syscalls2vm7contextpEB6_
FN:18,_RINvNtNtCs5xYBAi2tWzh_3fvm8syscalls2vm5abortpEB6_
FN:45,_RNCINvNtNtCs5xYBAi2tWzh_3fvm8syscalls2vm5abortpEs_0B8_
FNDA:0,_RNCINvNtNtCs2gD7la8YEGu_3fvm8syscalls2vm5abortpEs_0B8_
FNDA:0,_RINvNtNtCs2gD7la8YEGu_3fvm8syscalls2vm7contextpEB6_
FNDA:0,_RNCINvNtNtCs2gD7la8YEGu_3fvm8syscalls2vm5abortpE0B8_
FNDA:0,_RNvXs0_NtNtCs2gD7la8YEGu_3fvm8syscalls2vmNtB5_5NeverNtNtCslBoGNiFC398_4core5clone5Clone5cloneB9_
FNDA:0,_RINvNtNtCs2gD7la8YEGu_3fvm8syscalls2vm5abortpEB6_
FNDA:0,_RNvXs0_NtNtCs5xYBAi2tWzh_3fvm8syscalls2vmNtB5_5NeverNtNtCslBoGNiFC398_4core5clone5Clone5cloneB9_
FNDA:0,_RNCINvNtNtCs5xYBAi2tWzh_3fvm8syscalls2vm5abortpE0B8_
FNDA:0,_RINvNtNtCs5xYBAi2tWzh_3fvm8syscalls2vm7contextpEB6_
FNDA:0,_RINvNtNtCs5xYBAi2tWzh_3fvm8syscalls2vm5abortpEB6_
FNDA:0,_RNCINvNtNtCs5xYBAi2tWzh_3fvm8syscalls2vm5abortpEs_0B8_
FNF:5
FNH:0
DA:12,0
DA:18,0
DA:19,0
DA:20,0
DA:21,0
DA:22,0
DA:23,0
DA:24,0
DA:25,0
DA:26,0
DA:27,0
DA:28,0
DA:29,0
DA:30,0
DA:31,0
DA:32,0
DA:34,0
DA:35,0
DA:38,0
DA:39,0
DA:40,0
DA:41,0
DA:43,0
DA:44,0
DA:45,0
DA:46,0
DA:48,0
DA:49,0
DA:51,0
DA:52,0
DA:53,0
DA:54,0
DA:55,0
DA:56,0
DA:57,0
DA:58,0
DA:59,0
DA:60,0
DA:61,0
DA:62,0
DA:63,0
DA:64,0
DA:65,0
DA:67,0
BRF:0
BRH:0
LF:46
LH:0
end_of_record
SF:/home/mriise/Projects/ref-fvm/fvm/src/system_actor.rs
FN:13,_RNvXNvXNvNvXs1_NtCs2gD7la8YEGu_3fvm12system_actorNtBd_5StateNtNtCsj3WkLEH4Ge0_5serde2de11Deserialize11deserialize1__NtB7_5InnerBW_11deserializeNtB2_9___VisitorNtBY_7Visitor9expecting
FN:13,_RINvXNvXNvNvXs1_NtCs2gD7la8YEGu_3fvm12system_actorNtBe_5StateNtNtCsj3WkLEH4Ge0_5serde2de11Deserialize11deserialize1__NtB8_5InnerBX_11deserializeNtB3_9___VisitorNtBZ_7Visitor20visit_newtype_structpEBg_
FN:13,_RNvXs0_NtCs2gD7la8YEGu_3fvm12system_actorNtB5_5StateNtNtCslBoGNiFC398_4core7default7Default7defaultB7_
FN:13,_RINvXs2_NtCs2gD7la8YEGu_3fvm12system_actorNtB6_5StateNtNtCsj3WkLEH4Ge0_5serde3ser9Serialize9serializepEB8_
FN:13,_RINvXNvNvXs2_NtCs2gD7la8YEGu_3fvm12system_actorNtBb_5StateNtNtCsj3WkLEH4Ge0_5serde3ser9Serialize9serialize1__NtB5_5InnerBU_9serializepEBd_
FN:21,_RINvMs_NtCs2gD7la8YEGu_3fvm12system_actorNtB5_5State4loadINtNtNtB7_10blockstore8buffered18BufferedBlockstoreNtNtCslbkBntY5hAO_19fvm_ipld_blockstore6memory16MemoryBlockstoreEEB7_
FN:13,_RINvXs1_NtCs2gD7la8YEGu_3fvm12system_actorNtB6_5StateNtNtCsj3WkLEH4Ge0_5serde2de11Deserialize11deserializeQINtNtCs7jq4FGjB44s_18serde_ipld_dagcbor2de12DeserializerNtNtNtCshVKh6t4RGJQ_7cbor4ii4core5utils11SliceReaderEEB8_
FN:13,_RINvXNvXNvNvXs1_NtCs2gD7la8YEGu_3fvm12system_actorNtBe_5StateNtNtCsj3WkLEH4Ge0_5serde2de11Deserialize11deserialize1__NtB8_5InnerBX_11deserializeNtB3_9___VisitorNtBZ_7Visitor9visit_seqINtNtCs7jq4FGjB44s_18serde_ipld_dagcbor2de8AccessorNtNtNtCshVKh6t4RGJQ_7cbor4ii4core5utils11SliceReaderEEBg_
FN:13,_RINvXNvNvXs1_NtCs2gD7la8YEGu_3fvm12system_actorNtBb_5StateNtNtCsj3WkLEH4Ge0_5serde2de11Deserialize11deserialize1__NtB5_5InnerBU_11deserializeINtCs66xhiZNt6H5_11serde_tuple12DeserializerQINtNtCs7jq4FGjB44s_18serde_ipld_dagcbor2de12DeserializerNtNtNtCshVKh6t4RGJQ_7cbor4ii4core5utils11SliceReaderEEEBd_
FN:13,_RINvXs2_NtCs5xYBAi2tWzh_3fvm12system_actorNtB6_5StateNtNtCsj3WkLEH4Ge0_5serde3ser9Serialize9serializepEB8_
FN:21,_RINvMs_NtCs5xYBAi2tWzh_3fvm12system_actorNtB5_5State4loadpEB7_
FN:13,_RNvXs0_NtCs5xYBAi2tWzh_3fvm12system_actorNtB5_5StateNtNtCslBoGNiFC398_4core7default7Default7defaultB7_
FN:13,_RINvXNvXNvNvXs1_NtCs5xYBAi2tWzh_3fvm12system_actorNtBe_5StateNtNtCsj3WkLEH4Ge0_5serde2de11Deserialize11deserialize1__NtB8_5InnerBX_11deserializeNtB3_9___VisitorNtBZ_7Visitor20visit_newtype_structpEBg_
FN:13,_RINvXNvNvXs2_NtCs5xYBAi2tWzh_3fvm12system_actorNtBb_5StateNtNtCsj3WkLEH4Ge0_5serde3ser9Serialize9serialize1__NtB5_5InnerBU_9serializepEBd_
FN:13,_RINvXNvXNvNvXs1_NtCs5xYBAi2tWzh_3fvm12system_actorNtBe_5StateNtNtCsj3WkLEH4Ge0_5serde2de11Deserialize11deserialize1__NtB8_5InnerBX_11deserializeNtB3_9___VisitorNtBZ_7Visitor9visit_seqpEBg_
FN:13,_RINvXs1_NtCs5xYBAi2tWzh_3fvm12system_actorNtB6_5StateNtNtCsj3WkLEH4Ge0_5serde2de11Deserialize11deserializepEB8_
FN:13,_RINvXNvNvXs1_NtCs5xYBAi2tWzh_3fvm12system_actorNtBb_5StateNtNtCsj3WkLEH4Ge0_5serde2de11Deserialize11deserialize1__NtB5_5InnerBU_11deserializepEBd_
FN:13,_RNvXNvXNvNvXs1_NtCs5xYBAi2tWzh_3fvm12system_actorNtBd_5StateNtNtCsj3WkLEH4Ge0_5serde2de11Deserialize11deserialize1__NtB7_5InnerBW_11deserializeNtB2_9___VisitorNtBY_7Visitor9expecting
FNDA:0,_RNvXNvXNvNvXs1_NtCs2gD7la8YEGu_3fvm12system_actorNtBd_5StateNtNtCsj3WkLEH4Ge0_5serde2de11Deserialize11deserialize1__NtB7_5InnerBW_11deserializeNtB2_9___VisitorNtBY_7Visitor9expecting
FNDA:0,_RINvXNvXNvNvXs1_NtCs2gD7la8YEGu_3fvm12system_actorNtBe_5StateNtNtCsj3WkLEH4Ge0_5serde2de11Deserialize11deserialize1__NtB8_5InnerBX_11deserializeNtB3_9___VisitorNtBZ_7Visitor20visit_newtype_structpEBg_
FNDA:0,_RNvXs0_NtCs2gD7la8YEGu_3fvm12system_actorNtB5_5StateNtNtCslBoGNiFC398_4core7default7Default7defaultB7_
FNDA:0,_RINvXs2_NtCs2gD7la8YEGu_3fvm12system_actorNtB6_5StateNtNtCsj3WkLEH4Ge0_5serde3ser9Serialize9serializepEB8_
FNDA:0,_RINvXNvNvXs2_NtCs2gD7la8YEGu_3fvm12system_actorNtBb_5StateNtNtCsj3WkLEH4Ge0_5serde3ser9Serialize9serialize1__NtB5_5InnerBU_9serializepEBd_
FNDA:0,_RINvMs_NtCs2gD7la8YEGu_3fvm12system_actorNtB5_5State4loadINtNtNtB7_10blockstore8buffered18BufferedBlockstoreNtNtCslbkBntY5hAO_19fvm_ipld_blockstore6memory16MemoryBlockstoreEEB7_
FNDA:0,_RINvXs1_NtCs2gD7la8YEGu_3fvm12system_actorNtB6_5StateNtNtCsj3WkLEH4Ge0_5serde2de11Deserialize11deserializeQINtNtCs7jq4FGjB44s_18serde_ipld_dagcbor2de12DeserializerNtNtNtCshVKh6t4RGJQ_7cbor4ii4core5utils11SliceReaderEEB8_
FNDA:0,_RINvXNvXNvNvXs1_NtCs2gD7la8YEGu_3fvm12system_actorNtBe_5StateNtNtCsj3WkLEH4Ge0_5serde2de11Deserialize11deserialize1__NtB8_5InnerBX_11deserializeNtB3_9___VisitorNtBZ_7Visitor9visit_seqINtNtCs7jq4FGjB44s_18serde_ipld_dagcbor2de8AccessorNtNtNtCshVKh6t4RGJQ_7cbor4ii4core5utils11SliceReaderEEBg_
FNDA:0,_RINvXNvNvXs1_NtCs2gD7la8YEGu_3fvm12system_actorNtBb_5StateNtNtCsj3WkLEH4Ge0_5serde2de11Deserialize11deserialize1__NtB5_5InnerBU_11deserializeINtCs66xhiZNt6H5_11serde_tuple12DeserializerQINtNtCs7jq4FGjB44s_18serde_ipld_dagcbor2de12DeserializerNtNtNtCshVKh6t4RGJQ_7cbor4ii4core5utils11SliceReaderEEEBd_
FNDA:0,_RINvXs2_NtCs5xYBAi2tWzh_3fvm12system_actorNtB6_5StateNtNtCsj3WkLEH4Ge0_5serde3ser9Serialize9serializepEB8_
FNDA:0,_RINvMs_NtCs5xYBAi2tWzh_3fvm12system_actorNtB5_5State4loadpEB7_
FNDA:0,_RNvXs0_NtCs5xYBAi2tWzh_3fvm12system_actorNtB5_5StateNtNtCslBoGNiFC398_4core7default7Default7defaultB7_
FNDA:0,_RINvXNvXNvNvXs1_NtCs5xYBAi2tWzh_3fvm12system_actorNtBe_5StateNtNtCsj3WkLEH4Ge0_5serde2de11Deserialize11deserialize1__NtB8_5InnerBX_11deserializeNtB3_9___VisitorNtBZ_7Visitor20visit_newtype_structpEBg_
FNDA:0,_RINvXNvNvXs2_NtCs5xYBAi2tWzh_3fvm12system_actorNtBb_5StateNtNtCsj3WkLEH4Ge0_5serde3ser9Serialize9serialize1__NtB5_5InnerBU_9serializepEBd_
FNDA:0,_RINvXNvXNvNvXs1_NtCs5xYBAi2tWzh_3fvm12system_actorNtBe_5StateNtNtCsj3WkLEH4Ge0_5serde2de11Deserialize11deserialize1__NtB8_5InnerBX_11deserializeNtB3_9___VisitorNtBZ_7Visitor9visit_seqpEBg_
FNDA:0,_RINvXs1_NtCs5xYBAi2tWzh_3fvm12system_actorNtB6_5StateNtNtCsj3WkLEH4Ge0_5serde2de11Deserialize11deserializepEB8_
FNDA:0,_RINvXNvNvXs1_NtCs5xYBAi2tWzh_3fvm12system_actorNtBb_5StateNtNtCsj3WkLEH4Ge0_5serde2de11Deserialize11deserialize1__NtB5_5InnerBU_11deserializepEBd_
FNDA:0,_RNvXNvXNvNvXs1_NtCs5xYBAi2tWzh_3fvm12system_actorNtBd_5StateNtNtCsj3WkLEH4Ge0_5serde2de11Deserialize11deserialize1__NtB7_5InnerBW_11deserializeNtB2_9___VisitorNtBY_7Visitor9expecting
FNF:4
FNH:0
DA:13,0
DA:21,0
DA:22,0
DA:23,0
DA:24,0
DA:25,0
DA:26,0
DA:27,0
DA:28,0
DA:30,0
DA:31,0
DA:32,0
DA:33,0
DA:34,0
DA:35,0
DA:37,0
DA:38,0
BRF:0
BRH:0
LF:19
LH:0
end_of_record
SF:/home/mriise/Projects/ref-fvm/fvm/src/trace/mod.rs
FN:12,_RNvXs_NtCs2gD7la8YEGu_3fvm5traceNtB4_14ExecutionEventNtNtCslBoGNiFC398_4core3fmt5Debug3fmt
FN:12,_RNvXNtCs2gD7la8YEGu_3fvm5traceNtB2_14ExecutionEventNtNtCslBoGNiFC398_4core5clone5Clone5cloneB4_
FN:12,_RNvXNtCs5xYBAi2tWzh_3fvm5traceNtB2_14ExecutionEventNtNtCslBoGNiFC398_4core5clone5Clone5cloneB4_
FN:12,_RNvXs_NtCs5xYBAi2tWzh_3fvm5traceNtB4_14ExecutionEventNtNtCslBoGNiFC398_4core3fmt5Debug3fmt
FNDA:0,_RNvXs_NtCs2gD7la8YEGu_3fvm5traceNtB4_14ExecutionEventNtNtCslBoGNiFC398_4core3fmt5Debug3fmt
FNDA:0,_RNvXNtCs2gD7la8YEGu_3fvm5traceNtB2_14ExecutionEventNtNtCslBoGNiFC398_4core5clone5Clone5cloneB4_
FNDA:0,_RNvXNtCs5xYBAi2tWzh_3fvm5traceNtB2_14ExecutionEventNtNtCslBoGNiFC398_4core5clone5Clone5cloneB4_
FNDA:0,_RNvXs_NtCs5xYBAi2tWzh_3fvm5traceNtB4_14ExecutionEventNtNtCslBoGNiFC398_4core3fmt5Debug3fmt
FNF:2
FNH:0
DA:12,0
BRF:0
BRH:0
LF:2
LH:0
end_of_record
SF:/home/mriise/Projects/ref-fvm/ipld/amt/src/amt.rs
FN:263,_RNvMs_NtCskFmwyrQRmFP_12fvm_ipld_amt3amtINtB4_3AmtNtNtCsaV0kQbjOix3_17fvm_ipld_encoding5bytes7BytesDeRINtNtCslbkBntY5hAO_19fvm_ipld_blockstore8tracking18TrackingBlockstoreRNtNtB1H_6memory16MemoryBlockstoreEE5flushCs85eSTLP80nv_9amt_tests
FN:303,_RINvMs_NtCskFmwyrQRmFP_12fvm_ipld_amt3amtINtB5_3AmtNtNtCsaV0kQbjOix3_17fvm_ipld_encoding5bytes7BytesDeRINtNtCslbkBntY5hAO_19fvm_ipld_blockstore8tracking18TrackingBlockstoreRNtNtB1I_6memory16MemoryBlockstoreEE14for_each_whileNCINvB2_8for_eachNCNvCs85eSTLP80nv_9amt_testss_8for_eachs0_0E0EB3V_
FN:175,_RNvMs_NtCskFmwyrQRmFP_12fvm_ipld_amt3amtINtB4_3AmtNtNtCsc0YPw4IdecV_5alloc6string6StringRINtNtCslbkBntY5hAO_19fvm_ipld_blockstore8tracking18TrackingBlockstoreRNtNtB1u_6memory16MemoryBlockstoreEE6deleteCs85eSTLP80nv_9amt_tests
FN:327,_RNCINvMs_NtCskFmwyrQRmFP_12fvm_ipld_amt3amtINtB7_3AmtNtNtCsaV0kQbjOix3_17fvm_ipld_encoding5bytes7BytesDeRINtNtCslbkBntY5hAO_19fvm_ipld_blockstore8tracking18TrackingBlockstoreRNtNtB1K_6memory16MemoryBlockstoreEE12for_each_mutNCNvCs85eSTLP80nv_9amt_testss_15for_each_mutate0E0B3E_
FN:334,_RINvMs_NtCskFmwyrQRmFP_12fvm_ipld_amt3amtINtB5_3AmtNtNtCsaV0kQbjOix3_17fvm_ipld_encoding5bytes7BytesDeRINtNtCslbkBntY5hAO_19fvm_ipld_blockstore8tracking18TrackingBlockstoreRNtNtB1I_6memory16MemoryBlockstoreEE18for_each_while_mutNCINvB2_12for_each_mutNCNvCs85eSTLP80nv_9amt_testss_15for_each_mutate0E0EB44_
FN:70,_RNvMs_NtCskFmwyrQRmFP_12fvm_ipld_amt3amtINtB4_3AmtNtNtCsc0YPw4IdecV_5alloc6string6StringRINtNtCslbkBntY5hAO_19fvm_ipld_blockstore8tracking18TrackingBlockstoreRNtNtB1u_6memory16MemoryBlockstoreEE9bit_widthCs85eSTLP80nv_9amt_tests
FN:303,_RINvMs_NtCskFmwyrQRmFP_12fvm_ipld_amt3amtINtB5_3AmtNtNtCsaV0kQbjOix3_17fvm_ipld_encoding5bytes7BytesDeRINtNtCslbkBntY5hAO_19fvm_ipld_blockstore8tracking18TrackingBlockstoreRNtNtB1I_6memory16MemoryBlockstoreEE14for_each_whileNCINvB2_8for_eachNCNvCs85eSTLP80nv_9amt_testss_8for_eachs_0E0EB3V_
FN:90,_RNvMs_NtCskFmwyrQRmFP_12fvm_ipld_amt3amtINtB4_3AmtNtNtCsaV0kQbjOix3_17fvm_ipld_encoding5bytes7BytesDeRINtNtCslbkBntY5hAO_19fvm_ipld_blockstore8tracking18TrackingBlockstoreRNtNtB1H_6memory16MemoryBlockstoreEE6heightCs85eSTLP80nv_9amt_tests
FN:321,_RINvMs_NtCskFmwyrQRmFP_12fvm_ipld_amt3amtINtB5_3AmtNtNtCsaV0kQbjOix3_17fvm_ipld_encoding5bytes7BytesDeRINtNtCslbkBntY5hAO_19fvm_ipld_blockstore8tracking18TrackingBlockstoreRNtNtB1I_6memory16MemoryBlockstoreEE12for_each_mutNCNvCs85eSTLP80nv_9amt_testss_15for_each_mutate0EB3C_
FN:296,_RNCINvMs_NtCskFmwyrQRmFP_12fvm_ipld_amt3amtINtB7_3AmtNtNtCsaV0kQbjOix3_17fvm_ipld_encoding5bytes7BytesDeRINtNtCslbkBntY5hAO_19fvm_ipld_blockstore8tracking18TrackingBlockstoreRNtNtB1K_6memory16MemoryBlockstoreEE8for_eachNCNvCs85eSTLP80nv_9amt_testss_8for_eachs0_0E0B3z_
FN:220,_RNCNvMs_NtCskFmwyrQRmFP_12fvm_ipld_amt3amtINtB6_3AmtNtNtCsc0YPw4IdecV_5alloc6string6StringRINtNtCslbkBntY5hAO_19fvm_ipld_blockstore8tracking18TrackingBlockstoreRNtNtB1w_6memory16MemoryBlockstoreEE6delete0Cs85eSTLP80nv_9amt_tests
FN:124,_RNvMs_NtCskFmwyrQRmFP_12fvm_ipld_amt3amtINtB4_3AmtNtNtCsaV0kQbjOix3_17fvm_ipld_encoding5bytes7BytesDeRINtNtCslbkBntY5hAO_19fvm_ipld_blockstore8tracking18TrackingBlockstoreRNtNtB1H_6memory16MemoryBlockstoreEE3setCs85eSTLP80nv_9amt_tests
FN:75,_RNvMs_NtCskFmwyrQRmFP_12fvm_ipld_amt3amtINtB4_3AmtNtNtCsaV0kQbjOix3_17fvm_ipld_encoding5bytes7BytesDeRINtNtCslbkBntY5hAO_19fvm_ipld_blockstore8tracking18TrackingBlockstoreRNtNtB1H_6memory16MemoryBlockstoreEE4loadCs85eSTLP80nv_9amt_tests
FN:291,_RINvMs_NtCskFmwyrQRmFP_12fvm_ipld_amt3amtINtB5_3AmtNtNtCsaV0kQbjOix3_17fvm_ipld_encoding5bytes7BytesDeRINtNtCslbkBntY5hAO_19fvm_ipld_blockstore8tracking18TrackingBlockstoreRNtNtB1I_6memory16MemoryBlockstoreEE8for_eachNCNvCs85eSTLP80nv_9amt_testss_8for_eachs_0EB3x_
FN:316,_RNCINvMs_NtCskFmwyrQRmFP_12fvm_ipld_amt3amtINtB7_3AmtNtNtCsaV0kQbjOix3_17fvm_ipld_encoding5bytes7BytesDeRINtNtCslbkBntY5hAO_19fvm_ipld_blockstore8tracking18TrackingBlockstoreRNtNtB1K_6memory16MemoryBlockstoreEE14for_each_whileNCINvB4_8for_eachNCNvCs85eSTLP80nv_9amt_testss_8for_eachs_0E0E0B3X_
FN:296,_RNCINvMs_NtCskFmwyrQRmFP_12fvm_ipld_amt3amtINtB7_3AmtNtNtCsaV0kQbjOix3_17fvm_ipld_encoding5bytes7BytesDeRINtNtCslbkBntY5hAO_19fvm_ipld_blockstore8tracking18TrackingBlockstoreRNtNtB1K_6memory16MemoryBlockstoreEE8for_eachNCNvCs85eSTLP80nv_9amt_testss_8for_eachs_0E0B3z_
FN:58,_RNvMs_NtCskFmwyrQRmFP_12fvm_ipld_amt3amtINtB4_3AmtNtNtCsc0YPw4IdecV_5alloc6string6StringRINtNtCslbkBntY5hAO_19fvm_ipld_blockstore8tracking18TrackingBlockstoreRNtNtB1u_6memory16MemoryBlockstoreEE3newCs85eSTLP80nv_9amt_tests
FN:352,_RNCINvMs_NtCskFmwyrQRmFP_12fvm_ipld_amt3amtINtB7_3AmtNtNtCsaV0kQbjOix3_17fvm_ipld_encoding5bytes7BytesDeRINtNtCslbkBntY5hAO_19fvm_ipld_blockstore8tracking18TrackingBlockstoreRNtNtB1K_6memory16MemoryBlockstoreEE18for_each_while_mutNCINvB4_12for_each_mutNCNvCs85eSTLP80nv_9amt_testss_15for_each_mutate0E0E0B46_
FN:175,_RNvMs_NtCskFmwyrQRmFP_12fvm_ipld_amt3amtINtB4_3AmtNtNtCsaV0kQbjOix3_17fvm_ipld_encoding5bytes7BytesDeRINtNtCslbkBntY5hAO_19fvm_ipld_blockstore8tracking18TrackingBlockstoreRNtNtB1H_6memory16MemoryBlockstoreEE6deleteCs85eSTLP80nv_9amt_tests
FN:63,_RNvMs_NtCskFmwyrQRmFP_12fvm_ipld_amt3amtINtB4_3AmtNtNtCsc0YPw4IdecV_5alloc6string6StringRINtNtCslbkBntY5hAO_19fvm_ipld_blockstore8tracking18TrackingBlockstoreRNtNtB1u_6memory16MemoryBlockstoreEE18new_with_bit_widthCs85eSTLP80nv_9amt_tests
FN:95,_RNvMs_NtCskFmwyrQRmFP_12fvm_ipld_amt3amtINtB4_3AmtNtNtCsc0YPw4IdecV_5alloc6string6StringRINtNtCslbkBntY5hAO_19fvm_ipld_blockstore8tracking18TrackingBlockstoreRNtNtB1u_6memory16MemoryBlockstoreEE5countCs85eSTLP80nv_9amt_tests
FN:70,_RNvMs_NtCskFmwyrQRmFP_12fvm_ipld_amt3amtINtB4_3AmtNtNtCsaV0kQbjOix3_17fvm_ipld_encoding5bytes7BytesDeRINtNtCslbkBntY5hAO_19fvm_ipld_blockstore8tracking18TrackingBlockstoreRNtNtB1H_6memory16MemoryBlockstoreEE9bit_widthCs85eSTLP80nv_9amt_tests
FN:303,_RINvMs_NtCskFmwyrQRmFP_12fvm_ipld_amt3amtINtB5_3AmtNtNtCsaV0kQbjOix3_17fvm_ipld_encoding5bytes7BytesDeRINtNtCslbkBntY5hAO_19fvm_ipld_blockstore8tracking18TrackingBlockstoreRNtNtB1I_6memory16MemoryBlockstoreEE14for_each_whileNCINvB2_8for_eachNCNvCs85eSTLP80nv_9amt_testss_8for_each0E0EB3V_
FN:109,_RNvMs_NtCskFmwyrQRmFP_12fvm_ipld_amt3amtINtB4_3AmtNtNtCsaV0kQbjOix3_17fvm_ipld_encoding5bytes7BytesDeRINtNtCslbkBntY5hAO_19fvm_ipld_blockstore8tracking18TrackingBlockstoreRNtNtB1H_6memory16MemoryBlockstoreEE3getCs85eSTLP80nv_9amt_tests
FN:124,_RNvMs_NtCskFmwyrQRmFP_12fvm_ipld_amt3amtINtB4_3AmtNtNtCsc0YPw4IdecV_5alloc6string6StringRINtNtCslbkBntY5hAO_19fvm_ipld_blockstore8tracking18TrackingBlockstoreRNtNtB1u_6memory16MemoryBlockstoreEE3setCs85eSTLP80nv_9amt_tests
FN:316,_RNCINvMs_NtCskFmwyrQRmFP_12fvm_ipld_amt3amtINtB7_3AmtNtNtCsaV0kQbjOix3_17fvm_ipld_encoding5bytes7BytesDeRINtNtCslbkBntY5hAO_19fvm_ipld_blockstore8tracking18TrackingBlockstoreRNtNtB1K_6memory16MemoryBlockstoreEE14for_each_whileNCINvB4_8for_eachNCNvCs85eSTLP80nv_9amt_testss_8for_each0E0E0B3X_
FN:316,_RNCINvMs_NtCskFmwyrQRmFP_12fvm_ipld_amt3amtINtB7_3AmtNtNtCsaV0kQbjOix3_17fvm_ipld_encoding5bytes7BytesDeRINtNtCslbkBntY5hAO_19fvm_ipld_blockstore8tracking18TrackingBlockstoreRNtNtB1K_6memory16MemoryBlockstoreEE14for_each_whileNCINvB4_8for_eachNCNvCs85eSTLP80nv_9amt_testss_8for_eachs0_0E0E0B3X_
FN:296,_RNCINvMs_NtCskFmwyrQRmFP_12fvm_ipld_amt3amtINtB7_3AmtNtNtCsaV0kQbjOix3_17fvm_ipld_encoding5bytes7BytesDeRINtNtCslbkBntY5hAO_19fvm_ipld_blockstore8tracking18TrackingBlockstoreRNtNtB1K_6memory16MemoryBlockstoreEE8for_eachNCNvCs85eSTLP80nv_9amt_testss_8for_each0E0B3z_
FN:90,_RNvMs_NtCskFmwyrQRmFP_12fvm_ipld_amt3amtINtB4_3AmtNtNtCsc0YPw4IdecV_5alloc6string6StringRINtNtCslbkBntY5hAO_19fvm_ipld_blockstore8tracking18TrackingBlockstoreRNtNtB1u_6memory16MemoryBlockstoreEE6heightCs85eSTLP80nv_9amt_tests
FN:220,_RNCNvMs_NtCskFmwyrQRmFP_12fvm_ipld_amt3amtINtB6_3AmtNtNtCsaV0kQbjOix3_17fvm_ipld_encoding5bytes7BytesDeRINtNtCslbkBntY5hAO_19fvm_ipld_blockstore8tracking18TrackingBlockstoreRNtNtB1J_6memory16MemoryBlockstoreEE6delete0Cs85eSTLP80nv_9amt_tests
FN:63,_RNvMs_NtCskFmwyrQRmFP_12fvm_ipld_amt3amtINtB4_3AmtNtNtCsaV0kQbjOix3_17fvm_ipld_encoding5bytes7BytesDeRINtNtCslbkBntY5hAO_19fvm_ipld_blockstore8tracking18TrackingBlockstoreRNtNtB1H_6memory16MemoryBlockstoreEE18new_with_bit_widthCs85eSTLP80nv_9amt_tests
FN:95,_RNvMs_NtCskFmwyrQRmFP_12fvm_ipld_amt3amtINtB4_3AmtNtNtCsaV0kQbjOix3_17fvm_ipld_encoding5bytes7BytesDeRINtNtCslbkBntY5hAO_19fvm_ipld_blockstore8tracking18TrackingBlockstoreRNtNtB1H_6memory16MemoryBlockstoreEE5countCs85eSTLP80nv_9amt_tests
FN:291,_RINvMs_NtCskFmwyrQRmFP_12fvm_ipld_amt3amtINtB5_3AmtNtNtCsaV0kQbjOix3_17fvm_ipld_encoding5bytes7BytesDeRINtNtCslbkBntY5hAO_19fvm_ipld_blockstore8tracking18TrackingBlockstoreRNtNtB1I_6memory16MemoryBlockstoreEE8for_eachNCNvCs85eSTLP80nv_9amt_testss_8for_each0EB3x_
FN:291,_RINvMs_NtCskFmwyrQRmFP_12fvm_ipld_amt3amtINtB5_3AmtNtNtCsaV0kQbjOix3_17fvm_ipld_encoding5bytes7BytesDeRINtNtCslbkBntY5hAO_19fvm_ipld_blockstore8tracking18TrackingBlockstoreRNtNtB1I_6memory16MemoryBlockstoreEE8for_eachNCNvCs85eSTLP80nv_9amt_testss_8for_eachs0_0EB3x_
FN:109,_RNvMs_NtCskFmwyrQRmFP_12fvm_ipld_amt3amtINtB4_3AmtNtNtCsc0YPw4IdecV_5alloc6string6StringRINtNtCslbkBntY5hAO_19fvm_ipld_blockstore8tracking18TrackingBlockstoreRNtNtB1u_6memory16MemoryBlockstoreEE3getCs85eSTLP80nv_9amt_tests
FN:58,_RNvMs_NtCskFmwyrQRmFP_12fvm_ipld_amt3amtINtB4_3AmtNtNtCsaV0kQbjOix3_17fvm_ipld_encoding5bytes7BytesDeRINtNtCslbkBntY5hAO_19fvm_ipld_blockstore8tracking18TrackingBlockstoreRNtNtB1H_6memory16MemoryBlockstoreEE3newCs85eSTLP80nv_9amt_tests
FN:79,_RNCNvMs_NtCskFmwyrQRmFP_12fvm_ipld_amt3amtINtB6_3AmtNtNtCsaV0kQbjOix3_17fvm_ipld_encoding5bytes7BytesDeRINtNtCslbkBntY5hAO_19fvm_ipld_blockstore8tracking18TrackingBlockstoreRNtNtB1J_6memory16MemoryBlockstoreEE4load0Cs85eSTLP80nv_9amt_tests
FN:242,_RINvMs_NtCskFmwyrQRmFP_12fvm_ipld_amt3amtINtB5_3AmtppE12batch_deletepEB7_
FN:124,_RNvMs_NtCskFmwyrQRmFP_12fvm_ipld_amt3amtINtB4_3AmtppE3setB6_
FN:263,_RNvMs_NtCskFmwyrQRmFP_12fvm_ipld_amt3amtINtB4_3AmtppE5flushB6_
FN:100,_RINvMs_NtCskFmwyrQRmFP_12fvm_ipld_amt3amtINtB5_3AmtppE13new_from_iterpEB7_
FN:291,_RINvMs_NtCskFmwyrQRmFP_12fvm_ipld_amt3amtINtB5_3AmtppE8for_eachpEB7_
FN:166,_RINvMs_NtCskFmwyrQRmFP_12fvm_ipld_amt3amtINtB5_3AmtppE9batch_setpEB7_
FN:220,_RNCNvMs_NtCskFmwyrQRmFP_12fvm_ipld_amt3amtINtB6_3AmtppE6delete0B8_
FN:303,_RINvMs_NtCskFmwyrQRmFP_12fvm_ipld_amt3amtINtB5_3AmtppE14for_each_whilepEB7_
FN:109,_RNvMs_NtCskFmwyrQRmFP_12fvm_ipld_amt3amtINtB4_3AmtppE3getB6_
FN:75,_RNvMs_NtCskFmwyrQRmFP_12fvm_ipld_amt3amtINtB4_3AmtppE4loadB6_
FN:70,_RNvMs_NtCskFmwyrQRmFP_12fvm_ipld_amt3amtINtB4_3AmtppE9bit_widthB6_
FN:40,_RNvXININtCskFmwyrQRmFP_12fvm_ipld_amt3amts0_0ppEINtB5_3AmtppENtNtCslBoGNiFC398_4core3fmt5Debug3fmtB7_
FN:47,_RNvXININtCskFmwyrQRmFP_12fvm_ipld_amt3amt0ppEINtB5_3AmtppENtNtCslBoGNiFC398_4core3cmp9PartialEq2eqB7_
FN:316,_RNCINvMs_NtCskFmwyrQRmFP_12fvm_ipld_amt3amtINtB7_3AmtppE14for_each_whilepE0B9_
FN:90,_RNvMs_NtCskFmwyrQRmFP_12fvm_ipld_amt3amtINtB4_3AmtppE6heightB6_
FN:63,_RNvMs_NtCskFmwyrQRmFP_12fvm_ipld_amt3amtINtB4_3AmtppE18new_with_bit_widthB6_
FN:334,_RINvMs_NtCskFmwyrQRmFP_12fvm_ipld_amt3amtINtB5_3AmtppE18for_each_while_mutpEB7_
FN:175,_RNvMs_NtCskFmwyrQRmFP_12fvm_ipld_amt3amtINtB4_3AmtppE6deleteB6_
FN:58,_RNvMs_NtCskFmwyrQRmFP_12fvm_ipld_amt3amtINtB4_3AmtppE3newB6_
FN:79,_RNCNvMs_NtCskFmwyrQRmFP_12fvm_ipld_amt3amtINtB6_3AmtppE4load0B8_
FN:352,_RNCINvMs_NtCskFmwyrQRmFP_12fvm_ipld_amt3amtINtB7_3AmtppE18for_each_while_mutpE0B9_
FN:95,_RNvMs_NtCskFmwyrQRmFP_12fvm_ipld_amt3amtINtB4_3AmtppE5countB6_
FN:296,_RNCINvMs_NtCskFmwyrQRmFP_12fvm_ipld_amt3amtINtB7_3AmtppE8for_eachpE0B9_
FN:321,_RINvMs_NtCskFmwyrQRmFP_12fvm_ipld_amt3amtINtB5_3AmtppE12for_each_mutpEB7_
FN:327,_RNCINvMs_NtCskFmwyrQRmFP_12fvm_ipld_amt3amtINtB7_3AmtppE12for_each_mutpE0B9_
FN:124,_RNvMs_NtCs3qq3JIeCcaM_12fvm_ipld_amt3amtINtB4_3AmtppE3setB6_
FN:79,_RNCNvMs_NtCs3qq3JIeCcaM_12fvm_ipld_amt3amtINtB6_3AmtppE4load0B8_
FN:220,_RNCNvMs_NtCs3qq3JIeCcaM_12fvm_ipld_amt3amtINtB6_3AmtppE6delete0B8_
FN:263,_RNvMs_NtCs3qq3JIeCcaM_12fvm_ipld_amt3amtINtB4_3AmtppE5flushB6_
FN:100,_RINvMs_NtCs3qq3JIeCcaM_12fvm_ipld_amt3amtINtB5_3AmtppE13new_from_iterpEB7_
FN:291,_RINvMs_NtCs3qq3JIeCcaM_12fvm_ipld_amt3amtINtB5_3AmtppE8for_eachpEB7_
FN:75,_RNvMs_NtCs3qq3JIeCcaM_12fvm_ipld_amt3amtINtB4_3AmtppE4loadB6_
FN:166,_RINvMs_NtCs3qq3JIeCcaM_12fvm_ipld_amt3amtINtB5_3AmtppE9batch_setpEB7_
FN:109,_RNvMs_NtCs3qq3JIeCcaM_12fvm_ipld_amt3amtINtB4_3AmtppE3getB6_
FN:303,_RINvMs_NtCs3qq3JIeCcaM_12fvm_ipld_amt3amtINtB5_3AmtppE14for_each_whilepEB7_
FN:70,_RNvMs_NtCs3qq3JIeCcaM_12fvm_ipld_amt3amtINtB4_3AmtppE9bit_widthB6_
FN:47,_RNvXININtCs3qq3JIeCcaM_12fvm_ipld_amt3amt0ppEINtB5_3AmtppENtNtCslBoGNiFC398_4core3cmp9PartialEq2eqB7_
FN:316,_RNCINvMs_NtCs3qq3JIeCcaM_12fvm_ipld_amt3amtINtB7_3AmtppE14for_each_whilepE0B9_
FN:90,_RNvMs_NtCs3qq3JIeCcaM_12fvm_ipld_amt3amtINtB4_3AmtppE6heightB6_
FN:63,_RNvMs_NtCs3qq3JIeCcaM_12fvm_ipld_amt3amtINtB4_3AmtppE18new_with_bit_widthB6_
FN:334,_RINvMs_NtCs3qq3JIeCcaM_12fvm_ipld_amt3amtINtB5_3AmtppE18for_each_while_mutpEB7_
FN:175,_RNvMs_NtCs3qq3JIeCcaM_12fvm_ipld_amt3amtINtB4_3AmtppE6deleteB6_
FN:40,_RNvXININtCs3qq3JIeCcaM_12fvm_ipld_amt3amts0_0ppEINtB5_3AmtppENtNtCslBoGNiFC398_4core3fmt5Debug3fmtB7_
FN:58,_RNvMs_NtCs3qq3JIeCcaM_12fvm_ipld_amt3amtINtB4_3AmtppE3newB6_
FN:95,_RNvMs_NtCs3qq3JIeCcaM_12fvm_ipld_amt3amtINtB4_3AmtppE5countB6_
FN:327,_RNCINvMs_NtCs3qq3JIeCcaM_12fvm_ipld_amt3amtINtB7_3AmtppE12for_each_mutpE0B9_
FN:352,_RNCINvMs_NtCs3qq3JIeCcaM_12fvm_ipld_amt3amtINtB7_3AmtppE18for_each_while_mutpE0B9_
FN:242,_RINvMs_NtCs3qq3JIeCcaM_12fvm_ipld_amt3amtINtB5_3AmtppE12batch_deletepEB7_
FN:321,_RINvMs_NtCs3qq3JIeCcaM_12fvm_ipld_amt3amtINtB5_3AmtppE12for_each_mutpEB7_
FN:296,_RNCINvMs_NtCs3qq3JIeCcaM_12fvm_ipld_amt3amtINtB7_3AmtppE8for_eachpE0B9_
FNDA:16,_RNvMs_NtCskFmwyrQRmFP_12fvm_ipld_amt3amtINtB4_3AmtNtNtCsaV0kQbjOix3_17fvm_ipld_encoding5bytes7BytesDeRINtNtCslbkBntY5hAO_19fvm_ipld_blockstore8tracking18TrackingBlockstoreRNtNtB1H_6memory16MemoryBlockstoreEE5flushCs85eSTLP80nv_9amt_tests
FNDA:1,_RINvMs_NtCskFmwyrQRmFP_12fvm_ipld_amt3amtINtB5_3AmtNtNtCsaV0kQbjOix3_17fvm_ipld_encoding5bytes7BytesDeRINtNtCslbkBntY5hAO_19fvm_ipld_blockstore8tracking18TrackingBlockstoreRNtNtB1I_6memory16MemoryBlockstoreEE14for_each_whileNCINvB2_8for_eachNCNvCs85eSTLP80nv_9amt_testss_8for_eachs0_0E0EB3V_
FNDA:2,_RNvMs_NtCskFmwyrQRmFP_12fvm_ipld_amt3amtINtB4_3AmtNtNtCsc0YPw4IdecV_5alloc6string6StringRINtNtCslbkBntY5hAO_19fvm_ipld_blockstore8tracking18TrackingBlockstoreRNtNtB1u_6memory16MemoryBlockstoreEE6deleteCs85eSTLP80nv_9amt_tests
FNDA:6,_RNCINvMs_NtCskFmwyrQRmFP_12fvm_ipld_amt3amtINtB7_3AmtNtNtCsaV0kQbjOix3_17fvm_ipld_encoding5bytes7BytesDeRINtNtCslbkBntY5hAO_19fvm_ipld_blockstore8tracking18TrackingBlockstoreRNtNtB1K_6memory16MemoryBlockstoreEE12for_each_mutNCNvCs85eSTLP80nv_9amt_testss_15for_each_mutate0E0B3E_
FNDA:1,_RINvMs_NtCskFmwyrQRmFP_12fvm_ipld_amt3amtINtB5_3AmtNtNtCsaV0kQbjOix3_17fvm_ipld_encoding5bytes7BytesDeRINtNtCslbkBntY5hAO_19fvm_ipld_blockstore8tracking18TrackingBlockstoreRNtNtB1I_6memory16MemoryBlockstoreEE18for_each_while_mutNCINvB2_12for_each_mutNCNvCs85eSTLP80nv_9amt_testss_15for_each_mutate0E0EB44_
FNDA:17,_RNvMs_NtCskFmwyrQRmFP_12fvm_ipld_amt3amtINtB4_3AmtNtNtCsc0YPw4IdecV_5alloc6string6StringRINtNtCslbkBntY5hAO_19fvm_ipld_blockstore8tracking18TrackingBlockstoreRNtNtB1u_6memory16MemoryBlockstoreEE9bit_widthCs85eSTLP80nv_9amt_tests
FNDA:1,_RINvMs_NtCskFmwyrQRmFP_12fvm_ipld_amt3amtINtB5_3AmtNtNtCsaV0kQbjOix3_17fvm_ipld_encoding5bytes7BytesDeRINtNtCslbkBntY5hAO_19fvm_ipld_blockstore8tracking18TrackingBlockstoreRNtNtB1I_6memory16MemoryBlockstoreEE14for_each_whileNCINvB2_8for_eachNCNvCs85eSTLP80nv_9amt_testss_8for_eachs_0E0EB3V_
FNDA:43418,_RNvMs_NtCskFmwyrQRmFP_12fvm_ipld_amt3amtINtB4_3AmtNtNtCsaV0kQbjOix3_17fvm_ipld_encoding5bytes7BytesDeRINtNtCslbkBntY5hAO_19fvm_ipld_blockstore8tracking18TrackingBlockstoreRNtNtB1H_6memory16MemoryBlockstoreEE6heightCs85eSTLP80nv_9amt_tests
FNDA:1,_RINvMs_NtCskFmwyrQRmFP_12fvm_ipld_amt3amtINtB5_3AmtNtNtCsaV0kQbjOix3_17fvm_ipld_encoding5bytes7BytesDeRINtNtCslbkBntY5hAO_19fvm_ipld_blockstore8tracking18TrackingBlockstoreRNtNtB1I_6memory16MemoryBlockstoreEE12for_each_mutNCNvCs85eSTLP80nv_9amt_testss_15for_each_mutate0EB3C_
FNDA:3333,_RNCINvMs_NtCskFmwyrQRmFP_12fvm_ipld_amt3amtINtB7_3AmtNtNtCsaV0kQbjOix3_17fvm_ipld_encoding5bytes7BytesDeRINtNtCslbkBntY5hAO_19fvm_ipld_blockstore8tracking18TrackingBlockstoreRNtNtB1K_6memory16MemoryBlockstoreEE8for_eachNCNvCs85eSTLP80nv_9amt_testss_8for_eachs0_0E0B3z_
FNDA:0,_RNCNvMs_NtCskFmwyrQRmFP_12fvm_ipld_amt3amtINtB6_3AmtNtNtCsc0YPw4IdecV_5alloc6string6StringRINtNtCslbkBntY5hAO_19fvm_ipld_blockstore8tracking18TrackingBlockstoreRNtNtB1w_6memory16MemoryBlockstoreEE6delete0Cs85eSTLP80nv_9amt_tests
FNDA:8419,_RNvMs_NtCskFmwyrQRmFP_12fvm_ipld_amt3amtINtB4_3AmtNtNtCsaV0kQbjOix3_17fvm_ipld_encoding5bytes7BytesDeRINtNtCslbkBntY5hAO_19fvm_ipld_blockstore8tracking18TrackingBlockstoreRNtNtB1H_6memory16MemoryBlockstoreEE3setCs85eSTLP80nv_9amt_tests
FNDA:8,_RNvMs_NtCskFmwyrQRmFP_12fvm_ipld_amt3amtINtB4_3AmtNtNtCsaV0kQbjOix3_17fvm_ipld_encoding5bytes7BytesDeRINtNtCslbkBntY5hAO_19fvm_ipld_blockstore8tracking18TrackingBlockstoreRNtNtB1H_6memory16MemoryBlockstoreEE4loadCs85eSTLP80nv_9amt_tests
FNDA:1,_RINvMs_NtCskFmwyrQRmFP_12fvm_ipld_amt3amtINtB5_3AmtNtNtCsaV0kQbjOix3_17fvm_ipld_encoding5bytes7BytesDeRINtNtCslbkBntY5hAO_19fvm_ipld_blockstore8tracking18TrackingBlockstoreRNtNtB1I_6memory16MemoryBlockstoreEE8for_eachNCNvCs85eSTLP80nv_9amt_testss_8for_eachs_0EB3x_
FNDA:1,_RNCINvMs_NtCskFmwyrQRmFP_12fvm_ipld_amt3amtINtB7_3AmtNtNtCsaV0kQbjOix3_17fvm_ipld_encoding5bytes7BytesDeRINtNtCslbkBntY5hAO_19fvm_ipld_blockstore8tracking18TrackingBlockstoreRNtNtB1K_6memory16MemoryBlockstoreEE14for_each_whileNCINvB4_8for_eachNCNvCs85eSTLP80nv_9amt_testss_8for_eachs_0E0E0B3X_
FNDA:3333,_RNCINvMs_NtCskFmwyrQRmFP_12fvm_ipld_amt3amtINtB7_3AmtNtNtCsaV0kQbjOix3_17fvm_ipld_encoding5bytes7BytesDeRINtNtCslbkBntY5hAO_19fvm_ipld_blockstore8tracking18TrackingBlockstoreRNtNtB1K_6memory16MemoryBlockstoreEE8for_eachNCNvCs85eSTLP80nv_9amt_testss_8for_eachs_0E0B3z_
FNDA:1,_RNvMs_NtCskFmwyrQRmFP_12fvm_ipld_amt3amtINtB4_3AmtNtNtCsc0YPw4IdecV_5alloc6string6StringRINtNtCslbkBntY5hAO_19fvm_ipld_blockstore8tracking18TrackingBlockstoreRNtNtB1u_6memory16MemoryBlockstoreEE3newCs85eSTLP80nv_9amt_tests
FNDA:1,_RNCINvMs_NtCskFmwyrQRmFP_12fvm_ipld_amt3amtINtB7_3AmtNtNtCsaV0kQbjOix3_17fvm_ipld_encoding5bytes7BytesDeRINtNtCslbkBntY5hAO_19fvm_ipld_blockstore8tracking18TrackingBlockstoreRNtNtB1K_6memory16MemoryBlockstoreEE18for_each_while_mutNCINvB4_12for_each_mutNCNvCs85eSTLP80nv_9amt_testss_15for_each_mutate0E0E0B46_
FNDA:8,_RNvMs_NtCskFmwyrQRmFP_12fvm_ipld_amt3amtINtB4_3AmtNtNtCsaV0kQbjOix3_17fvm_ipld_encoding5bytes7BytesDeRINtNtCslbkBntY5hAO_19fvm_ipld_blockstore8tracking18TrackingBlockstoreRNtNtB1H_6memory16MemoryBlockstoreEE6deleteCs85eSTLP80nv_9amt_tests
FNDA:1,_RNvMs_NtCskFmwyrQRmFP_12fvm_ipld_amt3amtINtB4_3AmtNtNtCsc0YPw4IdecV_5alloc6string6StringRINtNtCslbkBntY5hAO_19fvm_ipld_blockstore8tracking18TrackingBlockstoreRNtNtB1u_6memory16MemoryBlockstoreEE18new_with_bit_widthCs85eSTLP80nv_9amt_tests
FNDA:2,_RNvMs_NtCskFmwyrQRmFP_12fvm_ipld_amt3amtINtB4_3AmtNtNtCsc0YPw4IdecV_5alloc6string6StringRINtNtCslbkBntY5hAO_19fvm_ipld_blockstore8tracking18TrackingBlockstoreRNtNtB1u_6memory16MemoryBlockstoreEE5countCs85eSTLP80nv_9amt_tests
FNDA:43399,_RNvMs_NtCskFmwyrQRmFP_12fvm_ipld_amt3amtINtB4_3AmtNtNtCsaV0kQbjOix3_17fvm_ipld_encoding5bytes7BytesDeRINtNtCslbkBntY5hAO_19fvm_ipld_blockstore8tracking18TrackingBlockstoreRNtNtB1H_6memory16MemoryBlockstoreEE9bit_widthCs85eSTLP80nv_9amt_tests
FNDA:1,_RINvMs_NtCskFmwyrQRmFP_12fvm_ipld_amt3amtINtB5_3AmtNtNtCsaV0kQbjOix3_17fvm_ipld_encoding5bytes7BytesDeRINtNtCslbkBntY5hAO_19fvm_ipld_blockstore8tracking18TrackingBlockstoreRNtNtB1I_6memory16MemoryBlockstoreEE14for_each_whileNCINvB2_8for_eachNCNvCs85eSTLP80nv_9amt_testss_8for_each0E0EB3V_
FNDA:13539,_RNvMs_NtCskFmwyrQRmFP_12fvm_ipld_amt3amtINtB4_3AmtNtNtCsaV0kQbjOix3_17fvm_ipld_encoding5bytes7BytesDeRINtNtCslbkBntY5hAO_19fvm_ipld_blockstore8tracking18TrackingBlockstoreRNtNtB1H_6memory16MemoryBlockstoreEE3getCs85eSTLP80nv_9amt_tests
FNDA:2,_RNvMs_NtCskFmwyrQRmFP_12fvm_ipld_amt3amtINtB4_3AmtNtNtCsc0YPw4IdecV_5alloc6string6StringRINtNtCslbkBntY5hAO_19fvm_ipld_blockstore8tracking18TrackingBlockstoreRNtNtB1u_6memory16MemoryBlockstoreEE3setCs85eSTLP80nv_9amt_tests
FNDA:1,_RNCINvMs_NtCskFmwyrQRmFP_12fvm_ipld_amt3amtINtB7_3AmtNtNtCsaV0kQbjOix3_17fvm_ipld_encoding5bytes7BytesDeRINtNtCslbkBntY5hAO_19fvm_ipld_blockstore8tracking18TrackingBlockstoreRNtNtB1K_6memory16MemoryBlockstoreEE14for_each_whileNCINvB4_8for_eachNCNvCs85eSTLP80nv_9amt_testss_8for_each0E0E0B3X_
FNDA:1,_RNCINvMs_NtCskFmwyrQRmFP_12fvm_ipld_amt3amtINtB7_3AmtNtNtCsaV0kQbjOix3_17fvm_ipld_encoding5bytes7BytesDeRINtNtCslbkBntY5hAO_19fvm_ipld_blockstore8tracking18TrackingBlockstoreRNtNtB1K_6memory16MemoryBlockstoreEE14for_each_whileNCINvB4_8for_eachNCNvCs85eSTLP80nv_9amt_testss_8for_eachs0_0E0E0B3X_
FNDA:3333,_RNCINvMs_NtCskFmwyrQRmFP_12fvm_ipld_amt3amtINtB7_3AmtNtNtCsaV0kQbjOix3_17fvm_ipld_encoding5bytes7BytesDeRINtNtCslbkBntY5hAO_19fvm_ipld_blockstore8tracking18TrackingBlockstoreRNtNtB1K_6memory16MemoryBlockstoreEE8for_eachNCNvCs85eSTLP80nv_9amt_testss_8for_each0E0B3z_
FNDA:18,_RNvMs_NtCskFmwyrQRmFP_12fvm_ipld_amt3amtINtB4_3AmtNtNtCsc0YPw4IdecV_5alloc6string6StringRINtNtCslbkBntY5hAO_19fvm_ipld_blockstore8tracking18TrackingBlockstoreRNtNtB1u_6memory16MemoryBlockstoreEE6heightCs85eSTLP80nv_9amt_tests
FNDA:0,_RNCNvMs_NtCskFmwyrQRmFP_12fvm_ipld_amt3amtINtB6_3AmtNtNtCsaV0kQbjOix3_17fvm_ipld_encoding5bytes7BytesDeRINtNtCslbkBntY5hAO_19fvm_ipld_blockstore8tracking18TrackingBlockstoreRNtNtB1J_6memory16MemoryBlockstoreEE6delete0Cs85eSTLP80nv_9amt_tests
FNDA:10,_RNvMs_NtCskFmwyrQRmFP_12fvm_ipld_amt3amtINtB4_3AmtNtNtCsaV0kQbjOix3_17fvm_ipld_encoding5bytes7BytesDeRINtNtCslbkBntY5hAO_19fvm_ipld_blockstore8tracking18TrackingBlockstoreRNtNtB1H_6memory16MemoryBlockstoreEE18new_with_bit_widthCs85eSTLP80nv_9amt_tests
FNDA:15,_RNvMs_NtCskFmwyrQRmFP_12fvm_ipld_amt3amtINtB4_3AmtNtNtCsaV0kQbjOix3_17fvm_ipld_encoding5bytes7BytesDeRINtNtCslbkBntY5hAO_19fvm_ipld_blockstore8tracking18TrackingBlockstoreRNtNtB1H_6memory16MemoryBlockstoreEE5countCs85eSTLP80nv_9amt_tests
FNDA:1,_RINvMs_NtCskFmwyrQRmFP_12fvm_ipld_amt3amtINtB5_3AmtNtNtCsaV0kQbjOix3_17fvm_ipld_encoding5bytes7BytesDeRINtNtCslbkBntY5hAO_19fvm_ipld_blockstore8tracking18TrackingBlockstoreRNtNtB1I_6memory16MemoryBlockstoreEE8for_eachNCNvCs85eSTLP80nv_9amt_testss_8for_each0EB3x_
FNDA:1,_RINvMs_NtCskFmwyrQRmFP_12fvm_ipld_amt3amtINtB5_3AmtNtNtCsaV0kQbjOix3_17fvm_ipld_encoding5bytes7BytesDeRINtNtCslbkBntY5hAO_19fvm_ipld_blockstore8tracking18TrackingBlockstoreRNtNtB1I_6memory16MemoryBlockstoreEE8for_eachNCNvCs85eSTLP80nv_9amt_testss_8for_eachs0_0EB3x_
FNDA:4,_RNvMs_NtCskFmwyrQRmFP_12fvm_ipld_amt3amtINtB4_3AmtNtNtCsc0YPw4IdecV_5alloc6string6StringRINtNtCslbkBntY5hAO_19fvm_ipld_blockstore8tracking18TrackingBlockstoreRNtNtB1u_6memory16MemoryBlockstoreEE3getCs85eSTLP80nv_9amt_tests
FNDA:12,_RNvMs_NtCskFmwyrQRmFP_12fvm_ipld_amt3amtINtB4_3AmtNtNtCsaV0kQbjOix3_17fvm_ipld_encoding5bytes7BytesDeRINtNtCslbkBntY5hAO_19fvm_ipld_blockstore8tracking18TrackingBlockstoreRNtNtB1H_6memory16MemoryBlockstoreEE3newCs85eSTLP80nv_9amt_tests
FNDA:0,_RNCNvMs_NtCskFmwyrQRmFP_12fvm_ipld_amt3amtINtB6_3AmtNtNtCsaV0kQbjOix3_17fvm_ipld_encoding5bytes7BytesDeRINtNtCslbkBntY5hAO_19fvm_ipld_blockstore8tracking18TrackingBlockstoreRNtNtB1J_6memory16MemoryBlockstoreEE4load0Cs85eSTLP80nv_9amt_tests
FNDA:0,_RINvMs_NtCskFmwyrQRmFP_12fvm_ipld_amt3amtINtB5_3AmtppE12batch_deletepEB7_
FNDA:0,_RNvMs_NtCskFmwyrQRmFP_12fvm_ipld_amt3amtINtB4_3AmtppE3setB6_
FNDA:0,_RNvMs_NtCskFmwyrQRmFP_12fvm_ipld_amt3amtINtB4_3AmtppE5flushB6_
FNDA:0,_RINvMs_NtCskFmwyrQRmFP_12fvm_ipld_amt3amtINtB5_3AmtppE13new_from_iterpEB7_
FNDA:0,_RINvMs_NtCskFmwyrQRmFP_12fvm_ipld_amt3amtINtB5_3AmtppE8for_eachpEB7_
FNDA:0,_RINvMs_NtCskFmwyrQRmFP_12fvm_ipld_amt3amtINtB5_3AmtppE9batch_setpEB7_
FNDA:0,_RNCNvMs_NtCskFmwyrQRmFP_12fvm_ipld_amt3amtINtB6_3AmtppE6delete0B8_
FNDA:0,_RINvMs_NtCskFmwyrQRmFP_12fvm_ipld_amt3amtINtB5_3AmtppE14for_each_whilepEB7_
FNDA:0,_RNvMs_NtCskFmwyrQRmFP_12fvm_ipld_amt3amtINtB4_3AmtppE3getB6_
FNDA:0,_RNvMs_NtCskFmwyrQRmFP_12fvm_ipld_amt3amtINtB4_3AmtppE4loadB6_
FNDA:0,_RNvMs_NtCskFmwyrQRmFP_12fvm_ipld_amt3amtINtB4_3AmtppE9bit_widthB6_
FNDA:0,_RNvXININtCskFmwyrQRmFP_12fvm_ipld_amt3amts0_0ppEINtB5_3AmtppENtNtCslBoGNiFC398_4core3fmt5Debug3fmtB7_
FNDA:0,_RNvXININtCskFmwyrQRmFP_12fvm_ipld_amt3amt0ppEINtB5_3AmtppENtNtCslBoGNiFC398_4core3cmp9PartialEq2eqB7_
FNDA:0,_RNCINvMs_NtCskFmwyrQRmFP_12fvm_ipld_amt3amtINtB7_3AmtppE14for_each_whilepE0B9_
FNDA:0,_RNvMs_NtCskFmwyrQRmFP_12fvm_ipld_amt3amtINtB4_3AmtppE6heightB6_
FNDA:0,_RNvMs_NtCskFmwyrQRmFP_12fvm_ipld_amt3amtINtB4_3AmtppE18new_with_bit_widthB6_
FNDA:0,_RINvMs_NtCskFmwyrQRmFP_12fvm_ipld_amt3amtINtB5_3AmtppE18for_each_while_mutpEB7_
FNDA:0,_RNvMs_NtCskFmwyrQRmFP_12fvm_ipld_amt3amtINtB4_3AmtppE6deleteB6_
FNDA:0,_RNvMs_NtCskFmwyrQRmFP_12fvm_ipld_amt3amtINtB4_3AmtppE3newB6_
FNDA:0,_RNCNvMs_NtCskFmwyrQRmFP_12fvm_ipld_amt3amtINtB6_3AmtppE4load0B8_
FNDA:0,_RNCINvMs_NtCskFmwyrQRmFP_12fvm_ipld_amt3amtINtB7_3AmtppE18for_each_while_mutpE0B9_
FNDA:0,_RNvMs_NtCskFmwyrQRmFP_12fvm_ipld_amt3amtINtB4_3AmtppE5countB6_
FNDA:0,_RNCINvMs_NtCskFmwyrQRmFP_12fvm_ipld_amt3amtINtB7_3AmtppE8for_eachpE0B9_
FNDA:0,_RINvMs_NtCskFmwyrQRmFP_12fvm_ipld_amt3amtINtB5_3AmtppE12for_each_mutpEB7_
FNDA:0,_RNCINvMs_NtCskFmwyrQRmFP_12fvm_ipld_amt3amtINtB7_3AmtppE12for_each_mutpE0B9_
FNDA:0,_RNvMs_NtCs3qq3JIeCcaM_12fvm_ipld_amt3amtINtB4_3AmtppE3setB6_
FNDA:0,_RNCNvMs_NtCs3qq3JIeCcaM_12fvm_ipld_amt3amtINtB6_3AmtppE4load0B8_
FNDA:0,_RNCNvMs_NtCs3qq3JIeCcaM_12fvm_ipld_amt3amtINtB6_3AmtppE6delete0B8_
FNDA:0,_RNvMs_NtCs3qq3JIeCcaM_12fvm_ipld_amt3amtINtB4_3AmtppE5flushB6_
FNDA:0,_RINvMs_NtCs3qq3JIeCcaM_12fvm_ipld_amt3amtINtB5_3AmtppE13new_from_iterpEB7_
FNDA:0,_RINvMs_NtCs3qq3JIeCcaM_12fvm_ipld_amt3amtINtB5_3AmtppE8for_eachpEB7_
FNDA:0,_RNvMs_NtCs3qq3JIeCcaM_12fvm_ipld_amt3amtINtB4_3AmtppE4loadB6_
FNDA:0,_RINvMs_NtCs3qq3JIeCcaM_12fvm_ipld_amt3amtINtB5_3AmtppE9batch_setpEB7_
FNDA:0,_RNvMs_NtCs3qq3JIeCcaM_12fvm_ipld_amt3amtINtB4_3AmtppE3getB6_
FNDA:0,_RINvMs_NtCs3qq3JIeCcaM_12fvm_ipld_amt3amtINtB5_3AmtppE14for_each_whilepEB7_
FNDA:0,_RNvMs_NtCs3qq3JIeCcaM_12fvm_ipld_amt3amtINtB4_3AmtppE9bit_widthB6_
FNDA:0,_RNvXININtCs3qq3JIeCcaM_12fvm_ipld_amt3amt0ppEINtB5_3AmtppENtNtCslBoGNiFC398_4core3cmp9PartialEq2eqB7_
FNDA:0,_RNCINvMs_NtCs3qq3JIeCcaM_12fvm_ipld_amt3amtINtB7_3AmtppE14for_each_whilepE0B9_
FNDA:0,_RNvMs_NtCs3qq3JIeCcaM_12fvm_ipld_amt3amtINtB4_3AmtppE6heightB6_
FNDA:0,_RNvMs_NtCs3qq3JIeCcaM_12fvm_ipld_amt3amtINtB4_3AmtppE18new_with_bit_widthB6_
FNDA:0,_RINvMs_NtCs3qq3JIeCcaM_12fvm_ipld_amt3amtINtB5_3AmtppE18for_each_while_mutpEB7_
FNDA:0,_RNvMs_NtCs3qq3JIeCcaM_12fvm_ipld_amt3amtINtB4_3AmtppE6deleteB6_
FNDA:0,_RNvXININtCs3qq3JIeCcaM_12fvm_ipld_amt3amts0_0ppEINtB5_3AmtppENtNtCslBoGNiFC398_4core3fmt5Debug3fmtB7_
FNDA:0,_RNvMs_NtCs3qq3JIeCcaM_12fvm_ipld_amt3amtINtB4_3AmtppE3newB6_
FNDA:0,_RNvMs_NtCs3qq3JIeCcaM_12fvm_ipld_amt3amtINtB4_3AmtppE5countB6_
FNDA:0,_RNCINvMs_NtCs3qq3JIeCcaM_12fvm_ipld_amt3amtINtB7_3AmtppE12for_each_mutpE0B9_
FNDA:0,_RNCINvMs_NtCs3qq3JIeCcaM_12fvm_ipld_amt3amtINtB7_3AmtppE18for_each_while_mutpE0B9_
FNDA:0,_RINvMs_NtCs3qq3JIeCcaM_12fvm_ipld_amt3amtINtB5_3AmtppE12batch_deletepEB7_
FNDA:0,_RINvMs_NtCs3qq3JIeCcaM_12fvm_ipld_amt3amtINtB5_3AmtppE12for_each_mutpEB7_
FNDA:0,_RNCINvMs_NtCs3qq3JIeCcaM_12fvm_ipld_amt3amtINtB7_3AmtppE8for_eachpE0B9_
FNF:25
FNH:18
DA:40,0
DA:47,0
DA:48,0
DA:49,0
DA:58,13
DA:59,13
DA:60,13
DA:63,11
DA:64,11
DA:65,11
DA:66,11
DA:67,11
DA:68,11
DA:70,43416
DA:71,43416
DA:72,43416
DA:75,8
DA:77,8
DA:78,8
DA:79,8
DA:82,8
DA:83,0
DA:84,8
DA:85,8
DA:86,8
DA:87,8
DA:90,43436
DA:91,43436
DA:92,43436
DA:95,17
DA:96,17
DA:97,17
DA:100,0
DA:101,0
DA:102,0
DA:103,0
DA:105,0
DA:106,0
DA:109,13543
DA:110,13543
DA:111,0
DA:112,13543
DA:113,13543
DA:114,13543
DA:115,0
DA:116,13518
DA:117,13518
DA:118,13518
DA:119,13518
DA:120,13518
DA:121,13518
DA:124,8421
DA:125,8421
DA:126,1
DA:127,8420
DA:129,8466
DA:131,189
DA:132,18
DA:133,18
DA:134,18
DA:135,18
DA:136,18
DA:137,18
DA:138,18
DA:139,18
DA:140,18
DA:141,18
DA:142,28
DA:143,28
DA:144,28
DA:145,28
DA:146,28
DA:147,28
DA:149,46
DA:152,8277
DA:153,8277
DA:154,8277
DA:155,8277
DA:156,8277
DA:157,8430
DA:158,8430
DA:159,8430
DA:161,8430
DA:162,8431
DA:166,0
DA:167,0
DA:168,0
DA:171,0
DA:172,0
DA:175,10
DA:176,10
DA:177,0
DA:178,10
DA:179,10
DA:180,10
DA:182,0
DA:183,10
DA:186,10
DA:187,10
DA:188,10
DA:189,10
DA:191,10
DA:192,2
DA:193,8
DA:194,8
DA:195,8
DA:196,8
DA:197,8
DA:198,2
DA:199,2
DA:200,2
DA:201,2
DA:202,2
DA:203,2
DA:206,8
DA:207,2
DA:208,2
DA:209,1
DA:210,1
DA:212,1
DA:213,1
DA:214,1
DA:215,0
DA:218,1
DA:219,1
DA:220,1
DA:221,1
DA:224,0
DA:226,0
DA:229,2
DA:230,2
DA:234,8
DA:235,10
DA:242,0
DA:243,0
DA:244,0
DA:245,0
DA:246,0
DA:247,0
DA:248,0
DA:251,0
DA:252,0
DA:253,0
DA:254,0
DA:255,0
DA:256,0
DA:258,0
DA:259,0
DA:263,16
DA:264,16
DA:265,16
DA:291,3
DA:292,3
DA:293,3
DA:294,3
DA:295,3
DA:296,9999
DA:297,9999
DA:298,9999
DA:299,3
DA:303,3
DA:304,3
DA:305,3
DA:306,3
DA:307,3
DA:308,3
DA:309,3
DA:310,3
DA:311,3
DA:312,3
DA:313,3
DA:314,3
DA:315,3
DA:316,3
DA:317,3
DA:321,1
DA:322,1
DA:323,1
DA:324,1
DA:325,1
DA:326,1
DA:327,6
DA:328,6
DA:329,6
DA:330,1
DA:334,1
DA:335,1
DA:336,1
DA:337,1
DA:338,1
DA:339,1
DA:340,1
DA:341,1
DA:342,1
DA:343,1
DA:344,1
DA:345,1
DA:346,1
DA:347,1
DA:348,1
DA:349,1
DA:350,1
DA:351,1
DA:352,1
DA:353,1
DA:354,1
DA:355,1
DA:356,1
DA:357,1
DA:358,1
DA:359,1
DA:360,1
DA:361,1
DA:362,1
DA:363,1
DA:364,1
DA:365,1
DA:366,1
DA:367,1
DA:368,1
DA:369,1
DA:370,1
DA:371,1
DA:372,1
DA:373,1
DA:374,1
DA:375,1
DA:376,1
DA:377,1
DA:378,1
DA:379,1
DA:380,1
DA:381,1
DA:382,1
DA:383,1
DA:384,1
DA:385,1
DA:386,1
DA:387,1
DA:388,1
DA:389,1
DA:390,1
DA:391,1
BRF:0
BRH:0
LF:249
LH:208
end_of_record
SF:/home/mriise/Projects/ref-fvm/ipld/amt/src/error.rs
FN:12,_RNvXs5_NtCskFmwyrQRmFP_12fvm_ipld_amt5errorNtB5_5ErrorNtNtCslBoGNiFC398_4core3fmt7Display3fmt
FN:59,_RNvXs1_NtCskFmwyrQRmFP_12fvm_ipld_amt5errorNtB5_5ErrorINtNtCslBoGNiFC398_4core7convert4FromNtNtCsaV0kQbjOix3_17fvm_ipld_encoding6errors5ErrorE4from
FN:12,_RNvXs4_NtCskFmwyrQRmFP_12fvm_ipld_amt5errorNtB5_5ErrorNtNtCsduPDAHU5p59_3std5error5Error6source
FN:53,_RNvXs0_NtCskFmwyrQRmFP_12fvm_ipld_amt5errorNtB5_5ErrorINtNtCslBoGNiFC398_4core7convert4FromNtCs5jS7vBTw6wt_6anyhow5ErrorE4from
FN:65,_RNvXs2_NtCskFmwyrQRmFP_12fvm_ipld_amt5errorNtB5_5ErrorINtNtCslBoGNiFC398_4core7convert4FromINtNtCsc0YPw4IdecV_5alloc5boxed3BoxDNtNtCsduPDAHU5p59_3std5error5ErrorNtNtBV_6marker4SyncNtB2B_4SendEL_EE4from
FN:41,_RNvXNtCskFmwyrQRmFP_12fvm_ipld_amt5errorNtB2_5ErrorINtNtCslBoGNiFC398_4core7convert4FromNtNtCsc0YPw4IdecV_5alloc6string6StringE4from
FN:12,_RNvXs6_NtCskFmwyrQRmFP_12fvm_ipld_amt5errorNtB5_5ErrorINtNtCslBoGNiFC398_4core7convert4FromNtNtCs1EPKmBb5iMg_3cid5error5ErrorE4from
FN:12,_RNvXs3_NtCskFmwyrQRmFP_12fvm_ipld_amt5errorNtB5_5ErrorNtNtCslBoGNiFC398_4core3fmt5Debug3fmt
FN:47,_RNvXs_NtCskFmwyrQRmFP_12fvm_ipld_amt5errorNtB4_5ErrorINtNtCslBoGNiFC398_4core7convert4FromReE4from
FN:59,_RNvXs1_NtCs3qq3JIeCcaM_12fvm_ipld_amt5errorNtB5_5ErrorINtNtCslBoGNiFC398_4core7convert4FromNtNtCsaV0kQbjOix3_17fvm_ipld_encoding6errors5ErrorE4from
FN:12,_RNvXs6_NtCs3qq3JIeCcaM_12fvm_ipld_amt5errorNtB5_5ErrorINtNtCslBoGNiFC398_4core7convert4FromNtNtCs1EPKmBb5iMg_3cid5error5ErrorE4from
FN:65,_RNvXs2_NtCs3qq3JIeCcaM_12fvm_ipld_amt5errorNtB5_5ErrorINtNtCslBoGNiFC398_4core7convert4FromINtNtCsc0YPw4IdecV_5alloc5boxed3BoxDNtNtCsduPDAHU5p59_3std5error5ErrorNtNtBV_6marker4SyncNtB2B_4SendEL_EE4from
FN:12,_RNvXs4_NtCs3qq3JIeCcaM_12fvm_ipld_amt5errorNtB5_5ErrorNtNtCsduPDAHU5p59_3std5error5Error6source
FN:41,_RNvXNtCs3qq3JIeCcaM_12fvm_ipld_amt5errorNtB2_5ErrorINtNtCslBoGNiFC398_4core7convert4FromNtNtCsc0YPw4IdecV_5alloc6string6StringE4from
FN:47,_RNvXs_NtCs3qq3JIeCcaM_12fvm_ipld_amt5errorNtB4_5ErrorINtNtCslBoGNiFC398_4core7convert4FromReE4from
FN:53,_RNvXs0_NtCs3qq3JIeCcaM_12fvm_ipld_amt5errorNtB5_5ErrorINtNtCslBoGNiFC398_4core7convert4FromNtCs5jS7vBTw6wt_6anyhow5ErrorE4from
FN:12,_RNvXs3_NtCs3qq3JIeCcaM_12fvm_ipld_amt5errorNtB5_5ErrorNtNtCslBoGNiFC398_4core3fmt5Debug3fmt
FN:12,_RNvXs5_NtCs3qq3JIeCcaM_12fvm_ipld_amt5errorNtB5_5ErrorNtNtCslBoGNiFC398_4core3fmt7Display3fmt
FNDA:0,_RNvXs5_NtCskFmwyrQRmFP_12fvm_ipld_amt5errorNtB5_5ErrorNtNtCslBoGNiFC398_4core3fmt7Display3fmt
FNDA:0,_RNvXs1_NtCskFmwyrQRmFP_12fvm_ipld_amt5errorNtB5_5ErrorINtNtCslBoGNiFC398_4core7convert4FromNtNtCsaV0kQbjOix3_17fvm_ipld_encoding6errors5ErrorE4from
FNDA:0,_RNvXs4_NtCskFmwyrQRmFP_12fvm_ipld_amt5errorNtB5_5ErrorNtNtCsduPDAHU5p59_3std5error5Error6source
FNDA:0,_RNvXs0_NtCskFmwyrQRmFP_12fvm_ipld_amt5errorNtB5_5ErrorINtNtCslBoGNiFC398_4core7convert4FromNtCs5jS7vBTw6wt_6anyhow5ErrorE4from
FNDA:0,_RNvXs2_NtCskFmwyrQRmFP_12fvm_ipld_amt5errorNtB5_5ErrorINtNtCslBoGNiFC398_4core7convert4FromINtNtCsc0YPw4IdecV_5alloc5boxed3BoxDNtNtCsduPDAHU5p59_3std5error5ErrorNtNtBV_6marker4SyncNtB2B_4SendEL_EE4from
FNDA:0,_RNvXNtCskFmwyrQRmFP_12fvm_ipld_amt5errorNtB2_5ErrorINtNtCslBoGNiFC398_4core7convert4FromNtNtCsc0YPw4IdecV_5alloc6string6StringE4from
FNDA:0,_RNvXs6_NtCskFmwyrQRmFP_12fvm_ipld_amt5errorNtB5_5ErrorINtNtCslBoGNiFC398_4core7convert4FromNtNtCs1EPKmBb5iMg_3cid5error5ErrorE4from
FNDA:0,_RNvXs3_NtCskFmwyrQRmFP_12fvm_ipld_amt5errorNtB5_5ErrorNtNtCslBoGNiFC398_4core3fmt5Debug3fmt
FNDA:0,_RNvXs_NtCskFmwyrQRmFP_12fvm_ipld_amt5errorNtB4_5ErrorINtNtCslBoGNiFC398_4core7convert4FromReE4from
FNDA:0,_RNvXs1_NtCs3qq3JIeCcaM_12fvm_ipld_amt5errorNtB5_5ErrorINtNtCslBoGNiFC398_4core7convert4FromNtNtCsaV0kQbjOix3_17fvm_ipld_encoding6errors5ErrorE4from
FNDA:0,_RNvXs6_NtCs3qq3JIeCcaM_12fvm_ipld_amt5errorNtB5_5ErrorINtNtCslBoGNiFC398_4core7convert4FromNtNtCs1EPKmBb5iMg_3cid5error5ErrorE4from
FNDA:0,_RNvXs2_NtCs3qq3JIeCcaM_12fvm_ipld_amt5errorNtB5_5ErrorINtNtCslBoGNiFC398_4core7convert4FromINtNtCsc0YPw4IdecV_5alloc5boxed3BoxDNtNtCsduPDAHU5p59_3std5error5ErrorNtNtBV_6marker4SyncNtB2B_4SendEL_EE4from
FNDA:0,_RNvXs4_NtCs3qq3JIeCcaM_12fvm_ipld_amt5errorNtB5_5ErrorNtNtCsduPDAHU5p59_3std5error5Error6source
FNDA:0,_RNvXNtCs3qq3JIeCcaM_12fvm_ipld_amt5errorNtB2_5ErrorINtNtCslBoGNiFC398_4core7convert4FromNtNtCsc0YPw4IdecV_5alloc6string6StringE4from
FNDA:0,_RNvXs_NtCs3qq3JIeCcaM_12fvm_ipld_amt5errorNtB4_5ErrorINtNtCslBoGNiFC398_4core7convert4FromReE4from
FNDA:0,_RNvXs0_NtCs3qq3JIeCcaM_12fvm_ipld_amt5errorNtB5_5ErrorINtNtCslBoGNiFC398_4core7convert4FromNtCs5jS7vBTw6wt_6anyhow5ErrorE4from
FNDA:0,_RNvXs3_NtCs3qq3JIeCcaM_12fvm_ipld_amt5errorNtB5_5ErrorNtNtCslBoGNiFC398_4core3fmt5Debug3fmt
FNDA:0,_RNvXs5_NtCs3qq3JIeCcaM_12fvm_ipld_amt5errorNtB5_5ErrorNtNtCslBoGNiFC398_4core3fmt7Display3fmt
FNF:7
FNH:0
DA:12,0
DA:41,0
DA:42,0
DA:43,0
DA:47,0
DA:48,0
DA:49,0
DA:53,0
DA:54,0
DA:55,0
DA:59,0
DA:60,0
DA:61,0
DA:65,0
DA:66,0
DA:67,0
BRF:0
BRH:0
LF:17
LH:0
end_of_record
SF:/home/mriise/Projects/ref-fvm/ipld/amt/src/lib.rs
FN:37,_RNCINvCskFmwyrQRmFP_12fvm_ipld_amt14init_sized_vecINtNtB4_4node4LinkNtNtCsaV0kQbjOix3_17fvm_ipld_encoding5bytes7BytesDeEE0Cs85eSTLP80nv_9amt_tests
FN:36,_RINvCskFmwyrQRmFP_12fvm_ipld_amt14init_sized_vecNtNtCsc0YPw4IdecV_5alloc6string6StringECs85eSTLP80nv_9amt_tests
FN:37,_RNCINvCskFmwyrQRmFP_12fvm_ipld_amt14init_sized_vecNtNtCsaV0kQbjOix3_17fvm_ipld_encoding5bytes7BytesDeE0Cs85eSTLP80nv_9amt_tests
FN:37,_RNCINvCskFmwyrQRmFP_12fvm_ipld_amt14init_sized_vecNtNtCsc0YPw4IdecV_5alloc6string6StringE0Cs85eSTLP80nv_9amt_tests
FN:36,_RINvCskFmwyrQRmFP_12fvm_ipld_amt14init_sized_vecNtNtCsaV0kQbjOix3_17fvm_ipld_encoding5bytes7BytesDeECs85eSTLP80nv_9amt_tests
FN:36,_RINvCskFmwyrQRmFP_12fvm_ipld_amt14init_sized_vecINtNtB2_4node4LinkNtNtCsc0YPw4IdecV_5alloc6string6StringEECs85eSTLP80nv_9amt_tests
FN:37,_RNCINvCskFmwyrQRmFP_12fvm_ipld_amt14init_sized_vecINtNtB4_4node4LinkNtNtCsc0YPw4IdecV_5alloc6string6StringEE0Cs85eSTLP80nv_9amt_tests
FN:36,_RINvCskFmwyrQRmFP_12fvm_ipld_amt14init_sized_vecINtNtB2_4node4LinkNtNtCsaV0kQbjOix3_17fvm_ipld_encoding5bytes7BytesDeEECs85eSTLP80nv_9amt_tests
FN:37,_RNCINvCskFmwyrQRmFP_12fvm_ipld_amt14init_sized_vecpE0B4_
FN:36,_RINvCskFmwyrQRmFP_12fvm_ipld_amt14init_sized_vecpEB2_
FN:28,_RNvCskFmwyrQRmFP_12fvm_ipld_amt16nodes_for_height
FN:42,_RNvCskFmwyrQRmFP_12fvm_ipld_amt10bmap_bytes
FN:28,_RNvCs3qq3JIeCcaM_12fvm_ipld_amt16nodes_for_height
FN:36,_RINvCs3qq3JIeCcaM_12fvm_ipld_amt14init_sized_vecNtNtCsc0YPw4IdecV_5alloc6string6StringEB2_
FN:37,_RNCINvCs3qq3JIeCcaM_12fvm_ipld_amt14init_sized_vecNtNtCsc0YPw4IdecV_5alloc6string6StringE0B4_
FN:36,_RINvCs3qq3JIeCcaM_12fvm_ipld_amt14init_sized_vechEB2_
FN:36,_RINvCs3qq3JIeCcaM_12fvm_ipld_amt14init_sized_vecINtNtB2_4node4LinkhEEB2_
FN:42,_RNvCs3qq3JIeCcaM_12fvm_ipld_amt10bmap_bytes
FN:37,_RNCINvCs3qq3JIeCcaM_12fvm_ipld_amt14init_sized_vecINtNtB4_4node4LinkNtNtCsc0YPw4IdecV_5alloc6string6StringEE0B4_
FN:37,_RNCINvCs3qq3JIeCcaM_12fvm_ipld_amt14init_sized_vecINtNtB4_4node4LinkhEE0B4_
FN:1,_RNvCs3qq3JIeCcaM_12fvm_ipld_amt4main
FN:36,_RINvCs3qq3JIeCcaM_12fvm_ipld_amt14init_sized_vecINtNtB2_4node4LinkNtNtCsc0YPw4IdecV_5alloc6string6StringEEB2_
FN:37,_RNCINvCs3qq3JIeCcaM_12fvm_ipld_amt14init_sized_vechE0B4_
FNDA:4976,_RNCINvCskFmwyrQRmFP_12fvm_ipld_amt14init_sized_vecINtNtB4_4node4LinkNtNtCsaV0kQbjOix3_17fvm_ipld_encoding5bytes7BytesDeEE0Cs85eSTLP80nv_9amt_tests
FNDA:2,_RINvCskFmwyrQRmFP_12fvm_ipld_amt14init_sized_vecNtNtCsc0YPw4IdecV_5alloc6string6StringECs85eSTLP80nv_9amt_tests
FNDA:30345,_RNCINvCskFmwyrQRmFP_12fvm_ipld_amt14init_sized_vecNtNtCsaV0kQbjOix3_17fvm_ipld_encoding5bytes7BytesDeE0Cs85eSTLP80nv_9amt_tests
FNDA:16,_RNCINvCskFmwyrQRmFP_12fvm_ipld_amt14init_sized_vecNtNtCsc0YPw4IdecV_5alloc6string6StringE0Cs85eSTLP80nv_9amt_tests
FNDA:3795,_RINvCskFmwyrQRmFP_12fvm_ipld_amt14init_sized_vecNtNtCsaV0kQbjOix3_17fvm_ipld_encoding5bytes7BytesDeECs85eSTLP80nv_9amt_tests
FNDA:1,_RINvCskFmwyrQRmFP_12fvm_ipld_amt14init_sized_vecINtNtB2_4node4LinkNtNtCsc0YPw4IdecV_5alloc6string6StringEECs85eSTLP80nv_9amt_tests
FNDA:8,_RNCINvCskFmwyrQRmFP_12fvm_ipld_amt14init_sized_vecINtNtB4_4node4LinkNtNtCsc0YPw4IdecV_5alloc6string6StringEE0Cs85eSTLP80nv_9amt_tests
FNDA:623,_RINvCskFmwyrQRmFP_12fvm_ipld_amt14init_sized_vecINtNtB2_4node4LinkNtNtCsaV0kQbjOix3_17fvm_ipld_encoding5bytes7BytesDeEECs85eSTLP80nv_9amt_tests
FNDA:0,_RNCINvCskFmwyrQRmFP_12fvm_ipld_amt14init_sized_vecpE0B4_
FNDA:0,_RINvCskFmwyrQRmFP_12fvm_ipld_amt14init_sized_vecpEB2_
FNDA:156957,_RNvCskFmwyrQRmFP_12fvm_ipld_amt16nodes_for_height
FNDA:2172,_RNvCskFmwyrQRmFP_12fvm_ipld_amt10bmap_bytes
FNDA:0,_RNvCs3qq3JIeCcaM_12fvm_ipld_amt16nodes_for_height
FNDA:2,_RINvCs3qq3JIeCcaM_12fvm_ipld_amt14init_sized_vecNtNtCsc0YPw4IdecV_5alloc6string6StringEB2_
FNDA:2,_RNCINvCs3qq3JIeCcaM_12fvm_ipld_amt14init_sized_vecNtNtCsc0YPw4IdecV_5alloc6string6StringE0B4_
FNDA:1,_RINvCs3qq3JIeCcaM_12fvm_ipld_amt14init_sized_vechEB2_
FNDA:0,_RINvCs3qq3JIeCcaM_12fvm_ipld_amt14init_sized_vecINtNtB2_4node4LinkhEEB2_
FNDA:2,_RNvCs3qq3JIeCcaM_12fvm_ipld_amt10bmap_bytes
FNDA:0,_RNCINvCs3qq3JIeCcaM_12fvm_ipld_amt14init_sized_vecINtNtB4_4node4LinkNtNtCsc0YPw4IdecV_5alloc6string6StringEE0B4_
FNDA:0,_RNCINvCs3qq3JIeCcaM_12fvm_ipld_amt14init_sized_vecINtNtB4_4node4LinkhEE0B4_
FNDA:1,_RNvCs3qq3JIeCcaM_12fvm_ipld_amt4main
FNDA:0,_RINvCs3qq3JIeCcaM_12fvm_ipld_amt14init_sized_vecINtNtB2_4node4LinkNtNtCsc0YPw4IdecV_5alloc6string6StringEEB2_
FNDA:1,_RNCINvCs3qq3JIeCcaM_12fvm_ipld_amt14init_sized_vechE0B4_
FNF:5
FNH:5
DA:1,1
DA:28,156957
DA:29,156957
DA:30,156957
DA:31,2
DA:32,156955
DA:33,156955
DA:34,156957
DA:36,4424
DA:37,35348
DA:38,4424
DA:39,4424
DA:40,4424
DA:42,2174
DA:43,2174
DA:44,2174
DA:46,0
DA:48,2174
BRF:0
BRH:0
LF:19
LH:18
end_of_record
SF:/home/mriise/Projects/ref-fvm/ipld/amt/src/node.rs
FN:119,_RINvXNvXNvNtCskFmwyrQRmFP_12fvm_ipld_amt4nodes_1__INtB8_13CollapsedNodepENtNtCsj3WkLEH4Ge0_5serde2de11Deserialize11deserializeINtB3_9___VisitorNtNtCsc0YPw4IdecV_5alloc6string6StringENtB1b_7Visitor9visit_seqINtNtCs7jq4FGjB44s_18serde_ipld_dagcbor2de8AccessorNtNtNtCshVKh6t4RGJQ_7cbor4ii4core5utils11SliceReaderEECs85eSTLP80nv_9amt_tests
FN:457,_RNCNCINvMs4_NtCskFmwyrQRmFP_12fvm_ipld_amt4nodeINtBa_4NodeNtNtCsaV0kQbjOix3_17fvm_ipld_encoding5bytes7BytesDeE14for_each_whileRINtNtCslbkBntY5hAO_19fvm_ipld_blockstore8tracking18TrackingBlockstoreRNtNtB26_6memory16MemoryBlockstoreENCINvMs_NtBc_3amtINtB3P_3AmtBU_B20_E8for_eachNCNvCs85eSTLP80nv_9amt_testss_8for_eachs0_0E0E00B4u_
FN:347,_RINvMs4_NtCskFmwyrQRmFP_12fvm_ipld_amt4nodeINtB6_4NodeNtNtCsc0YPw4IdecV_5alloc6string6StringE6deleteRINtNtCslbkBntY5hAO_19fvm_ipld_blockstore8tracking18TrackingBlockstoreRNtNtB1G_6memory16MemoryBlockstoreEECs85eSTLP80nv_9amt_tests
FN:249,_RNCNCINvMs4_NtCskFmwyrQRmFP_12fvm_ipld_amt4nodeINtBa_4NodeNtNtCsc0YPw4IdecV_5alloc6string6StringE3getRINtNtCslbkBntY5hAO_19fvm_ipld_blockstore8tracking18TrackingBlockstoreRNtNtB1H_6memory16MemoryBlockstoreEEs0_00Cs85eSTLP80nv_9amt_tests
FN:216,_RNCNCNvMs4_NtCskFmwyrQRmFP_12fvm_ipld_amt4nodeINtB9_4NodeNtNtCsc0YPw4IdecV_5alloc6string6StringE12can_collapses_00Cs85eSTLP80nv_9amt_tests
FN:176,_RNvMs4_NtCskFmwyrQRmFP_12fvm_ipld_amt4nodeINtB5_4NodeNtNtCsc0YPw4IdecV_5alloc6string6StringE5emptyCs85eSTLP80nv_9amt_tests
FN:333,_RNvMs4_NtCskFmwyrQRmFP_12fvm_ipld_amt4nodeINtB5_4NodeNtNtCsaV0kQbjOix3_17fvm_ipld_encoding5bytes7BytesDeE8set_leafCs85eSTLP80nv_9amt_tests
FN:519,_RNCINvMs4_NtCskFmwyrQRmFP_12fvm_ipld_amt4nodeINtB8_4NodeNtNtCsaV0kQbjOix3_17fvm_ipld_encoding5bytes7BytesDeE18for_each_while_mutRINtNtCslbkBntY5hAO_19fvm_ipld_blockstore8tracking18TrackingBlockstoreRNtNtB28_6memory16MemoryBlockstoreENCINvMs_NtBa_3amtINtB3R_3AmtBS_B22_E12for_each_mutNCNvCs85eSTLP80nv_9amt_testss_15for_each_mutate0E0E0B4B_
FN:143,_RNCNvMs3_NtCskFmwyrQRmFP_12fvm_ipld_amt4nodeINtB7_13CollapsedNodeNtNtCsc0YPw4IdecV_5alloc6string6StringE6expand0Cs85eSTLP80nv_9amt_tests
FN:384,_RNCINvMs4_NtCskFmwyrQRmFP_12fvm_ipld_amt4nodeINtB8_4NodeNtNtCsc0YPw4IdecV_5alloc6string6StringE6deleteRINtNtCslbkBntY5hAO_19fvm_ipld_blockstore8tracking18TrackingBlockstoreRNtNtB1I_6memory16MemoryBlockstoreEE0Cs85eSTLP80nv_9amt_tests
FN:274,_RINvMs4_NtCskFmwyrQRmFP_12fvm_ipld_amt4nodeINtB6_4NodeNtNtCsaV0kQbjOix3_17fvm_ipld_encoding5bytes7BytesDeE3setRINtNtCslbkBntY5hAO_19fvm_ipld_blockstore8tracking18TrackingBlockstoreRNtNtB1Q_6memory16MemoryBlockstoreEECs85eSTLP80nv_9amt_tests
FN:216,_RNCNCNvMs4_NtCskFmwyrQRmFP_12fvm_ipld_amt4nodeINtB9_4NodeNtNtCsaV0kQbjOix3_17fvm_ipld_encoding5bytes7BytesDeE12can_collapses_00Cs85eSTLP80nv_9amt_tests
FN:386,_RNCNCINvMs4_NtCskFmwyrQRmFP_12fvm_ipld_amt4nodeINtBa_4NodeNtNtCsc0YPw4IdecV_5alloc6string6StringE6deleteRINtNtCslbkBntY5hAO_19fvm_ipld_blockstore8tracking18TrackingBlockstoreRNtNtB1K_6memory16MemoryBlockstoreEE00Cs85eSTLP80nv_9amt_tests
FN:224,_RNvMs4_NtCskFmwyrQRmFP_12fvm_ipld_amt4nodeINtB5_4NodeNtNtCsc0YPw4IdecV_5alloc6string6StringE8is_emptyCs85eSTLP80nv_9amt_tests
FN:209,_RNvMs4_NtCskFmwyrQRmFP_12fvm_ipld_amt4nodeINtB5_4NodeNtNtCsc0YPw4IdecV_5alloc6string6StringE12can_collapseCs85eSTLP80nv_9amt_tests
FN:232,_RINvMs4_NtCskFmwyrQRmFP_12fvm_ipld_amt4nodeINtB6_4NodeNtNtCsaV0kQbjOix3_17fvm_ipld_encoding5bytes7BytesDeE3getRINtNtCslbkBntY5hAO_19fvm_ipld_blockstore8tracking18TrackingBlockstoreRNtNtB1Q_6memory16MemoryBlockstoreEECs85eSTLP80nv_9amt_tests
FN:213,_RNCNvMs4_NtCskFmwyrQRmFP_12fvm_ipld_amt4nodeINtB7_4NodeNtNtCsc0YPw4IdecV_5alloc6string6StringE12can_collapse0Cs85eSTLP80nv_9amt_tests
FN:249,_RNCNCINvMs4_NtCskFmwyrQRmFP_12fvm_ipld_amt4nodeINtBa_4NodeNtNtCsaV0kQbjOix3_17fvm_ipld_encoding5bytes7BytesDeE3getRINtNtCslbkBntY5hAO_19fvm_ipld_blockstore8tracking18TrackingBlockstoreRNtNtB1U_6memory16MemoryBlockstoreEEs0_00Cs85eSTLP80nv_9amt_tests
FN:216,_RNCNvMs4_NtCskFmwyrQRmFP_12fvm_ipld_amt4nodeINtB7_4NodeNtNtCsc0YPw4IdecV_5alloc6string6StringE12can_collapses_0Cs85eSTLP80nv_9amt_tests
FN:455,_RNCINvMs4_NtCskFmwyrQRmFP_12fvm_ipld_amt4nodeINtB8_4NodeNtNtCsaV0kQbjOix3_17fvm_ipld_encoding5bytes7BytesDeE14for_each_whileRINtNtCslbkBntY5hAO_19fvm_ipld_blockstore8tracking18TrackingBlockstoreRNtNtB24_6memory16MemoryBlockstoreENCINvMs_NtBa_3amtINtB3N_3AmtBS_B1Y_E8for_eachNCNvCs85eSTLP80nv_9amt_testss_8for_eachs0_0E0E0B4s_
FN:119,_RNCINvXNvXNvNtCskFmwyrQRmFP_12fvm_ipld_amt4nodes_1__INtBa_13CollapsedNodepENtNtCsj3WkLEH4Ge0_5serde2de11Deserialize11deserializeINtB5_9___VisitorNtNtCsc0YPw4IdecV_5alloc6string6StringENtB1d_7Visitor9visit_seqINtNtCs7jq4FGjB44s_18serde_ipld_dagcbor2de8AccessorNtNtNtCshVKh6t4RGJQ_7cbor4ii4core5utils11SliceReaderEE0Cs85eSTLP80nv_9amt_tests
FN:123,_RNvMs3_NtCskFmwyrQRmFP_12fvm_ipld_amt4nodeINtB5_13CollapsedNodeNtNtCsc0YPw4IdecV_5alloc6string6StringE6expandCs85eSTLP80nv_9amt_tests
FN:384,_RNCINvMs4_NtCskFmwyrQRmFP_12fvm_ipld_amt4nodeINtB8_4NodeNtNtCsaV0kQbjOix3_17fvm_ipld_encoding5bytes7BytesDeE6deleteRINtNtCslbkBntY5hAO_19fvm_ipld_blockstore8tracking18TrackingBlockstoreRNtNtB1V_6memory16MemoryBlockstoreEE0Cs85eSTLP80nv_9amt_tests
FN:119,_RINvXNvXNvNtCskFmwyrQRmFP_12fvm_ipld_amt4nodes_1__INtB8_13CollapsedNodepENtNtCsj3WkLEH4Ge0_5serde2de11Deserialize11deserializeINtB3_9___VisitorNtNtCsaV0kQbjOix3_17fvm_ipld_encoding5bytes7BytesDeENtB1b_7Visitor9visit_seqINtNtCs7jq4FGjB44s_18serde_ipld_dagcbor2de8AccessorNtNtNtCshVKh6t4RGJQ_7cbor4ii4core5utils11SliceReaderEECs85eSTLP80nv_9amt_tests
FN:232,_RINvMs4_NtCskFmwyrQRmFP_12fvm_ipld_amt4nodeINtB6_4NodeNtNtCsc0YPw4IdecV_5alloc6string6StringE3getRINtNtCslbkBntY5hAO_19fvm_ipld_blockstore8tracking18TrackingBlockstoreRNtNtB1D_6memory16MemoryBlockstoreEECs85eSTLP80nv_9amt_tests
FN:247,_RNCINvMs4_NtCskFmwyrQRmFP_12fvm_ipld_amt4nodeINtB8_4NodeNtNtCsaV0kQbjOix3_17fvm_ipld_encoding5bytes7BytesDeE3getRINtNtCslbkBntY5hAO_19fvm_ipld_blockstore8tracking18TrackingBlockstoreRNtNtB1S_6memory16MemoryBlockstoreEEs0_0Cs85eSTLP80nv_9amt_tests
FN:457,_RNCNCINvMs4_NtCskFmwyrQRmFP_12fvm_ipld_amt4nodeINtBa_4NodeNtNtCsaV0kQbjOix3_17fvm_ipld_encoding5bytes7BytesDeE14for_each_whileRINtNtCslbkBntY5hAO_19fvm_ipld_blockstore8tracking18TrackingBlockstoreRNtNtB26_6memory16MemoryBlockstoreENCINvMs_NtBc_3amtINtB3P_3AmtBU_B20_E8for_eachNCNvCs85eSTLP80nv_9amt_testss_8for_eachs_0E0E00B4u_
FN:227,_RNCNvMs4_NtCskFmwyrQRmFP_12fvm_ipld_amt4nodeINtB7_4NodeNtNtCsaV0kQbjOix3_17fvm_ipld_encoding5bytes7BytesDeE8is_emptys_0Cs85eSTLP80nv_9amt_tests
FN:209,_RNvMs4_NtCskFmwyrQRmFP_12fvm_ipld_amt4nodeINtB5_4NodeNtNtCsaV0kQbjOix3_17fvm_ipld_encoding5bytes7BytesDeE12can_collapseCs85eSTLP80nv_9amt_tests
FN:422,_RINvMs4_NtCskFmwyrQRmFP_12fvm_ipld_amt4nodeINtB6_4NodeNtNtCsaV0kQbjOix3_17fvm_ipld_encoding5bytes7BytesDeE14for_each_whileRINtNtCslbkBntY5hAO_19fvm_ipld_blockstore8tracking18TrackingBlockstoreRNtNtB22_6memory16MemoryBlockstoreENCINvMs_NtB8_3amtINtB3L_3AmtBQ_B1W_E8for_eachNCNvCs85eSTLP80nv_9amt_testss_8for_eachs_0E0EB4q_
FN:213,_RNCNvMs4_NtCskFmwyrQRmFP_12fvm_ipld_amt4nodeINtB7_4NodeNtNtCsaV0kQbjOix3_17fvm_ipld_encoding5bytes7BytesDeE12can_collapse0Cs85eSTLP80nv_9amt_tests
FN:216,_RNCNvMs4_NtCskFmwyrQRmFP_12fvm_ipld_amt4nodeINtB7_4NodeNtNtCsaV0kQbjOix3_17fvm_ipld_encoding5bytes7BytesDeE12can_collapses_0Cs85eSTLP80nv_9amt_tests
FN:245,_RNCINvMs4_NtCskFmwyrQRmFP_12fvm_ipld_amt4nodeINtB8_4NodeNtNtCsc0YPw4IdecV_5alloc6string6StringE3getRINtNtCslbkBntY5hAO_19fvm_ipld_blockstore8tracking18TrackingBlockstoreRNtNtB1F_6memory16MemoryBlockstoreEEs_0Cs85eSTLP80nv_9amt_tests
FN:119,_RNCINvXNvXNvNtCskFmwyrQRmFP_12fvm_ipld_amt4nodes_1__INtBa_13CollapsedNodepENtNtCsj3WkLEH4Ge0_5serde2de11Deserialize11deserializeINtB5_9___VisitorNtNtCsaV0kQbjOix3_17fvm_ipld_encoding5bytes7BytesDeENtB1d_7Visitor9visit_seqINtNtCs7jq4FGjB44s_18serde_ipld_dagcbor2de8AccessorNtNtNtCshVKh6t4RGJQ_7cbor4ii4core5utils11SliceReaderEE0Cs85eSTLP80nv_9amt_tests
FN:157,_RNCNvMs3_NtCskFmwyrQRmFP_12fvm_ipld_amt4nodeINtB7_13CollapsedNodeNtNtCsaV0kQbjOix3_17fvm_ipld_encoding5bytes7BytesDeE6expands_0Cs85eSTLP80nv_9amt_tests
FN:422,_RINvMs4_NtCskFmwyrQRmFP_12fvm_ipld_amt4nodeINtB6_4NodeNtNtCsaV0kQbjOix3_17fvm_ipld_encoding5bytes7BytesDeE14for_each_whileRINtNtCslbkBntY5hAO_19fvm_ipld_blockstore8tracking18TrackingBlockstoreRNtNtB22_6memory16MemoryBlockstoreENCINvMs_NtB8_3amtINtB3L_3AmtBQ_B1W_E8for_eachNCNvCs85eSTLP80nv_9amt_testss_8for_eachs0_0E0EB4q_
FN:247,_RNCINvMs4_NtCskFmwyrQRmFP_12fvm_ipld_amt4nodeINtB8_4NodeNtNtCsc0YPw4IdecV_5alloc6string6StringE3getRINtNtCslbkBntY5hAO_19fvm_ipld_blockstore8tracking18TrackingBlockstoreRNtNtB1F_6memory16MemoryBlockstoreEEs0_0Cs85eSTLP80nv_9amt_tests
FN:226,_RNCNvMs4_NtCskFmwyrQRmFP_12fvm_ipld_amt4nodeINtB7_4NodeNtNtCsc0YPw4IdecV_5alloc6string6StringE8is_empty0Cs85eSTLP80nv_9amt_tests
FN:455,_RNCINvMs4_NtCskFmwyrQRmFP_12fvm_ipld_amt4nodeINtB8_4NodeNtNtCsaV0kQbjOix3_17fvm_ipld_encoding5bytes7BytesDeE14for_each_whileRINtNtCslbkBntY5hAO_19fvm_ipld_blockstore8tracking18TrackingBlockstoreRNtNtB24_6memory16MemoryBlockstoreENCINvMs_NtBa_3amtINtB3N_3AmtBS_B1Y_E8for_eachNCNvCs85eSTLP80nv_9amt_testss_8for_each0E0E0B4s_
FN:457,_RNCNCINvMs4_NtCskFmwyrQRmFP_12fvm_ipld_amt4nodeINtBa_4NodeNtNtCsaV0kQbjOix3_17fvm_ipld_encoding5bytes7BytesDeE14for_each_whileRINtNtCslbkBntY5hAO_19fvm_ipld_blockstore8tracking18TrackingBlockstoreRNtNtB26_6memory16MemoryBlockstoreENCINvMs_NtBc_3amtINtB3P_3AmtBU_B20_E8for_eachNCNvCs85eSTLP80nv_9amt_testss_8for_each0E0E00B4u_
FN:240,_RNCINvMs4_NtCskFmwyrQRmFP_12fvm_ipld_amt4nodeINtB8_4NodeNtNtCsaV0kQbjOix3_17fvm_ipld_encoding5bytes7BytesDeE3getRINtNtCslbkBntY5hAO_19fvm_ipld_blockstore8tracking18TrackingBlockstoreRNtNtB1S_6memory16MemoryBlockstoreEE0Cs85eSTLP80nv_9amt_tests
FN:226,_RNCNvMs4_NtCskFmwyrQRmFP_12fvm_ipld_amt4nodeINtB7_4NodeNtNtCsaV0kQbjOix3_17fvm_ipld_encoding5bytes7BytesDeE8is_empty0Cs85eSTLP80nv_9amt_tests
FN:521,_RNCNCINvMs4_NtCskFmwyrQRmFP_12fvm_ipld_amt4nodeINtBa_4NodeNtNtCsaV0kQbjOix3_17fvm_ipld_encoding5bytes7BytesDeE18for_each_while_mutRINtNtCslbkBntY5hAO_19fvm_ipld_blockstore8tracking18TrackingBlockstoreRNtNtB2a_6memory16MemoryBlockstoreENCINvMs_NtBc_3amtINtB3T_3AmtBU_B24_E12for_each_mutNCNvCs85eSTLP80nv_9amt_testss_15for_each_mutate0E0E00B4D_
FN:62,_RNvXs1_NtCskFmwyrQRmFP_12fvm_ipld_amt4nodeINtB5_4LinkNtNtCsaV0kQbjOix3_17fvm_ipld_encoding5bytes7BytesDeEINtNtCslBoGNiFC398_4core7convert4FromINtNtCs1EPKmBb5iMg_3cid3cid3CidKj40_EE4fromCs85eSTLP80nv_9amt_tests
FN:300,_RNCINvMs4_NtCskFmwyrQRmFP_12fvm_ipld_amt4nodeINtB8_4NodeNtNtCsaV0kQbjOix3_17fvm_ipld_encoding5bytes7BytesDeE3setRINtNtCslbkBntY5hAO_19fvm_ipld_blockstore8tracking18TrackingBlockstoreRNtNtB1S_6memory16MemoryBlockstoreEE0Cs85eSTLP80nv_9amt_tests
FN:481,_RINvMs4_NtCskFmwyrQRmFP_12fvm_ipld_amt4nodeINtB6_4NodeNtNtCsaV0kQbjOix3_17fvm_ipld_encoding5bytes7BytesDeE18for_each_while_mutRINtNtCslbkBntY5hAO_19fvm_ipld_blockstore8tracking18TrackingBlockstoreRNtNtB26_6memory16MemoryBlockstoreENCINvMs_NtB8_3amtINtB3P_3AmtBQ_B20_E12for_each_mutNCNvCs85eSTLP80nv_9amt_testss_15for_each_mutate0E0EB4z_
FN:143,_RNCNvMs3_NtCskFmwyrQRmFP_12fvm_ipld_amt4nodeINtB7_13CollapsedNodeNtNtCsaV0kQbjOix3_17fvm_ipld_encoding5bytes7BytesDeE6expand0Cs85eSTLP80nv_9amt_tests
FN:227,_RNCNvMs4_NtCskFmwyrQRmFP_12fvm_ipld_amt4nodeINtB7_4NodeNtNtCsc0YPw4IdecV_5alloc6string6StringE8is_emptys_0Cs85eSTLP80nv_9amt_tests
FN:119,_RINvXNvNtCskFmwyrQRmFP_12fvm_ipld_amt4nodes_1__INtB5_13CollapsedNodeNtNtCsc0YPw4IdecV_5alloc6string6StringENtNtCsj3WkLEH4Ge0_5serde2de11Deserialize11deserializeQINtNtCs7jq4FGjB44s_18serde_ipld_dagcbor2de12DeserializerNtNtNtCshVKh6t4RGJQ_7cbor4ii4core5utils11SliceReaderEECs85eSTLP80nv_9amt_tests
FN:119,_RINvXNvXNvXNvNtCskFmwyrQRmFP_12fvm_ipld_amt4nodes_1__INtBb_13CollapsedNodepENtNtCsj3WkLEH4Ge0_5serde2de11Deserialize11deserializeINtB6_9___VisitorpENtB1e_7Visitor9visit_seqINtB3_17___DeserializeWithNtNtCsaV0kQbjOix3_17fvm_ipld_encoding5bytes7BytesDeEB1c_11deserializeQINtNtCs7jq4FGjB44s_18serde_ipld_dagcbor2de12DeserializerNtNtNtCshVKh6t4RGJQ_7cbor4ii4core5utils11SliceReaderEECs85eSTLP80nv_9amt_tests
FN:84,_RINvXs2_NtCskFmwyrQRmFP_12fvm_ipld_amt4nodeINtB6_4NodeNtNtCsaV0kQbjOix3_17fvm_ipld_encoding5bytes7BytesDeENtNtCsj3WkLEH4Ge0_5serde3ser9Serialize9serializeQINtNtCs7jq4FGjB44s_18serde_ipld_dagcbor3ser10SerializerNtNtNtCshVKh6t4RGJQ_7cbor4ii4core5utils9BufWriterEECs85eSTLP80nv_9amt_tests
FN:300,_RNCINvMs4_NtCskFmwyrQRmFP_12fvm_ipld_amt4nodeINtB8_4NodeNtNtCsc0YPw4IdecV_5alloc6string6StringE3setRINtNtCslbkBntY5hAO_19fvm_ipld_blockstore8tracking18TrackingBlockstoreRNtNtB1F_6memory16MemoryBlockstoreEE0Cs85eSTLP80nv_9amt_tests
FN:176,_RNvMs4_NtCskFmwyrQRmFP_12fvm_ipld_amt4nodeINtB5_4NodeNtNtCsaV0kQbjOix3_17fvm_ipld_encoding5bytes7BytesDeE5emptyCs85eSTLP80nv_9amt_tests
FN:333,_RNvMs4_NtCskFmwyrQRmFP_12fvm_ipld_amt4nodeINtB5_4NodeNtNtCsc0YPw4IdecV_5alloc6string6StringE8set_leafCs85eSTLP80nv_9amt_tests
FN:245,_RNCINvMs4_NtCskFmwyrQRmFP_12fvm_ipld_amt4nodeINtB8_4NodeNtNtCsaV0kQbjOix3_17fvm_ipld_encoding5bytes7BytesDeE3getRINtNtCslbkBntY5hAO_19fvm_ipld_blockstore8tracking18TrackingBlockstoreRNtNtB1S_6memory16MemoryBlockstoreEEs_0Cs85eSTLP80nv_9amt_tests
FN:119,_RINvXNvNtCskFmwyrQRmFP_12fvm_ipld_amt4nodes_1__INtB5_13CollapsedNodeNtNtCsaV0kQbjOix3_17fvm_ipld_encoding5bytes7BytesDeENtNtCsj3WkLEH4Ge0_5serde2de11Deserialize11deserializeQINtNtCs7jq4FGjB44s_18serde_ipld_dagcbor2de12DeserializerNtNtNtCshVKh6t4RGJQ_7cbor4ii4core5utils11SliceReaderEECs85eSTLP80nv_9amt_tests
FN:119,_RINvXNvXNvXNvNtCskFmwyrQRmFP_12fvm_ipld_amt4nodes_1__INtBb_13CollapsedNodepENtNtCsj3WkLEH4Ge0_5serde2de11Deserialize11deserializeINtB6_9___VisitorpENtB1e_7Visitor9visit_seqINtB3_17___DeserializeWithNtNtCsc0YPw4IdecV_5alloc6string6StringEB1c_11deserializeQINtNtCs7jq4FGjB44s_18serde_ipld_dagcbor2de12DeserializerNtNtNtCshVKh6t4RGJQ_7cbor4ii4core5utils11SliceReaderEECs85eSTLP80nv_9amt_tests
FN:422,_RINvMs4_NtCskFmwyrQRmFP_12fvm_ipld_amt4nodeINtB6_4NodeNtNtCsaV0kQbjOix3_17fvm_ipld_encoding5bytes7BytesDeE14for_each_whileRINtNtCslbkBntY5hAO_19fvm_ipld_blockstore8tracking18TrackingBlockstoreRNtNtB22_6memory16MemoryBlockstoreENCINvMs_NtB8_3amtINtB3L_3AmtBQ_B1W_E8for_eachNCNvCs85eSTLP80nv_9amt_testss_8for_each0E0EB4q_
FN:347,_RINvMs4_NtCskFmwyrQRmFP_12fvm_ipld_amt4nodeINtB6_4NodeNtNtCsaV0kQbjOix3_17fvm_ipld_encoding5bytes7BytesDeE6deleteRINtNtCslbkBntY5hAO_19fvm_ipld_blockstore8tracking18TrackingBlockstoreRNtNtB1T_6memory16MemoryBlockstoreEECs85eSTLP80nv_9amt_tests
FN:240,_RNCINvMs4_NtCskFmwyrQRmFP_12fvm_ipld_amt4nodeINtB8_4NodeNtNtCsc0YPw4IdecV_5alloc6string6StringE3getRINtNtCslbkBntY5hAO_19fvm_ipld_blockstore8tracking18TrackingBlockstoreRNtNtB1F_6memory16MemoryBlockstoreEE0Cs85eSTLP80nv_9amt_tests
FN:224,_RNvMs4_NtCskFmwyrQRmFP_12fvm_ipld_amt4nodeINtB5_4NodeNtNtCsaV0kQbjOix3_17fvm_ipld_encoding5bytes7BytesDeE8is_emptyCs85eSTLP80nv_9amt_tests
FN:455,_RNCINvMs4_NtCskFmwyrQRmFP_12fvm_ipld_amt4nodeINtB8_4NodeNtNtCsaV0kQbjOix3_17fvm_ipld_encoding5bytes7BytesDeE14for_each_whileRINtNtCslbkBntY5hAO_19fvm_ipld_blockstore8tracking18TrackingBlockstoreRNtNtB24_6memory16MemoryBlockstoreENCINvMs_NtBa_3amtINtB3N_3AmtBS_B1Y_E8for_eachNCNvCs85eSTLP80nv_9amt_testss_8for_eachs_0E0E0B4s_
FN:157,_RNCNvMs3_NtCskFmwyrQRmFP_12fvm_ipld_amt4nodeINtB7_13CollapsedNodeNtNtCsc0YPw4IdecV_5alloc6string6StringE6expands_0Cs85eSTLP80nv_9amt_tests
FN:184,_RINvMs4_NtCskFmwyrQRmFP_12fvm_ipld_amt4nodeINtB6_4NodeNtNtCsaV0kQbjOix3_17fvm_ipld_encoding5bytes7BytesDeE5flushRINtNtCslbkBntY5hAO_19fvm_ipld_blockstore8tracking18TrackingBlockstoreRNtNtB1S_6memory16MemoryBlockstoreEECs85eSTLP80nv_9amt_tests
FN:274,_RINvMs4_NtCskFmwyrQRmFP_12fvm_ipld_amt4nodeINtB6_4NodeNtNtCsc0YPw4IdecV_5alloc6string6StringE3setRINtNtCslbkBntY5hAO_19fvm_ipld_blockstore8tracking18TrackingBlockstoreRNtNtB1D_6memory16MemoryBlockstoreEECs85eSTLP80nv_9amt_tests
FN:123,_RNvMs3_NtCskFmwyrQRmFP_12fvm_ipld_amt4nodeINtB5_13CollapsedNodeNtNtCsaV0kQbjOix3_17fvm_ipld_encoding5bytes7BytesDeE6expandCs85eSTLP80nv_9amt_tests
FN:62,_RNvXs1_NtCskFmwyrQRmFP_12fvm_ipld_amt4nodeINtB5_4LinkNtNtCsc0YPw4IdecV_5alloc6string6StringEINtNtCslBoGNiFC398_4core7convert4FromINtNtCs1EPKmBb5iMg_3cid3cid3CidKj40_EE4fromCs85eSTLP80nv_9amt_tests
FN:386,_RNCNCINvMs4_NtCskFmwyrQRmFP_12fvm_ipld_amt4nodeINtBa_4NodeNtNtCsaV0kQbjOix3_17fvm_ipld_encoding5bytes7BytesDeE6deleteRINtNtCslbkBntY5hAO_19fvm_ipld_blockstore8tracking18TrackingBlockstoreRNtNtB1X_6memory16MemoryBlockstoreEE00Cs85eSTLP80nv_9amt_tests
FN:71,_RNvXININtCskFmwyrQRmFP_12fvm_ipld_amt4nodesa_0pEINtB5_4NodepENtNtCslBoGNiFC398_4core3fmt5Debug3fmtB7_
FN:249,_RNCNCINvMs4_NtCskFmwyrQRmFP_12fvm_ipld_amt4nodeINtBa_4NodepE3getpEs0_00Bc_
FN:34,_RINvXININtCskFmwyrQRmFP_12fvm_ipld_amt4node0pEINtB6_4LinkpENtNtCsj3WkLEH4Ge0_5serde2de11Deserialize11deserializepEB8_
FN:119,_RNvXININvXNvNtCskFmwyrQRmFP_12fvm_ipld_amt4nodes_1__INtBa_13CollapsedNodepENtNtCsj3WkLEH4Ge0_5serde2de11Deserialize11deserialize0pEINtB5_9___VisitorpENtB1d_7Visitor9expectingBc_
FN:457,_RNCNCINvMs4_NtCskFmwyrQRmFP_12fvm_ipld_amt4nodeINtBa_4NodepE14for_each_whileppE00Bc_
FN:119,_RINvXININvXNvNtCskFmwyrQRmFP_12fvm_ipld_amt4node1__INtBb_13CollapsedNodepENtNtCsj3WkLEH4Ge0_5serde3ser9Serialize9serialize0pEINtB6_15___SerializeWithpEB1a_9serializepEBd_
FN:232,_RINvMs4_NtCskFmwyrQRmFP_12fvm_ipld_amt4nodeINtB6_4NodepE3getpEB8_
FN:184,_RINvMs4_NtCskFmwyrQRmFP_12fvm_ipld_amt4nodeINtB6_4NodepE5flushpEB8_
FN:84,_RINvXININtCskFmwyrQRmFP_12fvm_ipld_amt4nodes2_0pEINtB6_4NodepENtNtCsj3WkLEH4Ge0_5serde3ser9Serialize9serializepEB8_
FN:227,_RNCNvMs4_NtCskFmwyrQRmFP_12fvm_ipld_amt4nodeINtB7_4NodepE8is_emptys_0B9_
FN:51,_RNvXININtCskFmwyrQRmFP_12fvm_ipld_amt4nodes_0pEINtB5_4LinkpENtNtCslBoGNiFC398_4core3cmp9PartialEq2eqB7_
FN:209,_RNvMs4_NtCskFmwyrQRmFP_12fvm_ipld_amt4nodeINtB5_4NodepE12can_collapseB7_
FN:455,_RNCINvMs4_NtCskFmwyrQRmFP_12fvm_ipld_amt4nodeINtB8_4NodepE14for_each_whileppE0Ba_
FN:119,_RINvXININvXNvXNvNtCskFmwyrQRmFP_12fvm_ipld_amt4nodes_1__INtBe_13CollapsedNodepENtNtCsj3WkLEH4Ge0_5serde2de11Deserialize11deserializeINtB9_9___VisitorpENtB1h_7Visitor9visit_seq0pEINtB6_17___DeserializeWithpEB1f_11deserializepEBg_
FN:247,_RNCINvMs4_NtCskFmwyrQRmFP_12fvm_ipld_amt4nodeINtB8_4NodepE3getpEs0_0Ba_
FN:213,_RNCNvMs4_NtCskFmwyrQRmFP_12fvm_ipld_amt4nodeINtB7_4NodepE12can_collapse0B9_
FN:216,_RNCNvMs4_NtCskFmwyrQRmFP_12fvm_ipld_amt4nodeINtB7_4NodepE12can_collapses_0B9_
FN:119,_RINvXININvNtCskFmwyrQRmFP_12fvm_ipld_amt4node1__0pEINtB8_13CollapsedNodepENtNtCsj3WkLEH4Ge0_5serde3ser9Serialize9serializepEBa_
FN:274,_RINvMs4_NtCskFmwyrQRmFP_12fvm_ipld_amt4nodeINtB6_4NodepE3setpEB8_
FN:245,_RNCINvMs4_NtCskFmwyrQRmFP_12fvm_ipld_amt4nodeINtB8_4NodepE3getpEs_0Ba_
FN:119,_RINvXININvXNvNtCskFmwyrQRmFP_12fvm_ipld_amt4nodes_1__INtBb_13CollapsedNodepENtNtCsj3WkLEH4Ge0_5serde2de11Deserialize11deserialize0pEINtB6_9___VisitorpENtB1e_7Visitor9visit_seqpEBd_
FN:19,_RNvXININtCskFmwyrQRmFP_12fvm_ipld_amt4nodes5_0pEINtB5_4LinkpENtNtCslBoGNiFC398_4core3fmt5Debug3fmtB7_
FN:62,_RNvXININtCskFmwyrQRmFP_12fvm_ipld_amt4nodes1_0pEINtB5_4LinkpEINtNtCslBoGNiFC398_4core7convert4FromINtNtCs1EPKmBb5iMg_3cid3cid3CidKj40_EE4fromB7_
FN:422,_RINvMs4_NtCskFmwyrQRmFP_12fvm_ipld_amt4nodeINtB6_4NodepE14for_each_whileppEB8_
FN:123,_RNvMs3_NtCskFmwyrQRmFP_12fvm_ipld_amt4nodeINtB5_13CollapsedNodepE6expandB7_
FN:224,_RNvMs4_NtCskFmwyrQRmFP_12fvm_ipld_amt4nodeINtB5_4NodepE8is_emptyB7_
FN:71,_RNvXININtCskFmwyrQRmFP_12fvm_ipld_amt4nodes7_0pEINtB5_4NodepENtNtCslBoGNiFC398_4core3cmp9PartialEq2neB7_
FN:119,_RNCINvXININvXNvNtCskFmwyrQRmFP_12fvm_ipld_amt4nodes_1__INtBd_13CollapsedNodepENtNtCsj3WkLEH4Ge0_5serde2de11Deserialize11deserialize0pEINtB8_9___VisitorpENtB1g_7Visitor9visit_seqpE0Bf_
FN:481,_RINvMs4_NtCskFmwyrQRmFP_12fvm_ipld_amt4nodeINtB6_4NodepE18for_each_while_mutppEB8_
FN:157,_RNCNvMs3_NtCskFmwyrQRmFP_12fvm_ipld_amt4nodeINtB7_13CollapsedNodepE6expands_0B9_
FN:240,_RNCINvMs4_NtCskFmwyrQRmFP_12fvm_ipld_amt4nodeINtB8_4NodepE3getpE0Ba_
FN:333,_RNvMs4_NtCskFmwyrQRmFP_12fvm_ipld_amt4nodeINtB5_4NodepE8set_leafB7_
FN:71,_RNvXININtCskFmwyrQRmFP_12fvm_ipld_amt4nodes7_0pEINtB5_4NodepENtNtCslBoGNiFC398_4core3cmp9PartialEq2eqB7_
FN:226,_RNCNvMs4_NtCskFmwyrQRmFP_12fvm_ipld_amt4nodeINtB7_4NodepE8is_empty0B9_
FN:119,_RINvXININvNtCskFmwyrQRmFP_12fvm_ipld_amt4nodes_1__0pEINtB8_13CollapsedNodepENtNtCsj3WkLEH4Ge0_5serde2de11Deserialize11deserializepEBa_
FN:521,_RNCNCINvMs4_NtCskFmwyrQRmFP_12fvm_ipld_amt4nodeINtBa_4NodepE18for_each_while_mutppE00Bc_
FN:386,_RNCNCINvMs4_NtCskFmwyrQRmFP_12fvm_ipld_amt4nodeINtBa_4NodepE6deletepE00Bc_
FN:347,_RINvMs4_NtCskFmwyrQRmFP_12fvm_ipld_amt4nodeINtB6_4NodepE6deletepEB8_
FN:216,_RNCNCNvMs4_NtCskFmwyrQRmFP_12fvm_ipld_amt4nodeINtB9_4NodepE12can_collapses_00Bb_
FN:176,_RNvMs4_NtCskFmwyrQRmFP_12fvm_ipld_amt4nodeINtB5_4NodepE5emptyB7_
FN:300,_RNCINvMs4_NtCskFmwyrQRmFP_12fvm_ipld_amt4nodeINtB8_4NodepE3setpE0Ba_
FN:143,_RNCNvMs3_NtCskFmwyrQRmFP_12fvm_ipld_amt4nodeINtB7_13CollapsedNodepE6expand0B9_
FN:519,_RNCINvMs4_NtCskFmwyrQRmFP_12fvm_ipld_amt4nodeINtB8_4NodepE18for_each_while_mutppE0Ba_
FN:384,_RNCINvMs4_NtCskFmwyrQRmFP_12fvm_ipld_amt4nodeINtB8_4NodepE6deletepE0Ba_
FN:300,_RNCINvMs4_NtCs3qq3JIeCcaM_12fvm_ipld_amt4nodeINtB8_4NodepE3setpE0Ba_
FN:274,_RINvMs4_NtCs3qq3JIeCcaM_12fvm_ipld_amt4nodeINtB6_4NodepE3setpEB8_
FN:176,_RNvMs4_NtCs3qq3JIeCcaM_12fvm_ipld_amt4nodeINtB5_4NodepE5emptyB7_
FN:34,_RINvXININtCs3qq3JIeCcaM_12fvm_ipld_amt4node0pEINtB6_4LinkpENtNtCsj3WkLEH4Ge0_5serde2de11Deserialize11deserializepEB8_
FN:422,_RINvMs4_NtCs3qq3JIeCcaM_12fvm_ipld_amt4nodeINtB6_4NodepE14for_each_whileppEB8_
FN:119,_RINvXININvXNvNtCs3qq3JIeCcaM_12fvm_ipld_amt4node1__INtBb_13CollapsedNodepENtNtCsj3WkLEH4Ge0_5serde3ser9Serialize9serialize0pEINtB6_15___SerializeWithpEB1a_9serializepEBd_
FN:216,_RNCNvMs4_NtCs3qq3JIeCcaM_12fvm_ipld_amt4nodeINtB7_4NodepE12can_collapses_0B9_
FN:347,_RINvMs4_NtCs3qq3JIeCcaM_12fvm_ipld_amt4nodeINtB6_4NodepE6deletepEB8_
FN:224,_RNvMs4_NtCs3qq3JIeCcaM_12fvm_ipld_amt4nodeINtB5_4NodepE8is_emptyB7_
FN:521,_RNCNCINvMs4_NtCs3qq3JIeCcaM_12fvm_ipld_amt4nodeINtBa_4NodepE18for_each_while_mutppE00Bc_
FN:245,_RNCINvMs4_NtCs3qq3JIeCcaM_12fvm_ipld_amt4nodeINtB8_4NodepE3getpEs_0Ba_
FN:209,_RNvMs4_NtCs3qq3JIeCcaM_12fvm_ipld_amt4nodeINtB5_4NodepE12can_collapseB7_
FN:71,_RNvXININtCs3qq3JIeCcaM_12fvm_ipld_amt4nodes7_0pEINtB5_4NodepENtNtCslBoGNiFC398_4core3cmp9PartialEq2neB7_
FN:333,_RNvMs4_NtCs3qq3JIeCcaM_12fvm_ipld_amt4nodeINtB5_4NodepE8set_leafB7_
FN:519,_RNCINvMs4_NtCs3qq3JIeCcaM_12fvm_ipld_amt4nodeINtB8_4NodepE18for_each_while_mutppE0Ba_
FN:232,_RINvMs4_NtCs3qq3JIeCcaM_12fvm_ipld_amt4nodeINtB6_4NodepE3getpEB8_
FN:226,_RNCNvMs4_NtCs3qq3JIeCcaM_12fvm_ipld_amt4nodeINtB7_4NodepE8is_empty0B9_
FN:119,_RNvXININvXNvNtCs3qq3JIeCcaM_12fvm_ipld_amt4nodes_1__INtBa_13CollapsedNodepENtNtCsj3WkLEH4Ge0_5serde2de11Deserialize11deserialize0pEINtB5_9___VisitorpENtB1d_7Visitor9expectingBc_
FN:119,_RINvXININvNtCs3qq3JIeCcaM_12fvm_ipld_amt4node1__0pEINtB8_13CollapsedNodepENtNtCsj3WkLEH4Ge0_5serde3ser9Serialize9serializepEBa_
FN:240,_RNCINvMs4_NtCs3qq3JIeCcaM_12fvm_ipld_amt4nodeINtB8_4NodepE3getpE0Ba_
FN:213,_RNCNvMs4_NtCs3qq3JIeCcaM_12fvm_ipld_amt4nodeINtB7_4NodepE12can_collapse0B9_
FN:457,_RNCNCINvMs4_NtCs3qq3JIeCcaM_12fvm_ipld_amt4nodeINtBa_4NodepE14for_each_whileppE00Bc_
FN:216,_RNCNCNvMs4_NtCs3qq3JIeCcaM_12fvm_ipld_amt4nodeINtB9_4NodepE12can_collapses_00Bb_
FN:455,_RNCINvMs4_NtCs3qq3JIeCcaM_12fvm_ipld_amt4nodeINtB8_4NodepE14for_each_whileppE0Ba_
FN:386,_RNCNCINvMs4_NtCs3qq3JIeCcaM_12fvm_ipld_amt4nodeINtBa_4NodepE6deletepE00Bc_
FN:184,_RINvMs4_NtCs3qq3JIeCcaM_12fvm_ipld_amt4nodeINtB6_4NodepE5flushpEB8_
FN:247,_RNCINvMs4_NtCs3qq3JIeCcaM_12fvm_ipld_amt4nodeINtB8_4NodepE3getpEs0_0Ba_
FN:249,_RNCNCINvMs4_NtCs3qq3JIeCcaM_12fvm_ipld_amt4nodeINtBa_4NodepE3getpEs0_00Bc_
FN:384,_RNCINvMs4_NtCs3qq3JIeCcaM_12fvm_ipld_amt4nodeINtB8_4NodepE6deletepE0Ba_
FN:481,_RINvMs4_NtCs3qq3JIeCcaM_12fvm_ipld_amt4nodeINtB6_4NodepE18for_each_while_mutppEB8_
FN:227,_RNCNvMs4_NtCs3qq3JIeCcaM_12fvm_ipld_amt4nodeINtB7_4NodepE8is_emptys_0B9_
FN:119,_RINvXNvNtCs3qq3JIeCcaM_12fvm_ipld_amt4nodes_1__INtB5_13CollapsedNodehENtNtCsj3WkLEH4Ge0_5serde2de11Deserialize11deserializeQINtNtCs7jq4FGjB44s_18serde_ipld_dagcbor2de12DeserializerNtNtNtCshVKh6t4RGJQ_7cbor4ii4core5utils11SliceReaderEEB7_
FN:157,_RNCNvMs3_NtCs3qq3JIeCcaM_12fvm_ipld_amt4nodeINtB7_13CollapsedNodehE6expands_0B9_
FN:71,_RNvXs7_NtCs3qq3JIeCcaM_12fvm_ipld_amt4nodeINtB5_4NodehENtNtCslBoGNiFC398_4core3cmp9PartialEq2eqB7_
FN:119,_RINvXNvNtCs3qq3JIeCcaM_12fvm_ipld_amt4nodes_1__INtB5_13CollapsedNodeNtNtCsc0YPw4IdecV_5alloc6string6StringENtNtCsj3WkLEH4Ge0_5serde2de11Deserialize11deserializeQINtNtCs7jq4FGjB44s_18serde_ipld_dagcbor2de12DeserializerNtNtNtCshVKh6t4RGJQ_7cbor4ii4core5utils11SliceReaderEEB7_
FN:51,_RNvXs_NtCs3qq3JIeCcaM_12fvm_ipld_amt4nodeINtB4_4LinkNtNtCsc0YPw4IdecV_5alloc6string6StringENtNtCslBoGNiFC398_4core3cmp9PartialEq2eqB6_
FN:84,_RINvXs2_NtCs3qq3JIeCcaM_12fvm_ipld_amt4nodeINtB6_4NodehENtNtCsj3WkLEH4Ge0_5serde3ser9Serialize9serializeQINtNtCs7jq4FGjB44s_18serde_ipld_dagcbor3ser10SerializerNtNtNtCshVKh6t4RGJQ_7cbor4ii4core5utils9BufWriterEEB8_
FN:123,_RNvMs3_NtCs3qq3JIeCcaM_12fvm_ipld_amt4nodeINtB5_13CollapsedNodeNtNtCsc0YPw4IdecV_5alloc6string6StringE6expandB7_
FN:19,_RNvXs5_NtCs3qq3JIeCcaM_12fvm_ipld_amt4nodeINtB5_4LinkhENtNtCslBoGNiFC398_4core3fmt5Debug3fmtB7_
FN:143,_RNCNvMs3_NtCs3qq3JIeCcaM_12fvm_ipld_amt4nodeINtB7_13CollapsedNodeNtNtCsc0YPw4IdecV_5alloc6string6StringE6expand0B9_
FN:71,_RNvXsa_NtCs3qq3JIeCcaM_12fvm_ipld_amt4nodeINtB5_4NodeNtNtCsc0YPw4IdecV_5alloc6string6StringENtNtCslBoGNiFC398_4core3fmt5Debug3fmtB7_
FN:84,_RINvXs2_NtCs3qq3JIeCcaM_12fvm_ipld_amt4nodeINtB6_4NodeNtNtCsc0YPw4IdecV_5alloc6string6StringENtNtCsj3WkLEH4Ge0_5serde3ser9Serialize9serializeQINtNtCs7jq4FGjB44s_18serde_ipld_dagcbor3ser10SerializerNtNtNtCshVKh6t4RGJQ_7cbor4ii4core5utils9BufWriterEEB8_
FN:71,_RNvXs7_NtCs3qq3JIeCcaM_12fvm_ipld_amt4nodeINtB5_4NodeNtNtCsc0YPw4IdecV_5alloc6string6StringENtNtCslBoGNiFC398_4core3cmp9PartialEq2eqB7_
FN:62,_RNvXs1_NtCs3qq3JIeCcaM_12fvm_ipld_amt4nodeINtB5_4LinkhEINtNtCslBoGNiFC398_4core7convert4FromINtNtCs1EPKmBb5iMg_3cid3cid3CidKj40_EE4fromB7_
FN:119,_RINvXNvXNvNtCs3qq3JIeCcaM_12fvm_ipld_amt4nodes_1__INtB8_13CollapsedNodepENtNtCsj3WkLEH4Ge0_5serde2de11Deserialize11deserializeINtB3_9___VisitorNtNtCsc0YPw4IdecV_5alloc6string6StringENtB1b_7Visitor9visit_seqINtNtCs7jq4FGjB44s_18serde_ipld_dagcbor2de8AccessorNtNtNtCshVKh6t4RGJQ_7cbor4ii4core5utils11SliceReaderEEBa_
FN:119,_RNCINvXNvXNvNtCs3qq3JIeCcaM_12fvm_ipld_amt4nodes_1__INtBa_13CollapsedNodepENtNtCsj3WkLEH4Ge0_5serde2de11Deserialize11deserializeINtB5_9___VisitorhENtB1d_7Visitor9visit_seqINtNtCs7jq4FGjB44s_18serde_ipld_dagcbor2de8AccessorNtNtNtCshVKh6t4RGJQ_7cbor4ii4core5utils11SliceReaderEE0Bc_
FN:123,_RNvMs3_NtCs3qq3JIeCcaM_12fvm_ipld_amt4nodeINtB5_13CollapsedNodehE6expandB7_
FN:71,_RNvXsa_NtCs3qq3JIeCcaM_12fvm_ipld_amt4nodeINtB5_4NodehENtNtCslBoGNiFC398_4core3fmt5Debug3fmtB7_
FN:157,_RNCNvMs3_NtCs3qq3JIeCcaM_12fvm_ipld_amt4nodeINtB7_13CollapsedNodeNtNtCsc0YPw4IdecV_5alloc6string6StringE6expands_0B9_
FN:62,_RNvXs1_NtCs3qq3JIeCcaM_12fvm_ipld_amt4nodeINtB5_4LinkNtNtCsc0YPw4IdecV_5alloc6string6StringEINtNtCslBoGNiFC398_4core7convert4FromINtNtCs1EPKmBb5iMg_3cid3cid3CidKj40_EE4fromB7_
FN:119,_RINvXNvXNvXNvNtCs3qq3JIeCcaM_12fvm_ipld_amt4nodes_1__INtBb_13CollapsedNodepENtNtCsj3WkLEH4Ge0_5serde2de11Deserialize11deserializeINtB6_9___VisitorpENtB1e_7Visitor9visit_seqINtB3_17___DeserializeWithhEB1c_11deserializeQINtNtCs7jq4FGjB44s_18serde_ipld_dagcbor2de12DeserializerNtNtNtCshVKh6t4RGJQ_7cbor4ii4core5utils11SliceReaderEEBd_
FN:119,_RINvXNvXNvNtCs3qq3JIeCcaM_12fvm_ipld_amt4nodes_1__INtB8_13CollapsedNodepENtNtCsj3WkLEH4Ge0_5serde2de11Deserialize11deserializeINtB3_9___VisitorhENtB1b_7Visitor9visit_seqINtNtCs7jq4FGjB44s_18serde_ipld_dagcbor2de8AccessorNtNtNtCshVKh6t4RGJQ_7cbor4ii4core5utils11SliceReaderEEBa_
FN:143,_RNCNvMs3_NtCs3qq3JIeCcaM_12fvm_ipld_amt4nodeINtB7_13CollapsedNodehE6expand0B9_
FN:119,_RINvXNvXNvXNvNtCs3qq3JIeCcaM_12fvm_ipld_amt4nodes_1__INtBb_13CollapsedNodepENtNtCsj3WkLEH4Ge0_5serde2de11Deserialize11deserializeINtB6_9___VisitorpENtB1e_7Visitor9visit_seqINtB3_17___DeserializeWithNtNtCsc0YPw4IdecV_5alloc6string6StringEB1c_11deserializeQINtNtCs7jq4FGjB44s_18serde_ipld_dagcbor2de12DeserializerNtNtNtCshVKh6t4RGJQ_7cbor4ii4core5utils11SliceReaderEEBd_
FN:119,_RNCINvXNvXNvNtCs3qq3JIeCcaM_12fvm_ipld_amt4nodes_1__INtBa_13CollapsedNodepENtNtCsj3WkLEH4Ge0_5serde2de11Deserialize11deserializeINtB5_9___VisitorNtNtCsc0YPw4IdecV_5alloc6string6StringENtB1d_7Visitor9visit_seqINtNtCs7jq4FGjB44s_18serde_ipld_dagcbor2de8AccessorNtNtNtCshVKh6t4RGJQ_7cbor4ii4core5utils11SliceReaderEE0Bc_
FN:51,_RNvXs_NtCs3qq3JIeCcaM_12fvm_ipld_amt4nodeINtB4_4LinkhENtNtCslBoGNiFC398_4core3cmp9PartialEq2eqB6_
FN:19,_RNvXs5_NtCs3qq3JIeCcaM_12fvm_ipld_amt4nodeINtB5_4LinkNtNtCsc0YPw4IdecV_5alloc6string6StringENtNtCslBoGNiFC398_4core3fmt5Debug3fmtB7_
FN:562,_RNCNvNtNtCs3qq3JIeCcaM_12fvm_ipld_amt4node5tests24serialize_node_symmetric0B7_
FN:563,_RNvNtNtCs3qq3JIeCcaM_12fvm_ipld_amt4node5testss_24serialize_node_symmetric
FNDA:0,_RINvXNvXNvNtCskFmwyrQRmFP_12fvm_ipld_amt4nodes_1__INtB8_13CollapsedNodepENtNtCsj3WkLEH4Ge0_5serde2de11Deserialize11deserializeINtB3_9___VisitorNtNtCsc0YPw4IdecV_5alloc6string6StringENtB1b_7Visitor9visit_seqINtNtCs7jq4FGjB44s_18serde_ipld_dagcbor2de8AccessorNtNtNtCshVKh6t4RGJQ_7cbor4ii4core5utils11SliceReaderEECs85eSTLP80nv_9amt_tests
FNDA:0,_RNCNCINvMs4_NtCskFmwyrQRmFP_12fvm_ipld_amt4nodeINtBa_4NodeNtNtCsaV0kQbjOix3_17fvm_ipld_encoding5bytes7BytesDeE14for_each_whileRINtNtCslbkBntY5hAO_19fvm_ipld_blockstore8tracking18TrackingBlockstoreRNtNtB26_6memory16MemoryBlockstoreENCINvMs_NtBc_3amtINtB3P_3AmtBU_B20_E8for_eachNCNvCs85eSTLP80nv_9amt_testss_8for_eachs0_0E0E00B4u_
FNDA:4,_RINvMs4_NtCskFmwyrQRmFP_12fvm_ipld_amt4nodeINtB6_4NodeNtNtCsc0YPw4IdecV_5alloc6string6StringE6deleteRINtNtCslbkBntY5hAO_19fvm_ipld_blockstore8tracking18TrackingBlockstoreRNtNtB1G_6memory16MemoryBlockstoreEECs85eSTLP80nv_9amt_tests
FNDA:0,_RNCNCINvMs4_NtCskFmwyrQRmFP_12fvm_ipld_amt4nodeINtBa_4NodeNtNtCsc0YPw4IdecV_5alloc6string6StringE3getRINtNtCslbkBntY5hAO_19fvm_ipld_blockstore8tracking18TrackingBlockstoreRNtNtB1H_6memory16MemoryBlockstoreEEs0_00Cs85eSTLP80nv_9amt_tests
FNDA:0,_RNCNCNvMs4_NtCskFmwyrQRmFP_12fvm_ipld_amt4nodeINtB9_4NodeNtNtCsc0YPw4IdecV_5alloc6string6StringE12can_collapses_00Cs85eSTLP80nv_9amt_tests
FNDA:1,_RNvMs4_NtCskFmwyrQRmFP_12fvm_ipld_amt4nodeINtB5_4NodeNtNtCsc0YPw4IdecV_5alloc6string6StringE5emptyCs85eSTLP80nv_9amt_tests
FNDA:8378,_RNvMs4_NtCskFmwyrQRmFP_12fvm_ipld_amt4nodeINtB5_4NodeNtNtCsaV0kQbjOix3_17fvm_ipld_encoding5bytes7BytesDeE8set_leafCs85eSTLP80nv_9amt_tests
FNDA:11,_RNCINvMs4_NtCskFmwyrQRmFP_12fvm_ipld_amt4nodeINtB8_4NodeNtNtCsaV0kQbjOix3_17fvm_ipld_encoding5bytes7BytesDeE18for_each_while_mutRINtNtCslbkBntY5hAO_19fvm_ipld_blockstore8tracking18TrackingBlockstoreRNtNtB28_6memory16MemoryBlockstoreENCINvMs_NtBa_3amtINtB3R_3AmtBS_B22_E12for_each_mutNCNvCs85eSTLP80nv_9amt_testss_15for_each_mutate0E0E0B4B_
FNDA:0,_RNCNvMs3_NtCskFmwyrQRmFP_12fvm_ipld_amt4nodeINtB7_13CollapsedNodeNtNtCsc0YPw4IdecV_5alloc6string6StringE6expand0Cs85eSTLP80nv_9amt_tests
FNDA:0,_RNCINvMs4_NtCskFmwyrQRmFP_12fvm_ipld_amt4nodeINtB8_4NodeNtNtCsc0YPw4IdecV_5alloc6string6StringE6deleteRINtNtCslbkBntY5hAO_19fvm_ipld_blockstore8tracking18TrackingBlockstoreRNtNtB1I_6memory16MemoryBlockstoreEE0Cs85eSTLP80nv_9amt_tests
FNDA:34343,_RINvMs4_NtCskFmwyrQRmFP_12fvm_ipld_amt4nodeINtB6_4NodeNtNtCsaV0kQbjOix3_17fvm_ipld_encoding5bytes7BytesDeE3setRINtNtCslbkBntY5hAO_19fvm_ipld_blockstore8tracking18TrackingBlockstoreRNtNtB1Q_6memory16MemoryBlockstoreEECs85eSTLP80nv_9amt_tests
FNDA:14,_RNCNCNvMs4_NtCskFmwyrQRmFP_12fvm_ipld_amt4nodeINtB9_4NodeNtNtCsaV0kQbjOix3_17fvm_ipld_encoding5bytes7BytesDeE12can_collapses_00Cs85eSTLP80nv_9amt_tests
FNDA:0,_RNCNCINvMs4_NtCskFmwyrQRmFP_12fvm_ipld_amt4nodeINtBa_4NodeNtNtCsc0YPw4IdecV_5alloc6string6StringE6deleteRINtNtCslbkBntY5hAO_19fvm_ipld_blockstore8tracking18TrackingBlockstoreRNtNtB1K_6memory16MemoryBlockstoreEE00Cs85eSTLP80nv_9amt_tests
FNDA:1,_RNvMs4_NtCskFmwyrQRmFP_12fvm_ipld_amt4nodeINtB5_4NodeNtNtCsc0YPw4IdecV_5alloc6string6StringE8is_emptyCs85eSTLP80nv_9amt_tests
FNDA:0,_RNvMs4_NtCskFmwyrQRmFP_12fvm_ipld_amt4nodeINtB5_4NodeNtNtCsc0YPw4IdecV_5alloc6string6StringE12can_collapseCs85eSTLP80nv_9amt_tests
FNDA:66936,_RINvMs4_NtCskFmwyrQRmFP_12fvm_ipld_amt4nodeINtB6_4NodeNtNtCsaV0kQbjOix3_17fvm_ipld_encoding5bytes7BytesDeE3getRINtNtCslbkBntY5hAO_19fvm_ipld_blockstore8tracking18TrackingBlockstoreRNtNtB1Q_6memory16MemoryBlockstoreEECs85eSTLP80nv_9amt_tests
FNDA:0,_RNCNvMs4_NtCskFmwyrQRmFP_12fvm_ipld_amt4nodeINtB7_4NodeNtNtCsc0YPw4IdecV_5alloc6string6StringE12can_collapse0Cs85eSTLP80nv_9amt_tests
FNDA:0,_RNCNCINvMs4_NtCskFmwyrQRmFP_12fvm_ipld_amt4nodeINtBa_4NodeNtNtCsaV0kQbjOix3_17fvm_ipld_encoding5bytes7BytesDeE3getRINtNtCslbkBntY5hAO_19fvm_ipld_blockstore8tracking18TrackingBlockstoreRNtNtB1U_6memory16MemoryBlockstoreEEs0_00Cs85eSTLP80nv_9amt_tests
FNDA:0,_RNCNvMs4_NtCskFmwyrQRmFP_12fvm_ipld_amt4nodeINtB7_4NodeNtNtCsc0YPw4IdecV_5alloc6string6StringE12can_collapses_0Cs85eSTLP80nv_9amt_tests
FNDA:0,_RNCINvMs4_NtCskFmwyrQRmFP_12fvm_ipld_amt4nodeINtB8_4NodeNtNtCsaV0kQbjOix3_17fvm_ipld_encoding5bytes7BytesDeE14for_each_whileRINtNtCslbkBntY5hAO_19fvm_ipld_blockstore8tracking18TrackingBlockstoreRNtNtB24_6memory16MemoryBlockstoreENCINvMs_NtBa_3amtINtB3N_3AmtBS_B1Y_E8for_eachNCNvCs85eSTLP80nv_9amt_testss_8for_eachs0_0E0E0B4s_
FNDA:0,_RNCINvXNvXNvNtCskFmwyrQRmFP_12fvm_ipld_amt4nodes_1__INtBa_13CollapsedNodepENtNtCsj3WkLEH4Ge0_5serde2de11Deserialize11deserializeINtB5_9___VisitorNtNtCsc0YPw4IdecV_5alloc6string6StringENtB1d_7Visitor9visit_seqINtNtCs7jq4FGjB44s_18serde_ipld_dagcbor2de8AccessorNtNtNtCshVKh6t4RGJQ_7cbor4ii4core5utils11SliceReaderEE0Cs85eSTLP80nv_9amt_tests
FNDA:0,_RNvMs3_NtCskFmwyrQRmFP_12fvm_ipld_amt4nodeINtB5_13CollapsedNodeNtNtCsc0YPw4IdecV_5alloc6string6StringE6expandCs85eSTLP80nv_9amt_tests
FNDA:1,_RNCINvMs4_NtCskFmwyrQRmFP_12fvm_ipld_amt4nodeINtB8_4NodeNtNtCsaV0kQbjOix3_17fvm_ipld_encoding5bytes7BytesDeE6deleteRINtNtCslbkBntY5hAO_19fvm_ipld_blockstore8tracking18TrackingBlockstoreRNtNtB1V_6memory16MemoryBlockstoreEE0Cs85eSTLP80nv_9amt_tests
FNDA:0,_RINvXNvXNvNtCskFmwyrQRmFP_12fvm_ipld_amt4nodes_1__INtB8_13CollapsedNodepENtNtCsj3WkLEH4Ge0_5serde2de11Deserialize11deserializeINtB3_9___VisitorNtNtCsaV0kQbjOix3_17fvm_ipld_encoding5bytes7BytesDeENtB1b_7Visitor9visit_seqINtNtCs7jq4FGjB44s_18serde_ipld_dagcbor2de8AccessorNtNtNtCshVKh6t4RGJQ_7cbor4ii4core5utils11SliceReaderEECs85eSTLP80nv_9amt_tests
FNDA:8,_RINvMs4_NtCskFmwyrQRmFP_12fvm_ipld_amt4nodeINtB6_4NodeNtNtCsc0YPw4IdecV_5alloc6string6StringE3getRINtNtCslbkBntY5hAO_19fvm_ipld_blockstore8tracking18TrackingBlockstoreRNtNtB1D_6memory16MemoryBlockstoreEECs85eSTLP80nv_9amt_tests
FNDA:721,_RNCINvMs4_NtCskFmwyrQRmFP_12fvm_ipld_amt4nodeINtB8_4NodeNtNtCsaV0kQbjOix3_17fvm_ipld_encoding5bytes7BytesDeE3getRINtNtCslbkBntY5hAO_19fvm_ipld_blockstore8tracking18TrackingBlockstoreRNtNtB1S_6memory16MemoryBlockstoreEEs0_0Cs85eSTLP80nv_9amt_tests
FNDA:0,_RNCNCINvMs4_NtCskFmwyrQRmFP_12fvm_ipld_amt4nodeINtBa_4NodeNtNtCsaV0kQbjOix3_17fvm_ipld_encoding5bytes7BytesDeE14for_each_whileRINtNtCslbkBntY5hAO_19fvm_ipld_blockstore8tracking18TrackingBlockstoreRNtNtB26_6memory16MemoryBlockstoreENCINvMs_NtBc_3amtINtB3P_3AmtBU_B20_E8for_eachNCNvCs85eSTLP80nv_9amt_testss_8for_eachs_0E0E00B4u_
FNDA:93,_RNCNvMs4_NtCskFmwyrQRmFP_12fvm_ipld_amt4nodeINtB7_4NodeNtNtCsaV0kQbjOix3_17fvm_ipld_encoding5bytes7BytesDeE8is_emptys_0Cs85eSTLP80nv_9amt_tests
FNDA:8,_RNvMs4_NtCskFmwyrQRmFP_12fvm_ipld_amt4nodeINtB5_4NodeNtNtCsaV0kQbjOix3_17fvm_ipld_encoding5bytes7BytesDeE12can_collapseCs85eSTLP80nv_9amt_tests
FNDA:1431,_RINvMs4_NtCskFmwyrQRmFP_12fvm_ipld_amt4nodeINtB6_4NodeNtNtCsaV0kQbjOix3_17fvm_ipld_encoding5bytes7BytesDeE14for_each_whileRINtNtCslbkBntY5hAO_19fvm_ipld_blockstore8tracking18TrackingBlockstoreRNtNtB22_6memory16MemoryBlockstoreENCINvMs_NtB8_3amtINtB3L_3AmtBQ_B1W_E8for_eachNCNvCs85eSTLP80nv_9amt_testss_8for_eachs_0E0EB4q_
FNDA:3,_RNCNvMs4_NtCskFmwyrQRmFP_12fvm_ipld_amt4nodeINtB7_4NodeNtNtCsaV0kQbjOix3_17fvm_ipld_encoding5bytes7BytesDeE12can_collapse0Cs85eSTLP80nv_9amt_tests
FNDA:2,_RNCNvMs4_NtCskFmwyrQRmFP_12fvm_ipld_amt4nodeINtB7_4NodeNtNtCsaV0kQbjOix3_17fvm_ipld_encoding5bytes7BytesDeE12can_collapses_0Cs85eSTLP80nv_9amt_tests
FNDA:4,_RNCINvMs4_NtCskFmwyrQRmFP_12fvm_ipld_amt4nodeINtB8_4NodeNtNtCsc0YPw4IdecV_5alloc6string6StringE3getRINtNtCslbkBntY5hAO_19fvm_ipld_blockstore8tracking18TrackingBlockstoreRNtNtB1F_6memory16MemoryBlockstoreEEs_0Cs85eSTLP80nv_9amt_tests
FNDA:2172,_RNCINvXNvXNvNtCskFmwyrQRmFP_12fvm_ipld_amt4nodes_1__INtBa_13CollapsedNodepENtNtCsj3WkLEH4Ge0_5serde2de11Deserialize11deserializeINtB5_9___VisitorNtNtCsaV0kQbjOix3_17fvm_ipld_encoding5bytes7BytesDeENtB1d_7Visitor9visit_seqINtNtCs7jq4FGjB44s_18serde_ipld_dagcbor2de8AccessorNtNtNtCshVKh6t4RGJQ_7cbor4ii4core5utils11SliceReaderEE0Cs85eSTLP80nv_9amt_tests
FNDA:0,_RNCNvMs3_NtCskFmwyrQRmFP_12fvm_ipld_amt4nodeINtB7_13CollapsedNodeNtNtCsaV0kQbjOix3_17fvm_ipld_encoding5bytes7BytesDeE6expands_0Cs85eSTLP80nv_9amt_tests
FNDA:1431,_RINvMs4_NtCskFmwyrQRmFP_12fvm_ipld_amt4nodeINtB6_4NodeNtNtCsaV0kQbjOix3_17fvm_ipld_encoding5bytes7BytesDeE14for_each_whileRINtNtCslbkBntY5hAO_19fvm_ipld_blockstore8tracking18TrackingBlockstoreRNtNtB22_6memory16MemoryBlockstoreENCINvMs_NtB8_3amtINtB3L_3AmtBQ_B1W_E8for_eachNCNvCs85eSTLP80nv_9amt_testss_8for_eachs0_0E0EB4q_
FNDA:0,_RNCINvMs4_NtCskFmwyrQRmFP_12fvm_ipld_amt4nodeINtB8_4NodeNtNtCsc0YPw4IdecV_5alloc6string6StringE3getRINtNtCslbkBntY5hAO_19fvm_ipld_blockstore8tracking18TrackingBlockstoreRNtNtB1F_6memory16MemoryBlockstoreEEs0_0Cs85eSTLP80nv_9amt_tests
FNDA:0,_RNCNvMs4_NtCskFmwyrQRmFP_12fvm_ipld_amt4nodeINtB7_4NodeNtNtCsc0YPw4IdecV_5alloc6string6StringE8is_empty0Cs85eSTLP80nv_9amt_tests
FNDA:0,_RNCINvMs4_NtCskFmwyrQRmFP_12fvm_ipld_amt4nodeINtB8_4NodeNtNtCsaV0kQbjOix3_17fvm_ipld_encoding5bytes7BytesDeE14for_each_whileRINtNtCslbkBntY5hAO_19fvm_ipld_blockstore8tracking18TrackingBlockstoreRNtNtB24_6memory16MemoryBlockstoreENCINvMs_NtBa_3amtINtB3N_3AmtBS_B1Y_E8for_eachNCNvCs85eSTLP80nv_9amt_testss_8for_each0E0E0B4s_
FNDA:0,_RNCNCINvMs4_NtCskFmwyrQRmFP_12fvm_ipld_amt4nodeINtBa_4NodeNtNtCsaV0kQbjOix3_17fvm_ipld_encoding5bytes7BytesDeE14for_each_whileRINtNtCslbkBntY5hAO_19fvm_ipld_blockstore8tracking18TrackingBlockstoreRNtNtB26_6memory16MemoryBlockstoreENCINvMs_NtBc_3amtINtB3P_3AmtBU_B20_E8for_eachNCNvCs85eSTLP80nv_9amt_testss_8for_each0E0E00B4u_
FNDA:13521,_RNCINvMs4_NtCskFmwyrQRmFP_12fvm_ipld_amt4nodeINtB8_4NodeNtNtCsaV0kQbjOix3_17fvm_ipld_encoding5bytes7BytesDeE3getRINtNtCslbkBntY5hAO_19fvm_ipld_blockstore8tracking18TrackingBlockstoreRNtNtB1S_6memory16MemoryBlockstoreEE0Cs85eSTLP80nv_9amt_tests
FNDA:248,_RNCNvMs4_NtCskFmwyrQRmFP_12fvm_ipld_amt4nodeINtB7_4NodeNtNtCsaV0kQbjOix3_17fvm_ipld_encoding5bytes7BytesDeE8is_empty0Cs85eSTLP80nv_9amt_tests
FNDA:0,_RNCNCINvMs4_NtCskFmwyrQRmFP_12fvm_ipld_amt4nodeINtBa_4NodeNtNtCsaV0kQbjOix3_17fvm_ipld_encoding5bytes7BytesDeE18for_each_while_mutRINtNtCslbkBntY5hAO_19fvm_ipld_blockstore8tracking18TrackingBlockstoreRNtNtB2a_6memory16MemoryBlockstoreENCINvMs_NtBc_3amtINtB3T_3AmtBU_B24_E12for_each_mutNCNvCs85eSTLP80nv_9amt_testss_15for_each_mutate0E0E00B4D_
FNDA:2165,_RNvXs1_NtCskFmwyrQRmFP_12fvm_ipld_amt4nodeINtB5_4LinkNtNtCsaV0kQbjOix3_17fvm_ipld_encoding5bytes7BytesDeEINtNtCslBoGNiFC398_4core7convert4FromINtNtCs1EPKmBb5iMg_3cid3cid3CidKj40_EE4fromCs85eSTLP80nv_9amt_tests
FNDA:0,_RNCINvMs4_NtCskFmwyrQRmFP_12fvm_ipld_amt4nodeINtB8_4NodeNtNtCsaV0kQbjOix3_17fvm_ipld_encoding5bytes7BytesDeE3setRINtNtCslbkBntY5hAO_19fvm_ipld_blockstore8tracking18TrackingBlockstoreRNtNtB1S_6memory16MemoryBlockstoreEE0Cs85eSTLP80nv_9amt_tests
FNDA:12,_RINvMs4_NtCskFmwyrQRmFP_12fvm_ipld_amt4nodeINtB6_4NodeNtNtCsaV0kQbjOix3_17fvm_ipld_encoding5bytes7BytesDeE18for_each_while_mutRINtNtCslbkBntY5hAO_19fvm_ipld_blockstore8tracking18TrackingBlockstoreRNtNtB26_6memory16MemoryBlockstoreENCINvMs_NtB8_3amtINtB3P_3AmtBQ_B20_E12for_each_mutNCNvCs85eSTLP80nv_9amt_testss_15for_each_mutate0E0EB4z_
FNDA:0,_RNCNvMs3_NtCskFmwyrQRmFP_12fvm_ipld_amt4nodeINtB7_13CollapsedNodeNtNtCsaV0kQbjOix3_17fvm_ipld_encoding5bytes7BytesDeE6expand0Cs85eSTLP80nv_9amt_tests
FNDA:2,_RNCNvMs4_NtCskFmwyrQRmFP_12fvm_ipld_amt4nodeINtB7_4NodeNtNtCsc0YPw4IdecV_5alloc6string6StringE8is_emptys_0Cs85eSTLP80nv_9amt_tests
FNDA:0,_RINvXNvNtCskFmwyrQRmFP_12fvm_ipld_amt4nodes_1__INtB5_13CollapsedNodeNtNtCsc0YPw4IdecV_5alloc6string6StringENtNtCsj3WkLEH4Ge0_5serde2de11Deserialize11deserializeQINtNtCs7jq4FGjB44s_18serde_ipld_dagcbor2de12DeserializerNtNtNtCshVKh6t4RGJQ_7cbor4ii4core5utils11SliceReaderEECs85eSTLP80nv_9amt_tests
FNDA:2172,_RINvXNvXNvXNvNtCskFmwyrQRmFP_12fvm_ipld_amt4nodes_1__INtBb_13CollapsedNodepENtNtCsj3WkLEH4Ge0_5serde2de11Deserialize11deserializeINtB6_9___VisitorpENtB1e_7Visitor9visit_seqINtB3_17___DeserializeWithNtNtCsaV0kQbjOix3_17fvm_ipld_encoding5bytes7BytesDeEB1c_11deserializeQINtNtCs7jq4FGjB44s_18serde_ipld_dagcbor2de12DeserializerNtNtNtCshVKh6t4RGJQ_7cbor4ii4core5utils11SliceReaderEECs85eSTLP80nv_9amt_tests
FNDA:2208,_RINvXs2_NtCskFmwyrQRmFP_12fvm_ipld_amt4nodeINtB6_4NodeNtNtCsaV0kQbjOix3_17fvm_ipld_encoding5bytes7BytesDeENtNtCsj3WkLEH4Ge0_5serde3ser9Serialize9serializeQINtNtCs7jq4FGjB44s_18serde_ipld_dagcbor3ser10SerializerNtNtNtCshVKh6t4RGJQ_7cbor4ii4core5utils9BufWriterEECs85eSTLP80nv_9amt_tests
FNDA:0,_RNCINvMs4_NtCskFmwyrQRmFP_12fvm_ipld_amt4nodeINtB8_4NodeNtNtCsc0YPw4IdecV_5alloc6string6StringE3setRINtNtCslbkBntY5hAO_19fvm_ipld_blockstore8tracking18TrackingBlockstoreRNtNtB1F_6memory16MemoryBlockstoreEE0Cs85eSTLP80nv_9amt_tests
FNDA:2218,_RNvMs4_NtCskFmwyrQRmFP_12fvm_ipld_amt4nodeINtB5_4NodeNtNtCsaV0kQbjOix3_17fvm_ipld_encoding5bytes7BytesDeE5emptyCs85eSTLP80nv_9amt_tests
FNDA:2,_RNvMs4_NtCskFmwyrQRmFP_12fvm_ipld_amt4nodeINtB5_4NodeNtNtCsc0YPw4IdecV_5alloc6string6StringE8set_leafCs85eSTLP80nv_9amt_tests
FNDA:53676,_RNCINvMs4_NtCskFmwyrQRmFP_12fvm_ipld_amt4nodeINtB8_4NodeNtNtCsaV0kQbjOix3_17fvm_ipld_encoding5bytes7BytesDeE3getRINtNtCslbkBntY5hAO_19fvm_ipld_blockstore8tracking18TrackingBlockstoreRNtNtB1S_6memory16MemoryBlockstoreEEs_0Cs85eSTLP80nv_9amt_tests
FNDA:2172,_RINvXNvNtCskFmwyrQRmFP_12fvm_ipld_amt4nodes_1__INtB5_13CollapsedNodeNtNtCsaV0kQbjOix3_17fvm_ipld_encoding5bytes7BytesDeENtNtCsj3WkLEH4Ge0_5serde2de11Deserialize11deserializeQINtNtCs7jq4FGjB44s_18serde_ipld_dagcbor2de12DeserializerNtNtNtCshVKh6t4RGJQ_7cbor4ii4core5utils11SliceReaderEECs85eSTLP80nv_9amt_tests
FNDA:0,_RINvXNvXNvXNvNtCskFmwyrQRmFP_12fvm_ipld_amt4nodes_1__INtBb_13CollapsedNodepENtNtCsj3WkLEH4Ge0_5serde2de11Deserialize11deserializeINtB6_9___VisitorpENtB1e_7Visitor9visit_seqINtB3_17___DeserializeWithNtNtCsc0YPw4IdecV_5alloc6string6StringEB1c_11deserializeQINtNtCs7jq4FGjB44s_18serde_ipld_dagcbor2de12DeserializerNtNtNtCshVKh6t4RGJQ_7cbor4ii4core5utils11SliceReaderEECs85eSTLP80nv_9amt_tests
FNDA:1431,_RINvMs4_NtCskFmwyrQRmFP_12fvm_ipld_amt4nodeINtB6_4NodeNtNtCsaV0kQbjOix3_17fvm_ipld_encoding5bytes7BytesDeE14for_each_whileRINtNtCslbkBntY5hAO_19fvm_ipld_blockstore8tracking18TrackingBlockstoreRNtNtB22_6memory16MemoryBlockstoreENCINvMs_NtB8_3amtINtB3L_3AmtBQ_B1W_E8for_eachNCNvCs85eSTLP80nv_9amt_testss_8for_each0E0EB4q_
FNDA:16,_RINvMs4_NtCskFmwyrQRmFP_12fvm_ipld_amt4nodeINtB6_4NodeNtNtCsaV0kQbjOix3_17fvm_ipld_encoding5bytes7BytesDeE6deleteRINtNtCslbkBntY5hAO_19fvm_ipld_blockstore8tracking18TrackingBlockstoreRNtNtB1T_6memory16MemoryBlockstoreEECs85eSTLP80nv_9amt_tests
FNDA:4,_RNCINvMs4_NtCskFmwyrQRmFP_12fvm_ipld_amt4nodeINtB8_4NodeNtNtCsc0YPw4IdecV_5alloc6string6StringE3getRINtNtCslbkBntY5hAO_19fvm_ipld_blockstore8tracking18TrackingBlockstoreRNtNtB1F_6memory16MemoryBlockstoreEE0Cs85eSTLP80nv_9amt_tests
FNDA:61,_RNvMs4_NtCskFmwyrQRmFP_12fvm_ipld_amt4nodeINtB5_4NodeNtNtCsaV0kQbjOix3_17fvm_ipld_encoding5bytes7BytesDeE8is_emptyCs85eSTLP80nv_9amt_tests
FNDA:1430,_RNCINvMs4_NtCskFmwyrQRmFP_12fvm_ipld_amt4nodeINtB8_4NodeNtNtCsaV0kQbjOix3_17fvm_ipld_encoding5bytes7BytesDeE14for_each_whileRINtNtCslbkBntY5hAO_19fvm_ipld_blockstore8tracking18TrackingBlockstoreRNtNtB24_6memory16MemoryBlockstoreENCINvMs_NtBa_3amtINtB3N_3AmtBS_B1Y_E8for_eachNCNvCs85eSTLP80nv_9amt_testss_8for_eachs_0E0E0B4s_
FNDA:0,_RNCNvMs3_NtCskFmwyrQRmFP_12fvm_ipld_amt4nodeINtB7_13CollapsedNodeNtNtCsc0YPw4IdecV_5alloc6string6StringE6expands_0Cs85eSTLP80nv_9amt_tests
FNDA:309,_RINvMs4_NtCskFmwyrQRmFP_12fvm_ipld_amt4nodeINtB6_4NodeNtNtCsaV0kQbjOix3_17fvm_ipld_encoding5bytes7BytesDeE5flushRINtNtCslbkBntY5hAO_19fvm_ipld_blockstore8tracking18TrackingBlockstoreRNtNtB1S_6memory16MemoryBlockstoreEECs85eSTLP80nv_9amt_tests
FNDA:3,_RINvMs4_NtCskFmwyrQRmFP_12fvm_ipld_amt4nodeINtB6_4NodeNtNtCsc0YPw4IdecV_5alloc6string6StringE3setRINtNtCslbkBntY5hAO_19fvm_ipld_blockstore8tracking18TrackingBlockstoreRNtNtB1D_6memory16MemoryBlockstoreEECs85eSTLP80nv_9amt_tests
FNDA:2172,_RNvMs3_NtCskFmwyrQRmFP_12fvm_ipld_amt4nodeINtB5_13CollapsedNodeNtNtCsaV0kQbjOix3_17fvm_ipld_encoding5bytes7BytesDeE6expandCs85eSTLP80nv_9amt_tests
FNDA:0,_RNvXs1_NtCskFmwyrQRmFP_12fvm_ipld_amt4nodeINtB5_4LinkNtNtCsc0YPw4IdecV_5alloc6string6StringEINtNtCslBoGNiFC398_4core7convert4FromINtNtCs1EPKmBb5iMg_3cid3cid3CidKj40_EE4fromCs85eSTLP80nv_9amt_tests
FNDA:0,_RNCNCINvMs4_NtCskFmwyrQRmFP_12fvm_ipld_amt4nodeINtBa_4NodeNtNtCsaV0kQbjOix3_17fvm_ipld_encoding5bytes7BytesDeE6deleteRINtNtCslbkBntY5hAO_19fvm_ipld_blockstore8tracking18TrackingBlockstoreRNtNtB1X_6memory16MemoryBlockstoreEE00Cs85eSTLP80nv_9amt_tests
FNDA:0,_RNvXININtCskFmwyrQRmFP_12fvm_ipld_amt4nodesa_0pEINtB5_4NodepENtNtCslBoGNiFC398_4core3fmt5Debug3fmtB7_
FNDA:0,_RNCNCINvMs4_NtCskFmwyrQRmFP_12fvm_ipld_amt4nodeINtBa_4NodepE3getpEs0_00Bc_
FNDA:0,_RINvXININtCskFmwyrQRmFP_12fvm_ipld_amt4node0pEINtB6_4LinkpENtNtCsj3WkLEH4Ge0_5serde2de11Deserialize11deserializepEB8_
FNDA:0,_RNvXININvXNvNtCskFmwyrQRmFP_12fvm_ipld_amt4nodes_1__INtBa_13CollapsedNodepENtNtCsj3WkLEH4Ge0_5serde2de11Deserialize11deserialize0pEINtB5_9___VisitorpENtB1d_7Visitor9expectingBc_
FNDA:0,_RNCNCINvMs4_NtCskFmwyrQRmFP_12fvm_ipld_amt4nodeINtBa_4NodepE14for_each_whileppE00Bc_
FNDA:0,_RINvXININvXNvNtCskFmwyrQRmFP_12fvm_ipld_amt4node1__INtBb_13CollapsedNodepENtNtCsj3WkLEH4Ge0_5serde3ser9Serialize9serialize0pEINtB6_15___SerializeWithpEB1a_9serializepEBd_
FNDA:0,_RINvMs4_NtCskFmwyrQRmFP_12fvm_ipld_amt4nodeINtB6_4NodepE3getpEB8_
FNDA:0,_RINvMs4_NtCskFmwyrQRmFP_12fvm_ipld_amt4nodeINtB6_4NodepE5flushpEB8_
FNDA:0,_RINvXININtCskFmwyrQRmFP_12fvm_ipld_amt4nodes2_0pEINtB6_4NodepENtNtCsj3WkLEH4Ge0_5serde3ser9Serialize9serializepEB8_
FNDA:0,_RNCNvMs4_NtCskFmwyrQRmFP_12fvm_ipld_amt4nodeINtB7_4NodepE8is_emptys_0B9_
FNDA:0,_RNvXININtCskFmwyrQRmFP_12fvm_ipld_amt4nodes_0pEINtB5_4LinkpENtNtCslBoGNiFC398_4core3cmp9PartialEq2eqB7_
FNDA:0,_RNvMs4_NtCskFmwyrQRmFP_12fvm_ipld_amt4nodeINtB5_4NodepE12can_collapseB7_
FNDA:0,_RNCINvMs4_NtCskFmwyrQRmFP_12fvm_ipld_amt4nodeINtB8_4NodepE14for_each_whileppE0Ba_
FNDA:0,_RINvXININvXNvXNvNtCskFmwyrQRmFP_12fvm_ipld_amt4nodes_1__INtBe_13CollapsedNodepENtNtCsj3WkLEH4Ge0_5serde2de11Deserialize11deserializeINtB9_9___VisitorpENtB1h_7Visitor9visit_seq0pEINtB6_17___DeserializeWithpEB1f_11deserializepEBg_
FNDA:0,_RNCINvMs4_NtCskFmwyrQRmFP_12fvm_ipld_amt4nodeINtB8_4NodepE3getpEs0_0Ba_
FNDA:0,_RNCNvMs4_NtCskFmwyrQRmFP_12fvm_ipld_amt4nodeINtB7_4NodepE12can_collapse0B9_
FNDA:0,_RNCNvMs4_NtCskFmwyrQRmFP_12fvm_ipld_amt4nodeINtB7_4NodepE12can_collapses_0B9_
FNDA:0,_RINvXININvNtCskFmwyrQRmFP_12fvm_ipld_amt4node1__0pEINtB8_13CollapsedNodepENtNtCsj3WkLEH4Ge0_5serde3ser9Serialize9serializepEBa_
FNDA:0,_RINvMs4_NtCskFmwyrQRmFP_12fvm_ipld_amt4nodeINtB6_4NodepE3setpEB8_
FNDA:0,_RNCINvMs4_NtCskFmwyrQRmFP_12fvm_ipld_amt4nodeINtB8_4NodepE3getpEs_0Ba_
FNDA:0,_RINvXININvXNvNtCskFmwyrQRmFP_12fvm_ipld_amt4nodes_1__INtBb_13CollapsedNodepENtNtCsj3WkLEH4Ge0_5serde2de11Deserialize11deserialize0pEINtB6_9___VisitorpENtB1e_7Visitor9visit_seqpEBd_
FNDA:0,_RNvXININtCskFmwyrQRmFP_12fvm_ipld_amt4nodes5_0pEINtB5_4LinkpENtNtCslBoGNiFC398_4core3fmt5Debug3fmtB7_
FNDA:0,_RNvXININtCskFmwyrQRmFP_12fvm_ipld_amt4nodes1_0pEINtB5_4LinkpEINtNtCslBoGNiFC398_4core7convert4FromINtNtCs1EPKmBb5iMg_3cid3cid3CidKj40_EE4fromB7_
FNDA:0,_RINvMs4_NtCskFmwyrQRmFP_12fvm_ipld_amt4nodeINtB6_4NodepE14for_each_whileppEB8_
FNDA:0,_RNvMs3_NtCskFmwyrQRmFP_12fvm_ipld_amt4nodeINtB5_13CollapsedNodepE6expandB7_
FNDA:0,_RNvMs4_NtCskFmwyrQRmFP_12fvm_ipld_amt4nodeINtB5_4NodepE8is_emptyB7_
FNDA:0,_RNvXININtCskFmwyrQRmFP_12fvm_ipld_amt4nodes7_0pEINtB5_4NodepENtNtCslBoGNiFC398_4core3cmp9PartialEq2neB7_
FNDA:0,_RNCINvXININvXNvNtCskFmwyrQRmFP_12fvm_ipld_amt4nodes_1__INtBd_13CollapsedNodepENtNtCsj3WkLEH4Ge0_5serde2de11Deserialize11deserialize0pEINtB8_9___VisitorpENtB1g_7Visitor9visit_seqpE0Bf_
FNDA:0,_RINvMs4_NtCskFmwyrQRmFP_12fvm_ipld_amt4nodeINtB6_4NodepE18for_each_while_mutppEB8_
FNDA:0,_RNCNvMs3_NtCskFmwyrQRmFP_12fvm_ipld_amt4nodeINtB7_13CollapsedNodepE6expands_0B9_
FNDA:0,_RNCINvMs4_NtCskFmwyrQRmFP_12fvm_ipld_amt4nodeINtB8_4NodepE3getpE0Ba_
FNDA:0,_RNvMs4_NtCskFmwyrQRmFP_12fvm_ipld_amt4nodeINtB5_4NodepE8set_leafB7_
FNDA:0,_RNvXININtCskFmwyrQRmFP_12fvm_ipld_amt4nodes7_0pEINtB5_4NodepENtNtCslBoGNiFC398_4core3cmp9PartialEq2eqB7_
FNDA:0,_RNCNvMs4_NtCskFmwyrQRmFP_12fvm_ipld_amt4nodeINtB7_4NodepE8is_empty0B9_
FNDA:0,_RINvXININvNtCskFmwyrQRmFP_12fvm_ipld_amt4nodes_1__0pEINtB8_13CollapsedNodepENtNtCsj3WkLEH4Ge0_5serde2de11Deserialize11deserializepEBa_
FNDA:0,_RNCNCINvMs4_NtCskFmwyrQRmFP_12fvm_ipld_amt4nodeINtBa_4NodepE18for_each_while_mutppE00Bc_
FNDA:0,_RNCNCINvMs4_NtCskFmwyrQRmFP_12fvm_ipld_amt4nodeINtBa_4NodepE6deletepE00Bc_
FNDA:0,_RINvMs4_NtCskFmwyrQRmFP_12fvm_ipld_amt4nodeINtB6_4NodepE6deletepEB8_
FNDA:0,_RNCNCNvMs4_NtCskFmwyrQRmFP_12fvm_ipld_amt4nodeINtB9_4NodepE12can_collapses_00Bb_
FNDA:0,_RNvMs4_NtCskFmwyrQRmFP_12fvm_ipld_amt4nodeINtB5_4NodepE5emptyB7_
FNDA:0,_RNCINvMs4_NtCskFmwyrQRmFP_12fvm_ipld_amt4nodeINtB8_4NodepE3setpE0Ba_
FNDA:0,_RNCNvMs3_NtCskFmwyrQRmFP_12fvm_ipld_amt4nodeINtB7_13CollapsedNodepE6expand0B9_
FNDA:0,_RNCINvMs4_NtCskFmwyrQRmFP_12fvm_ipld_amt4nodeINtB8_4NodepE18for_each_while_mutppE0Ba_
FNDA:0,_RNCINvMs4_NtCskFmwyrQRmFP_12fvm_ipld_amt4nodeINtB8_4NodepE6deletepE0Ba_
FNDA:0,_RNCINvMs4_NtCs3qq3JIeCcaM_12fvm_ipld_amt4nodeINtB8_4NodepE3setpE0Ba_
FNDA:0,_RINvMs4_NtCs3qq3JIeCcaM_12fvm_ipld_amt4nodeINtB6_4NodepE3setpEB8_
FNDA:0,_RNvMs4_NtCs3qq3JIeCcaM_12fvm_ipld_amt4nodeINtB5_4NodepE5emptyB7_
FNDA:0,_RINvXININtCs3qq3JIeCcaM_12fvm_ipld_amt4node0pEINtB6_4LinkpENtNtCsj3WkLEH4Ge0_5serde2de11Deserialize11deserializepEB8_
FNDA:0,_RINvMs4_NtCs3qq3JIeCcaM_12fvm_ipld_amt4nodeINtB6_4NodepE14for_each_whileppEB8_
FNDA:0,_RINvXININvXNvNtCs3qq3JIeCcaM_12fvm_ipld_amt4node1__INtBb_13CollapsedNodepENtNtCsj3WkLEH4Ge0_5serde3ser9Serialize9serialize0pEINtB6_15___SerializeWithpEB1a_9serializepEBd_
FNDA:0,_RNCNvMs4_NtCs3qq3JIeCcaM_12fvm_ipld_amt4nodeINtB7_4NodepE12can_collapses_0B9_
FNDA:0,_RINvMs4_NtCs3qq3JIeCcaM_12fvm_ipld_amt4nodeINtB6_4NodepE6deletepEB8_
FNDA:0,_RNvMs4_NtCs3qq3JIeCcaM_12fvm_ipld_amt4nodeINtB5_4NodepE8is_emptyB7_
FNDA:0,_RNCNCINvMs4_NtCs3qq3JIeCcaM_12fvm_ipld_amt4nodeINtBa_4NodepE18for_each_while_mutppE00Bc_
FNDA:0,_RNCINvMs4_NtCs3qq3JIeCcaM_12fvm_ipld_amt4nodeINtB8_4NodepE3getpEs_0Ba_
FNDA:0,_RNvMs4_NtCs3qq3JIeCcaM_12fvm_ipld_amt4nodeINtB5_4NodepE12can_collapseB7_
FNDA:0,_RNvXININtCs3qq3JIeCcaM_12fvm_ipld_amt4nodes7_0pEINtB5_4NodepENtNtCslBoGNiFC398_4core3cmp9PartialEq2neB7_
FNDA:0,_RNvMs4_NtCs3qq3JIeCcaM_12fvm_ipld_amt4nodeINtB5_4NodepE8set_leafB7_
FNDA:0,_RNCINvMs4_NtCs3qq3JIeCcaM_12fvm_ipld_amt4nodeINtB8_4NodepE18for_each_while_mutppE0Ba_
FNDA:0,_RINvMs4_NtCs3qq3JIeCcaM_12fvm_ipld_amt4nodeINtB6_4NodepE3getpEB8_
FNDA:0,_RNCNvMs4_NtCs3qq3JIeCcaM_12fvm_ipld_amt4nodeINtB7_4NodepE8is_empty0B9_
FNDA:0,_RNvXININvXNvNtCs3qq3JIeCcaM_12fvm_ipld_amt4nodes_1__INtBa_13CollapsedNodepENtNtCsj3WkLEH4Ge0_5serde2de11Deserialize11deserialize0pEINtB5_9___VisitorpENtB1d_7Visitor9expectingBc_
FNDA:0,_RINvXININvNtCs3qq3JIeCcaM_12fvm_ipld_amt4node1__0pEINtB8_13CollapsedNodepENtNtCsj3WkLEH4Ge0_5serde3ser9Serialize9serializepEBa_
FNDA:0,_RNCINvMs4_NtCs3qq3JIeCcaM_12fvm_ipld_amt4nodeINtB8_4NodepE3getpE0Ba_
FNDA:0,_RNCNvMs4_NtCs3qq3JIeCcaM_12fvm_ipld_amt4nodeINtB7_4NodepE12can_collapse0B9_
FNDA:0,_RNCNCINvMs4_NtCs3qq3JIeCcaM_12fvm_ipld_amt4nodeINtBa_4NodepE14for_each_whileppE00Bc_
FNDA:0,_RNCNCNvMs4_NtCs3qq3JIeCcaM_12fvm_ipld_amt4nodeINtB9_4NodepE12can_collapses_00Bb_
FNDA:0,_RNCINvMs4_NtCs3qq3JIeCcaM_12fvm_ipld_amt4nodeINtB8_4NodepE14for_each_whileppE0Ba_
FNDA:0,_RNCNCINvMs4_NtCs3qq3JIeCcaM_12fvm_ipld_amt4nodeINtBa_4NodepE6deletepE00Bc_
FNDA:0,_RINvMs4_NtCs3qq3JIeCcaM_12fvm_ipld_amt4nodeINtB6_4NodepE5flushpEB8_
FNDA:0,_RNCINvMs4_NtCs3qq3JIeCcaM_12fvm_ipld_amt4nodeINtB8_4NodepE3getpEs0_0Ba_
FNDA:0,_RNCNCINvMs4_NtCs3qq3JIeCcaM_12fvm_ipld_amt4nodeINtBa_4NodepE3getpEs0_00Bc_
FNDA:0,_RNCINvMs4_NtCs3qq3JIeCcaM_12fvm_ipld_amt4nodeINtB8_4NodepE6deletepE0Ba_
FNDA:0,_RINvMs4_NtCs3qq3JIeCcaM_12fvm_ipld_amt4nodeINtB6_4NodepE18for_each_while_mutppEB8_
FNDA:0,_RNCNvMs4_NtCs3qq3JIeCcaM_12fvm_ipld_amt4nodeINtB7_4NodepE8is_emptys_0B9_
FNDA:1,_RINvXNvNtCs3qq3JIeCcaM_12fvm_ipld_amt4nodes_1__INtB5_13CollapsedNodehENtNtCsj3WkLEH4Ge0_5serde2de11Deserialize11deserializeQINtNtCs7jq4FGjB44s_18serde_ipld_dagcbor2de12DeserializerNtNtNtCshVKh6t4RGJQ_7cbor4ii4core5utils11SliceReaderEEB7_
FNDA:0,_RNCNvMs3_NtCs3qq3JIeCcaM_12fvm_ipld_amt4nodeINtB7_13CollapsedNodehE6expands_0B9_
FNDA:1,_RNvXs7_NtCs3qq3JIeCcaM_12fvm_ipld_amt4nodeINtB5_4NodehENtNtCslBoGNiFC398_4core3cmp9PartialEq2eqB7_
FNDA:1,_RINvXNvNtCs3qq3JIeCcaM_12fvm_ipld_amt4nodes_1__INtB5_13CollapsedNodeNtNtCsc0YPw4IdecV_5alloc6string6StringENtNtCsj3WkLEH4Ge0_5serde2de11Deserialize11deserializeQINtNtCs7jq4FGjB44s_18serde_ipld_dagcbor2de12DeserializerNtNtNtCshVKh6t4RGJQ_7cbor4ii4core5utils11SliceReaderEEB7_
FNDA:0,_RNvXs_NtCs3qq3JIeCcaM_12fvm_ipld_amt4nodeINtB4_4LinkNtNtCsc0YPw4IdecV_5alloc6string6StringENtNtCslBoGNiFC398_4core3cmp9PartialEq2eqB6_
FNDA:1,_RINvXs2_NtCs3qq3JIeCcaM_12fvm_ipld_amt4nodeINtB6_4NodehENtNtCsj3WkLEH4Ge0_5serde3ser9Serialize9serializeQINtNtCs7jq4FGjB44s_18serde_ipld_dagcbor3ser10SerializerNtNtNtCshVKh6t4RGJQ_7cbor4ii4core5utils9BufWriterEEB8_
FNDA:1,_RNvMs3_NtCs3qq3JIeCcaM_12fvm_ipld_amt4nodeINtB5_13CollapsedNodeNtNtCsc0YPw4IdecV_5alloc6string6StringE6expandB7_
FNDA:0,_RNvXs5_NtCs3qq3JIeCcaM_12fvm_ipld_amt4nodeINtB5_4LinkhENtNtCslBoGNiFC398_4core3fmt5Debug3fmtB7_
FNDA:0,_RNCNvMs3_NtCs3qq3JIeCcaM_12fvm_ipld_amt4nodeINtB7_13CollapsedNodeNtNtCsc0YPw4IdecV_5alloc6string6StringE6expand0B9_
FNDA:0,_RNvXsa_NtCs3qq3JIeCcaM_12fvm_ipld_amt4nodeINtB5_4NodeNtNtCsc0YPw4IdecV_5alloc6string6StringENtNtCslBoGNiFC398_4core3fmt5Debug3fmtB7_
FNDA:1,_RINvXs2_NtCs3qq3JIeCcaM_12fvm_ipld_amt4nodeINtB6_4NodeNtNtCsc0YPw4IdecV_5alloc6string6StringENtNtCsj3WkLEH4Ge0_5serde3ser9Serialize9serializeQINtNtCs7jq4FGjB44s_18serde_ipld_dagcbor3ser10SerializerNtNtNtCshVKh6t4RGJQ_7cbor4ii4core5utils9BufWriterEEB8_
FNDA:1,_RNvXs7_NtCs3qq3JIeCcaM_12fvm_ipld_amt4nodeINtB5_4NodeNtNtCsc0YPw4IdecV_5alloc6string6StringENtNtCslBoGNiFC398_4core3cmp9PartialEq2eqB7_
FNDA:0,_RNvXs1_NtCs3qq3JIeCcaM_12fvm_ipld_amt4nodeINtB5_4LinkhEINtNtCslBoGNiFC398_4core7convert4FromINtNtCs1EPKmBb5iMg_3cid3cid3CidKj40_EE4fromB7_
FNDA:0,_RINvXNvXNvNtCs3qq3JIeCcaM_12fvm_ipld_amt4nodes_1__INtB8_13CollapsedNodepENtNtCsj3WkLEH4Ge0_5serde2de11Deserialize11deserializeINtB3_9___VisitorNtNtCsc0YPw4IdecV_5alloc6string6StringENtB1b_7Visitor9visit_seqINtNtCs7jq4FGjB44s_18serde_ipld_dagcbor2de8AccessorNtNtNtCshVKh6t4RGJQ_7cbor4ii4core5utils11SliceReaderEEBa_
FNDA:1,_RNCINvXNvXNvNtCs3qq3JIeCcaM_12fvm_ipld_amt4nodes_1__INtBa_13CollapsedNodepENtNtCsj3WkLEH4Ge0_5serde2de11Deserialize11deserializeINtB5_9___VisitorhENtB1d_7Visitor9visit_seqINtNtCs7jq4FGjB44s_18serde_ipld_dagcbor2de8AccessorNtNtNtCshVKh6t4RGJQ_7cbor4ii4core5utils11SliceReaderEE0Bc_
FNDA:1,_RNvMs3_NtCs3qq3JIeCcaM_12fvm_ipld_amt4nodeINtB5_13CollapsedNodehE6expandB7_
FNDA:0,_RNvXsa_NtCs3qq3JIeCcaM_12fvm_ipld_amt4nodeINtB5_4NodehENtNtCslBoGNiFC398_4core3fmt5Debug3fmtB7_
FNDA:0,_RNCNvMs3_NtCs3qq3JIeCcaM_12fvm_ipld_amt4nodeINtB7_13CollapsedNodeNtNtCsc0YPw4IdecV_5alloc6string6StringE6expands_0B9_
FNDA:0,_RNvXs1_NtCs3qq3JIeCcaM_12fvm_ipld_amt4nodeINtB5_4LinkNtNtCsc0YPw4IdecV_5alloc6string6StringEINtNtCslBoGNiFC398_4core7convert4FromINtNtCs1EPKmBb5iMg_3cid3cid3CidKj40_EE4fromB7_
FNDA:1,_RINvXNvXNvXNvNtCs3qq3JIeCcaM_12fvm_ipld_amt4nodes_1__INtBb_13CollapsedNodepENtNtCsj3WkLEH4Ge0_5serde2de11Deserialize11deserializeINtB6_9___VisitorpENtB1e_7Visitor9visit_seqINtB3_17___DeserializeWithhEB1c_11deserializeQINtNtCs7jq4FGjB44s_18serde_ipld_dagcbor2de12DeserializerNtNtNtCshVKh6t4RGJQ_7cbor4ii4core5utils11SliceReaderEEBd_
FNDA:0,_RINvXNvXNvNtCs3qq3JIeCcaM_12fvm_ipld_amt4nodes_1__INtB8_13CollapsedNodepENtNtCsj3WkLEH4Ge0_5serde2de11Deserialize11deserializeINtB3_9___VisitorhENtB1b_7Visitor9visit_seqINtNtCs7jq4FGjB44s_18serde_ipld_dagcbor2de8AccessorNtNtNtCshVKh6t4RGJQ_7cbor4ii4core5utils11SliceReaderEEBa_
FNDA:0,_RNCNvMs3_NtCs3qq3JIeCcaM_12fvm_ipld_amt4nodeINtB7_13CollapsedNodehE6expand0B9_
FNDA:1,_RINvXNvXNvXNvNtCs3qq3JIeCcaM_12fvm_ipld_amt4nodes_1__INtBb_13CollapsedNodepENtNtCsj3WkLEH4Ge0_5serde2de11Deserialize11deserializeINtB6_9___VisitorpENtB1e_7Visitor9visit_seqINtB3_17___DeserializeWithNtNtCsc0YPw4IdecV_5alloc6string6StringEB1c_11deserializeQINtNtCs7jq4FGjB44s_18serde_ipld_dagcbor2de12DeserializerNtNtNtCshVKh6t4RGJQ_7cbor4ii4core5utils11SliceReaderEEBd_
FNDA:1,_RNCINvXNvXNvNtCs3qq3JIeCcaM_12fvm_ipld_amt4nodes_1__INtBa_13CollapsedNodepENtNtCsj3WkLEH4Ge0_5serde2de11Deserialize11deserializeINtB5_9___VisitorNtNtCsc0YPw4IdecV_5alloc6string6StringENtB1d_7Visitor9visit_seqINtNtCs7jq4FGjB44s_18serde_ipld_dagcbor2de8AccessorNtNtNtCshVKh6t4RGJQ_7cbor4ii4core5utils11SliceReaderEE0Bc_
FNDA:0,_RNvXs_NtCs3qq3JIeCcaM_12fvm_ipld_amt4nodeINtB4_4LinkhENtNtCslBoGNiFC398_4core3cmp9PartialEq2eqB6_
FNDA:0,_RNvXs5_NtCs3qq3JIeCcaM_12fvm_ipld_amt4nodeINtB5_4LinkNtNtCsc0YPw4IdecV_5alloc6string6StringENtNtCslBoGNiFC398_4core3fmt5Debug3fmtB7_
FNDA:1,_RNCNvNtNtCs3qq3JIeCcaM_12fvm_ipld_amt4node5tests24serialize_node_symmetric0B7_
FNDA:1,_RNvNtNtCs3qq3JIeCcaM_12fvm_ipld_amt4node5testss_24serialize_node_symmetric
FNF:40
FNH:28
DA:19,0
DA:34,0
DA:35,0
DA:36,0
DA:37,0
DA:38,0
DA:39,0
DA:40,0
DA:41,0
DA:42,0
DA:43,0
DA:51,0
DA:52,0
DA:53,0
DA:54,0
DA:56,0
DA:62,2165
DA:63,2165
DA:64,2165
DA:65,2165
DA:66,2165
DA:67,2165
DA:71,2
DA:84,2210
DA:85,2210
DA:86,2210
DA:87,2210
DA:88,2210
DA:89,1903
DA:90,1903
DA:91,1903
DA:92,15110
DA:93,15110
DA:94,8289
DA:95,8289
DA:96,8289
DA:98,1911
DA:100,307
DA:101,307
DA:102,307
DA:103,2472
DA:104,2472
DA:105,2202
DA:106,2202
DA:107,2202
DA:108,2202
DA:109,0
DA:111,270
DA:113,309
DA:116,2220
DA:119,2174
DA:123,2174
DA:124,2174
DA:125,2174
DA:126,0
DA:127,2174
DA:128,2174
DA:129,2174
DA:130,0
DA:131,0
DA:132,0
DA:133,0
DA:134,0
DA:135,0
DA:136,2174
DA:137,2174
DA:138,2174
DA:139,284
DA:140,284
DA:141,2272
DA:142,2272
DA:143,2165
DA:144,0
DA:145,2165
DA:146,107
DA:148,284
DA:149,0
DA:150,284
DA:151,284
DA:153,1890
DA:154,1890
DA:155,15106
DA:156,15106
DA:157,8346
DA:158,0
DA:159,8346
DA:160,6760
DA:162,1890
DA:163,0
DA:164,1890
DA:165,1890
DA:167,2174
DA:176,2219
DA:177,2219
DA:178,2219
DA:179,2219
DA:180,2219
DA:184,2215
DA:185,2200
DA:187,2200
DA:189,2200
DA:192,2200
DA:195,2200
DA:196,2200
DA:197,2200
DA:198,2200
DA:199,2200
DA:200,0
DA:202,1906
DA:204,2215
DA:205,2215
DA:209,8
DA:210,8
DA:211,3
DA:212,3
DA:213,3
DA:214,2
DA:215,2
DA:216,14
DA:217,2
DA:219,5
DA:221,8
DA:224,62
DA:225,62
DA:226,248
DA:227,95
DA:229,62
DA:232,66944
DA:233,66944
DA:234,66944
DA:235,66944
DA:236,66944
DA:237,66944
DA:238,66944
DA:239,66944
DA:240,13538
DA:241,53406
DA:242,53406
DA:243,53406
DA:244,53406
DA:245,53680
DA:246,20206
DA:247,20206
DA:248,721
DA:249,721
DA:250,721
DA:251,721
DA:252,20206
DA:254,20206
DA:255,20206
DA:256,20206
DA:257,20206
DA:258,20206
DA:259,20206
DA:261,33465
DA:262,33465
DA:263,33465
DA:264,33465
DA:265,33465
DA:266,33465
DA:267,0
DA:271,67209
DA:274,34346
DA:275,34346
DA:276,34346
DA:277,34346
DA:278,34346
DA:279,34346
DA:280,34346
DA:281,34346
DA:282,34346
DA:283,8394
DA:284,25952
DA:285,25952
DA:286,25952
DA:287,25952
DA:288,25952
DA:289,25952
DA:291,25952
DA:292,25952
DA:293,0
DA:294,0
DA:295,0
DA:296,0
DA:299,0
DA:300,0
DA:301,0
DA:302,0
DA:305,0
DA:308,1676
DA:309,1382
DA:310,1382
DA:311,1382
DA:312,294
DA:313,294
DA:314,294
DA:316,1676
DA:318,24229
DA:319,24229
DA:323,2191
DA:324,2191
DA:326,0
DA:329,0
DA:331,34814
DA:333,8380
DA:334,8380
DA:335,8382
DA:336,8382
DA:337,8382
DA:338,8382
DA:339,8382
DA:340,8382
DA:342,18446744073709551614
DA:344,8382
DA:347,20
DA:348,20
DA:349,20
DA:350,20
DA:351,20
DA:352,20
DA:353,20
DA:354,20
DA:355,10
DA:356,10
DA:357,10
DA:358,10
DA:359,10
DA:360,10
DA:361,10
DA:362,10
DA:363,9
DA:364,9
DA:365,9
DA:366,9
DA:367,9
DA:368,9
DA:369,9
DA:370,9
DA:372,2
DA:373,7
DA:374,7
DA:376,0
DA:377,7
DA:378,7
DA:379,7
DA:380,7
DA:382,1
DA:383,1
DA:384,1
DA:385,1
DA:386,1
DA:387,1
DA:388,1
DA:389,1
DA:390,1
DA:391,1
DA:392,1
DA:393,1
DA:394,1
DA:395,1
DA:396,1
DA:397,1
DA:399,0
DA:400,1
DA:401,1
DA:402,1
DA:403,1
DA:405,1
DA:408,0
DA:412,0
DA:415,8
DA:416,8
DA:417,8
DA:420,20
DA:422,4293
DA:423,4293
DA:424,4293
DA:425,4293
DA:426,4293
DA:427,4293
DA:428,4293
DA:429,4293
DA:430,4293
DA:431,4293
DA:432,4293
DA:433,4293
DA:434,4293
DA:435,3750
DA:436,30000
DA:437,30000
DA:438,9999
DA:440,9999
DA:441,0
DA:442,9999
DA:443,20001
DA:446,543
DA:447,4344
DA:448,4344
DA:449,4290
DA:450,4290
DA:451,1430
DA:452,1430
DA:454,2860
DA:455,2860
DA:456,1430
DA:457,1430
DA:458,1430
DA:459,1430
DA:460,2860
DA:462,2860
DA:466,4290
DA:467,0
DA:468,4290
DA:469,54
DA:474,4293
DA:475,4293
DA:481,12
DA:482,12
DA:483,12
DA:484,12
DA:485,12
DA:486,12
DA:487,12
DA:488,12
DA:489,12
DA:490,12
DA:491,12
DA:492,12
DA:493,12
DA:494,12
DA:495,12
DA:496,6
DA:497,48
DA:498,48
DA:499,6
DA:501,6
DA:502,6
DA:503,6
DA:504,6
DA:505,0
DA:506,6
DA:507,42
DA:510,6
DA:511,48
DA:512,48
DA:513,11
DA:514,11
DA:515,0
DA:516,0
DA:518,11
DA:519,11
DA:520,11
DA:521,11
DA:522,11
DA:523,11
DA:524,11
DA:525,11
DA:527,11
DA:528,11
DA:530,11
DA:531,5
DA:532,5
DA:533,5
DA:534,5
DA:535,5
DA:536,6
DA:538,11
DA:542,11
DA:543,11
DA:544,11
DA:545,0
DA:546,11
DA:547,37
DA:552,12
DA:553,12
DA:562,1
DA:563,1
DA:564,1
DA:565,1
DA:566,1
DA:567,1
DA:568,1
DA:569,1
DA:570,1
DA:571,1
DA:572,1
DA:573,1
BRF:0
BRH:0
LF:413
LH:348
end_of_record
SF:/home/mriise/Projects/ref-fvm/ipld/amt/src/root.rs
FN:20,_RNvMNtCskFmwyrQRmFP_12fvm_ipld_amt4rootINtB2_4RootNtNtCsc0YPw4IdecV_5alloc6string6StringE3newCs85eSTLP80nv_9amt_tests
FN:36,_RINvXs_NtCskFmwyrQRmFP_12fvm_ipld_amt4rootINtB5_4RootNtNtCsaV0kQbjOix3_17fvm_ipld_encoding5bytes7BytesDeENtNtCsj3WkLEH4Ge0_5serde3ser9Serialize9serializeQINtNtCs7jq4FGjB44s_18serde_ipld_dagcbor3ser10SerializerNtNtNtCshVKh6t4RGJQ_7cbor4ii4core5utils9BufWriterEECs85eSTLP80nv_9amt_tests
FN:20,_RNvMNtCskFmwyrQRmFP_12fvm_ipld_amt4rootINtB2_4RootNtNtCsaV0kQbjOix3_17fvm_ipld_encoding5bytes7BytesDeE3newCs85eSTLP80nv_9amt_tests
FN:48,_RINvXs0_NtCskFmwyrQRmFP_12fvm_ipld_amt4rootINtB6_4RootNtNtCsaV0kQbjOix3_17fvm_ipld_encoding5bytes7BytesDeENtNtCsj3WkLEH4Ge0_5serde2de11Deserialize11deserializeQINtNtCs7jq4FGjB44s_18serde_ipld_dagcbor2de12DeserializerNtNtNtCshVKh6t4RGJQ_7cbor4ii4core5utils11SliceReaderEECs85eSTLP80nv_9amt_tests
FN:36,_RINvXININtCskFmwyrQRmFP_12fvm_ipld_amt4roots_0pEINtB6_4RootpENtNtCsj3WkLEH4Ge0_5serde3ser9Serialize9serializepEB8_
FN:11,_RNvXININtCskFmwyrQRmFP_12fvm_ipld_amt4roots3_0pEINtB5_4RootpENtNtCslBoGNiFC398_4core3fmt5Debug3fmtB7_
FN:11,_RNvXININtCskFmwyrQRmFP_12fvm_ipld_amt4roots2_0pEINtB5_4RootpENtNtCslBoGNiFC398_4core3cmp9PartialEq2eqB7_
FN:20,_RNvMNtCskFmwyrQRmFP_12fvm_ipld_amt4rootINtB2_4RootpE3newB4_
FN:48,_RINvXININtCskFmwyrQRmFP_12fvm_ipld_amt4roots0_0pEINtB6_4RootpENtNtCsj3WkLEH4Ge0_5serde2de11Deserialize11deserializepEB8_
FN:11,_RNvXININtCskFmwyrQRmFP_12fvm_ipld_amt4roots2_0pEINtB5_4RootpENtNtCslBoGNiFC398_4core3cmp9PartialEq2neB7_
FN:11,_RNvXININtCs3qq3JIeCcaM_12fvm_ipld_amt4roots2_0pEINtB5_4RootpENtNtCslBoGNiFC398_4core3cmp9PartialEq2neB7_
FN:11,_RNvXs2_NtCs3qq3JIeCcaM_12fvm_ipld_amt4rootINtB5_4RootNtNtCsc0YPw4IdecV_5alloc6string6StringENtNtCslBoGNiFC398_4core3cmp9PartialEq2eqB7_
FN:11,_RNvXs3_NtCs3qq3JIeCcaM_12fvm_ipld_amt4rootINtB5_4RootNtNtCsc0YPw4IdecV_5alloc6string6StringENtNtCslBoGNiFC398_4core3fmt5Debug3fmtB7_
FN:48,_RINvXs0_NtCs3qq3JIeCcaM_12fvm_ipld_amt4rootINtB6_4RootNtNtCsc0YPw4IdecV_5alloc6string6StringENtNtCsj3WkLEH4Ge0_5serde2de11Deserialize11deserializeQINtNtCs7jq4FGjB44s_18serde_ipld_dagcbor2de12DeserializerNtNtNtCshVKh6t4RGJQ_7cbor4ii4core5utils11SliceReaderEEB8_
FN:36,_RINvXs_NtCs3qq3JIeCcaM_12fvm_ipld_amt4rootINtB5_4RootNtNtCsc0YPw4IdecV_5alloc6string6StringENtNtCsj3WkLEH4Ge0_5serde3ser9Serialize9serializeQINtNtCs7jq4FGjB44s_18serde_ipld_dagcbor3ser10SerializerNtNtNtCshVKh6t4RGJQ_7cbor4ii4core5utils9BufWriterEEB7_
FN:20,_RNvMNtCs3qq3JIeCcaM_12fvm_ipld_amt4rootINtB2_4RootNtNtCsc0YPw4IdecV_5alloc6string6StringE3newB4_
FN:69,_RNCNvNtNtCs3qq3JIeCcaM_12fvm_ipld_amt4root5tests19serialize_symmetric0B7_
FN:70,_RNvNtNtCs3qq3JIeCcaM_12fvm_ipld_amt4root5testss_19serialize_symmetric
FNDA:1,_RNvMNtCskFmwyrQRmFP_12fvm_ipld_amt4rootINtB2_4RootNtNtCsc0YPw4IdecV_5alloc6string6StringE3newCs85eSTLP80nv_9amt_tests
FNDA:16,_RINvXs_NtCskFmwyrQRmFP_12fvm_ipld_amt4rootINtB5_4RootNtNtCsaV0kQbjOix3_17fvm_ipld_encoding5bytes7BytesDeENtNtCsj3WkLEH4Ge0_5serde3ser9Serialize9serializeQINtNtCs7jq4FGjB44s_18serde_ipld_dagcbor3ser10SerializerNtNtNtCshVKh6t4RGJQ_7cbor4ii4core5utils9BufWriterEECs85eSTLP80nv_9amt_tests
FNDA:10,_RNvMNtCskFmwyrQRmFP_12fvm_ipld_amt4rootINtB2_4RootNtNtCsaV0kQbjOix3_17fvm_ipld_encoding5bytes7BytesDeE3newCs85eSTLP80nv_9amt_tests
FNDA:8,_RINvXs0_NtCskFmwyrQRmFP_12fvm_ipld_amt4rootINtB6_4RootNtNtCsaV0kQbjOix3_17fvm_ipld_encoding5bytes7BytesDeENtNtCsj3WkLEH4Ge0_5serde2de11Deserialize11deserializeQINtNtCs7jq4FGjB44s_18serde_ipld_dagcbor2de12DeserializerNtNtNtCshVKh6t4RGJQ_7cbor4ii4core5utils11SliceReaderEECs85eSTLP80nv_9amt_tests
FNDA:0,_RINvXININtCskFmwyrQRmFP_12fvm_ipld_amt4roots_0pEINtB6_4RootpENtNtCsj3WkLEH4Ge0_5serde3ser9Serialize9serializepEB8_
FNDA:0,_RNvXININtCskFmwyrQRmFP_12fvm_ipld_amt4roots3_0pEINtB5_4RootpENtNtCslBoGNiFC398_4core3fmt5Debug3fmtB7_
FNDA:0,_RNvXININtCskFmwyrQRmFP_12fvm_ipld_amt4roots2_0pEINtB5_4RootpENtNtCslBoGNiFC398_4core3cmp9PartialEq2eqB7_
FNDA:0,_RNvMNtCskFmwyrQRmFP_12fvm_ipld_amt4rootINtB2_4RootpE3newB4_
FNDA:0,_RINvXININtCskFmwyrQRmFP_12fvm_ipld_amt4roots0_0pEINtB6_4RootpENtNtCsj3WkLEH4Ge0_5serde2de11Deserialize11deserializepEB8_
FNDA:0,_RNvXININtCskFmwyrQRmFP_12fvm_ipld_amt4roots2_0pEINtB5_4RootpENtNtCslBoGNiFC398_4core3cmp9PartialEq2neB7_
FNDA:0,_RNvXININtCs3qq3JIeCcaM_12fvm_ipld_amt4roots2_0pEINtB5_4RootpENtNtCslBoGNiFC398_4core3cmp9PartialEq2neB7_
FNDA:1,_RNvXs2_NtCs3qq3JIeCcaM_12fvm_ipld_amt4rootINtB5_4RootNtNtCsc0YPw4IdecV_5alloc6string6StringENtNtCslBoGNiFC398_4core3cmp9PartialEq2eqB7_
FNDA:0,_RNvXs3_NtCs3qq3JIeCcaM_12fvm_ipld_amt4rootINtB5_4RootNtNtCsc0YPw4IdecV_5alloc6string6StringENtNtCslBoGNiFC398_4core3fmt5Debug3fmtB7_
FNDA:1,_RINvXs0_NtCs3qq3JIeCcaM_12fvm_ipld_amt4rootINtB6_4RootNtNtCsc0YPw4IdecV_5alloc6string6StringENtNtCsj3WkLEH4Ge0_5serde2de11Deserialize11deserializeQINtNtCs7jq4FGjB44s_18serde_ipld_dagcbor2de12DeserializerNtNtNtCshVKh6t4RGJQ_7cbor4ii4core5utils11SliceReaderEEB8_
FNDA:1,_RINvXs_NtCs3qq3JIeCcaM_12fvm_ipld_amt4rootINtB5_4RootNtNtCsc0YPw4IdecV_5alloc6string6StringENtNtCsj3WkLEH4Ge0_5serde3ser9Serialize9serializeQINtNtCs7jq4FGjB44s_18serde_ipld_dagcbor3ser10SerializerNtNtNtCshVKh6t4RGJQ_7cbor4ii4core5utils9BufWriterEEB7_
FNDA:1,_RNvMNtCs3qq3JIeCcaM_12fvm_ipld_amt4rootINtB2_4RootNtNtCsc0YPw4IdecV_5alloc6string6StringE3newB4_
FNDA:1,_RNCNvNtNtCs3qq3JIeCcaM_12fvm_ipld_amt4root5tests19serialize_symmetric0B7_
FNDA:1,_RNvNtNtCs3qq3JIeCcaM_12fvm_ipld_amt4root5testss_19serialize_symmetric
FNF:7
FNH:6
DA:11,1
DA:20,12
DA:21,12
DA:22,12
DA:23,12
DA:24,12
DA:25,12
DA:26,12
DA:27,12
DA:28,12
DA:29,12
DA:36,17
DA:37,17
DA:38,17
DA:39,17
DA:40,17
DA:41,17
DA:48,9
DA:49,9
DA:50,9
DA:51,9
DA:52,9
DA:53,9
DA:55,9
DA:56,9
DA:57,9
DA:58,9
DA:60,9
DA:69,1
DA:70,1
DA:71,1
DA:72,1
DA:73,1
DA:74,1
DA:75,1
DA:76,1
DA:77,1
BRF:0
BRH:0
LF:38
LH:37
end_of_record
SF:/home/mriise/Projects/ref-fvm/ipld/amt/src/value_mut.rs
FN:14,_RNvMNtCskFmwyrQRmFP_12fvm_ipld_amt9value_mutINtB2_8ValueMutNtNtCsaV0kQbjOix3_17fvm_ipld_encoding5bytes7BytesDeE3newCs85eSTLP80nv_9amt_tests
FN:42,_RNvXs0_NtCskFmwyrQRmFP_12fvm_ipld_amt9value_mutINtB5_8ValueMutNtNtCsaV0kQbjOix3_17fvm_ipld_encoding5bytes7BytesDeENtNtNtCslBoGNiFC398_4core3ops5deref8DerefMut9deref_mutCs85eSTLP80nv_9amt_tests
FN:36,_RNvXs_NtCskFmwyrQRmFP_12fvm_ipld_amt9value_mutINtB4_8ValueMutNtNtCsaV0kQbjOix3_17fvm_ipld_encoding5bytes7BytesDeENtNtNtCslBoGNiFC398_4core3ops5deref5Deref5derefCs85eSTLP80nv_9amt_tests
FN:21,_RNvMNtCskFmwyrQRmFP_12fvm_ipld_amt9value_mutINtB2_8ValueMutNtNtCsaV0kQbjOix3_17fvm_ipld_encoding5bytes7BytesDeE13value_changedCs85eSTLP80nv_9amt_tests
FN:21,_RNvMNtCskFmwyrQRmFP_12fvm_ipld_amt9value_mutINtB2_8ValueMutpE13value_changedB4_
FN:14,_RNvMNtCskFmwyrQRmFP_12fvm_ipld_amt9value_mutINtB2_8ValueMutpE3newB4_
FN:42,_RNvXININtCskFmwyrQRmFP_12fvm_ipld_amt9value_muts0_0pEINtB5_8ValueMutpENtNtNtCslBoGNiFC398_4core3ops5deref8DerefMut9deref_mutB7_
FN:36,_RNvXININtCskFmwyrQRmFP_12fvm_ipld_amt9value_muts_0pEINtB5_8ValueMutpENtNtNtCslBoGNiFC398_4core3ops5deref5Deref5derefB7_
FN:36,_RNvXININtCs3qq3JIeCcaM_12fvm_ipld_amt9value_muts_0pEINtB5_8ValueMutpENtNtNtCslBoGNiFC398_4core3ops5deref5Deref5derefB7_
FN:21,_RNvMNtCs3qq3JIeCcaM_12fvm_ipld_amt9value_mutINtB2_8ValueMutpE13value_changedB4_
FN:42,_RNvXININtCs3qq3JIeCcaM_12fvm_ipld_amt9value_muts0_0pEINtB5_8ValueMutpENtNtNtCslBoGNiFC398_4core3ops5deref8DerefMut9deref_mutB7_
FN:14,_RNvMNtCs3qq3JIeCcaM_12fvm_ipld_amt9value_mutINtB2_8ValueMutpE3newB4_
FNDA:6,_RNvMNtCskFmwyrQRmFP_12fvm_ipld_amt9value_mutINtB2_8ValueMutNtNtCsaV0kQbjOix3_17fvm_ipld_encoding5bytes7BytesDeE3newCs85eSTLP80nv_9amt_tests
FNDA:2,_RNvXs0_NtCskFmwyrQRmFP_12fvm_ipld_amt9value_mutINtB5_8ValueMutNtNtCsaV0kQbjOix3_17fvm_ipld_encoding5bytes7BytesDeENtNtNtCslBoGNiFC398_4core3ops5deref8DerefMut9deref_mutCs85eSTLP80nv_9amt_tests
FNDA:2,_RNvXs_NtCskFmwyrQRmFP_12fvm_ipld_amt9value_mutINtB4_8ValueMutNtNtCsaV0kQbjOix3_17fvm_ipld_encoding5bytes7BytesDeENtNtNtCslBoGNiFC398_4core3ops5deref5Deref5derefCs85eSTLP80nv_9amt_tests
FNDA:6,_RNvMNtCskFmwyrQRmFP_12fvm_ipld_amt9value_mutINtB2_8ValueMutNtNtCsaV0kQbjOix3_17fvm_ipld_encoding5bytes7BytesDeE13value_changedCs85eSTLP80nv_9amt_tests
FNDA:0,_RNvMNtCskFmwyrQRmFP_12fvm_ipld_amt9value_mutINtB2_8ValueMutpE13value_changedB4_
FNDA:0,_RNvMNtCskFmwyrQRmFP_12fvm_ipld_amt9value_mutINtB2_8ValueMutpE3newB4_
FNDA:0,_RNvXININtCskFmwyrQRmFP_12fvm_ipld_amt9value_muts0_0pEINtB5_8ValueMutpENtNtNtCslBoGNiFC398_4core3ops5deref8DerefMut9deref_mutB7_
FNDA:0,_RNvXININtCskFmwyrQRmFP_12fvm_ipld_amt9value_muts_0pEINtB5_8ValueMutpENtNtNtCslBoGNiFC398_4core3ops5deref5Deref5derefB7_
FNDA:0,_RNvXININtCs3qq3JIeCcaM_12fvm_ipld_amt9value_muts_0pEINtB5_8ValueMutpENtNtNtCslBoGNiFC398_4core3ops5deref5Deref5derefB7_
FNDA:0,_RNvMNtCs3qq3JIeCcaM_12fvm_ipld_amt9value_mutINtB2_8ValueMutpE13value_changedB4_
FNDA:0,_RNvXININtCs3qq3JIeCcaM_12fvm_ipld_amt9value_muts0_0pEINtB5_8ValueMutpENtNtNtCslBoGNiFC398_4core3ops5deref8DerefMut9deref_mutB7_
FNDA:0,_RNvMNtCs3qq3JIeCcaM_12fvm_ipld_amt9value_mutINtB2_8ValueMutpE3newB4_
FNF:4
FNH:4
DA:14,6
DA:15,6
DA:16,6
DA:17,6
DA:18,6
DA:19,6
DA:21,6
DA:22,6
DA:23,6
DA:36,2
DA:37,2
DA:38,2
DA:42,2
DA:43,2
DA:44,2
DA:45,2
BRF:0
BRH:0
LF:16
LH:16
end_of_record
SF:/home/mriise/Projects/ref-fvm/ipld/bitfield/src/iter/combine.rs
FN:86,_RNvXsf_NtNtCsldPOTaHGN6o_17fvm_ipld_bitfield4iter7combineNtB5_5UnionNtNtCslBoGNiFC398_4core7default7Default7defaultCs2aBE52K1g28_14bitfield_tests
FN:472,_RNvMsd_NtNtCsldPOTaHGN6o_17fvm_ipld_bitfield4iter7combineINtB5_9LookaheadINtB5_8__CombineINtB5_7CombineIB1q_INtB7_6RangesINtNtNtNtCslBoGNiFC398_4core4iter8adapters6cloned6ClonedINtNtNtB24_5slice4iter4IterINtNtNtB24_3ops5range5RangeyEEEEIB1J_INtNtNtB22_7sources7from_fn6FromFnNCINvB7_16ranges_from_bitsINtNtB20_6copied6CopiedINtNtNtNtCsc0YPw4IdecV_5alloc11collections5btree3set4IteryEEE0EENtB5_5UnionEB3M_NtB5_10DifferenceEB1p_B6e_EE4peekCs2aBE52K1g28_14bitfield_tests
FN:389,_RNCNvXs9_NtNtCsldPOTaHGN6o_17fvm_ipld_bitfield4iter7combineINtB7_8__CombineINtB7_7CombineIB1c_INtB9_6RangesINtNtNtNtCslBoGNiFC398_4core4iter8adapters6cloned6ClonedINtNtNtB1Q_5slice4iter4IterINtNtNtB1Q_3ops5range5RangeyEEEEIB1v_INtNtNtB1O_7sources7from_fn6FromFnNCINvB9_16ranges_from_bitsINtNtB1M_6copied6CopiedINtNtNtNtCsc0YPw4IdecV_5alloc11collections5btree3set4IteryEEE0EENtB7_5UnionEB3y_NtB7_10DifferenceEB1b_B60_ENtNtNtB1O_6traits8iterator8Iterator4next0Cs2aBE52K1g28_14bitfield_tests
FN:387,_RNvXs9_NtNtCsldPOTaHGN6o_17fvm_ipld_bitfield4iter7combineINtB5_8__CombineINtB5_7CombineIB1a_INtB7_6RangesINtNtNtNtCslBoGNiFC398_4core4iter8adapters6cloned6ClonedINtNtNtB1O_5slice4iter4IterINtNtNtB1O_3ops5range5RangeyEEEEIB1t_INtNtNtB1M_7sources7from_fn6FromFnNCINvB7_16ranges_from_bitsINtNtB1K_6copied6CopiedINtNtNtNtCsc0YPw4IdecV_5alloc11collections5btree3set4IteryEEE0EENtB5_5UnionEB3w_NtB5_10DifferenceEB19_B5Y_ENtNtNtB1M_6traits8iterator8Iterator4nextCs2aBE52K1g28_14bitfield_tests
FN:424,_RNvMsa_NtNtCsldPOTaHGN6o_17fvm_ipld_bitfield4iter7combineINtB5_5MergeINtB5_8__CombineINtB5_7CombineIB1m_INtB7_6RangesINtNtNtNtCslBoGNiFC398_4core4iter8adapters6cloned6ClonedINtNtNtB20_5slice4iter4IterINtNtNtB20_3ops5range5RangeyEEEEIB1F_INtNtNtB1Y_7sources7from_fn6FromFnNCINvB7_16ranges_from_bitsINtNtB1W_6copied6CopiedINtNtNtNtCsc0YPw4IdecV_5alloc11collections5btree3set4IteryEEE0EENtB5_5UnionEB3I_NtB5_10DifferenceEB1l_B6a_EE3newCs2aBE52K1g28_14bitfield_tests
FN:480,_RNvXse_NtNtCsldPOTaHGN6o_17fvm_ipld_bitfield4iter7combineINtB5_9LookaheadINtB5_8__CombineINtB5_7CombineIB1q_INtB7_6RangesINtNtNtNtCslBoGNiFC398_4core4iter8adapters6cloned6ClonedINtNtNtB24_5slice4iter4IterINtNtNtB24_3ops5range5RangeyEEEEIB1J_INtNtNtB22_7sources7from_fn6FromFnNCINvB7_16ranges_from_bitsINtNtB20_6copied6CopiedINtNtNtNtCsc0YPw4IdecV_5alloc11collections5btree3set4IteryEEE0EENtB5_5UnionEB3M_NtB5_10DifferenceEB1p_B6e_EENtNtNtB22_6traits8iterator8Iterator4nextCs2aBE52K1g28_14bitfield_tests
FN:353,_RNvMs8_NtNtCsldPOTaHGN6o_17fvm_ipld_bitfield4iter7combineINtB5_8__CombineINtB5_7CombineIB1a_INtB7_6RangesINtNtNtNtCslBoGNiFC398_4core4iter8adapters6cloned6ClonedINtNtNtB1O_5slice4iter4IterINtNtNtB1O_3ops5range5RangeyEEEEIB1t_INtNtNtB1M_7sources7from_fn6FromFnNCINvB7_16ranges_from_bitsINtNtB1K_6copied6CopiedINtNtNtNtCsc0YPw4IdecV_5alloc11collections5btree3set4IteryEEE0EENtB5_5UnionEB3w_NtB5_10DifferenceEB19_B5Y_E10next_rangeCs2aBE52K1g28_14bitfield_tests
FN:437,_RNvXsb_NtNtCsldPOTaHGN6o_17fvm_ipld_bitfield4iter7combineINtB5_5MergeINtB5_8__CombineINtB5_7CombineIB1m_INtB7_6RangesINtNtNtNtCslBoGNiFC398_4core4iter8adapters6cloned6ClonedINtNtNtB20_5slice4iter4IterINtNtNtB20_3ops5range5RangeyEEEEIB1F_INtNtNtB1Y_7sources7from_fn6FromFnNCINvB7_16ranges_from_bitsINtNtB1W_6copied6CopiedINtNtNtNtCsc0YPw4IdecV_5alloc11collections5btree3set4IteryEEE0EENtB5_5UnionEB3I_NtB5_10DifferenceEB1l_B6a_EENtNtNtB1Y_6traits8iterator8Iterator4nextCs2aBE52K1g28_14bitfield_tests
FN:389,_RNCNvXs9_NtNtCsldPOTaHGN6o_17fvm_ipld_bitfield4iter7combineINtB7_8__CombineINtB7_7CombineIB1c_INtB9_6RangesINtNtNtNtCslBoGNiFC398_4core4iter8adapters6cloned6ClonedINtNtNtB1Q_5slice4iter4IterINtNtNtB1Q_3ops5range5RangeyEEEEIB1v_INtNtNtB1O_7sources7from_fn6FromFnNCINvB9_16ranges_from_bitsINtNtB1M_6copied6CopiedINtNtNtNtCsc0YPw4IdecV_5alloc11collections5btree3set4IteryEEE0EENtB7_5UnionEB3y_NtB7_10DifferenceEB1b_B60_ENtNtNtB1O_6traits8iterator8Iterator4nexts_0Cs2aBE52K1g28_14bitfield_tests
FN:310,_RNvXs6_NtNtCsldPOTaHGN6o_17fvm_ipld_bitfield4iter7combineINtB5_7CombineIBU_IBU_INtB7_6RangesINtNtNtNtCslBoGNiFC398_4core4iter8adapters6cloned6ClonedINtNtNtB1B_5slice4iter4IterINtNtNtB1B_3ops5range5RangeyEEEEIB1g_INtNtNtB1z_7sources7from_fn6FromFnNCINvB7_16ranges_from_bitsINtNtB1x_6copied6CopiedINtNtNtNtCsc0YPw4IdecV_5alloc11collections5btree3set4IteryEEE0EENtB5_5UnionEB3j_NtB5_10DifferenceEB17_B5L_ENtNtNtB1z_6traits8iterator8Iterator4nextCs2aBE52K1g28_14bitfield_tests
FN:297,_RNvMs5_NtNtCsldPOTaHGN6o_17fvm_ipld_bitfield4iter7combineINtB5_7CombineIBU_IBU_INtB7_6RangesINtNtNtNtCslBoGNiFC398_4core4iter8adapters6cloned6ClonedINtNtNtB1B_5slice4iter4IterINtNtNtB1B_3ops5range5RangeyEEEEIB1g_INtNtNtB1z_7sources7from_fn6FromFnNCINvB7_16ranges_from_bitsINtNtB1x_6copied6CopiedINtNtNtNtCsc0YPw4IdecV_5alloc11collections5btree3set4IteryEEE0EENtB5_5UnionEB3j_NtB5_10DifferenceEB17_B5L_E3newCs2aBE52K1g28_14bitfield_tests
FN:342,_RNvMs8_NtNtCsldPOTaHGN6o_17fvm_ipld_bitfield4iter7combineINtB5_8__CombineINtB5_7CombineIB1a_INtB7_6RangesINtNtNtNtCslBoGNiFC398_4core4iter8adapters6cloned6ClonedINtNtNtB1O_5slice4iter4IterINtNtNtB1O_3ops5range5RangeyEEEEIB1t_INtNtNtB1M_7sources7from_fn6FromFnNCINvB7_16ranges_from_bitsINtNtB1K_6copied6CopiedINtNtNtNtCsc0YPw4IdecV_5alloc11collections5btree3set4IteryEEE0EENtB5_5UnionEB3w_NtB5_10DifferenceEB19_B5Y_E3newCs2aBE52K1g28_14bitfield_tests
FN:467,_RNvMsd_NtNtCsldPOTaHGN6o_17fvm_ipld_bitfield4iter7combineINtB5_9LookaheadINtB5_8__CombineINtB5_7CombineIB1q_INtB7_6RangesINtNtNtNtCslBoGNiFC398_4core4iter8adapters6cloned6ClonedINtNtNtB24_5slice4iter4IterINtNtNtB24_3ops5range5RangeyEEEEIB1J_INtNtNtB22_7sources7from_fn6FromFnNCINvB7_16ranges_from_bitsINtNtB20_6copied6CopiedINtNtNtNtCsc0YPw4IdecV_5alloc11collections5btree3set4IteryEEE0EENtB5_5UnionEB3M_NtB5_10DifferenceEB1p_B6e_EE3newCs2aBE52K1g28_14bitfield_tests
FN:472,_RNvMsd_NtNtCsldPOTaHGN6o_17fvm_ipld_bitfield4iter7combineINtB5_9LookaheadINtB5_8__CombineINtB5_7CombineIB1q_INtB7_6RangesINtNtNtNtCslBoGNiFC398_4core4iter8adapters6cloned6ClonedINtNtNtB24_5slice4iter4IterINtNtNtB24_3ops5range5RangeyEEEEIB1J_INtNtNtB22_7sources7from_fn6FromFnNCINvB7_16ranges_from_bitsINtNtB20_6copied6CopiedINtNtNtNtCsc0YPw4IdecV_5alloc11collections5btree3set4IteryEEE0EENtB5_5UnionEB3M_NtB5_10DifferenceEB1p_B6u_EE4peekB9_
FN:437,_RNvXsb_NtNtCsldPOTaHGN6o_17fvm_ipld_bitfield4iter7combineINtB5_5MergeINtB5_8__CombineINtB5_7CombineIB1m_INtB7_6RangesINtNtNtNtCslBoGNiFC398_4core4iter8adapters6cloned6ClonedINtNtNtB20_5slice4iter4IterINtNtNtB20_3ops5range5RangeyEEEEIB1F_INtNtNtB1Y_7sources7from_fn6FromFnNCINvB7_16ranges_from_bitsINtNtB1W_6copied6CopiedINtNtNtNtCsc0YPw4IdecV_5alloc11collections5btree3set4IteryEEE0EENtB5_5UnionEB3I_NtB5_10DifferenceEB1l_B6q_EENtNtNtB1Y_6traits8iterator8Iterator4nextB9_
FN:467,_RNvMsd_NtNtCsldPOTaHGN6o_17fvm_ipld_bitfield4iter7combineINtB5_9LookaheadINtB5_7CombineIB1a_INtB7_6RangesINtNtNtNtCslBoGNiFC398_4core4iter8adapters6cloned6ClonedINtNtNtB1O_5slice4iter4IterINtNtNtB1O_3ops5range5RangeyEEEEIB1t_INtNtNtB1M_7sources7from_fn6FromFnNCINvB7_16ranges_from_bitsINtNtB1K_6copied6CopiedINtNtNtNtCsc0YPw4IdecV_5alloc11collections5btree3set4IteryEEE0EENtB5_5UnionEB3w_NtB5_10DifferenceEE3newB9_
FN:389,_RNCNvXs9_NtNtCsldPOTaHGN6o_17fvm_ipld_bitfield4iter7combineINtB7_8__CombineINtB7_7CombineIB1c_INtB9_6RangesINtNtNtNtCslBoGNiFC398_4core4iter8adapters6cloned6ClonedINtNtNtB1Q_5slice4iter4IterINtNtNtB1Q_3ops5range5RangeyEEEEIB1v_INtNtNtB1O_7sources7from_fn6FromFnNCINvB9_16ranges_from_bitsINtNtB1M_6copied6CopiedINtNtNtNtCsc0YPw4IdecV_5alloc11collections5btree3set4IteryEEE0EENtB7_5UnionEB3y_NtB7_10DifferenceEB1b_B6g_ENtNtNtB1O_6traits8iterator8Iterator4next0Bb_
FN:480,_RNvXse_NtNtCsldPOTaHGN6o_17fvm_ipld_bitfield4iter7combineINtB5_9LookaheadINtB5_8__CombineINtB5_7CombineIB1q_INtB7_6RangesINtNtNtNtCslBoGNiFC398_4core4iter8adapters6cloned6ClonedINtNtNtB24_5slice4iter4IterINtNtNtB24_3ops5range5RangeyEEEEIB1J_INtNtNtB22_7sources7from_fn6FromFnNCINvB7_16ranges_from_bitsINtNtB20_6copied6CopiedINtNtNtNtCsc0YPw4IdecV_5alloc11collections5btree3set4IteryEEE0EENtB5_5UnionEB3M_NtB5_10DifferenceEB1p_NtB5_12IntersectionEENtNtNtB22_6traits8iterator8Iterator4nextB9_
FN:424,_RNvMsa_NtNtCsldPOTaHGN6o_17fvm_ipld_bitfield4iter7combineINtB5_5MergeINtB5_8__CombineINtB5_7CombineIB1m_INtB7_6RangesINtNtNtNtCslBoGNiFC398_4core4iter8adapters6cloned6ClonedINtNtNtB20_5slice4iter4IterINtNtNtB20_3ops5range5RangeyEEEEIB1F_INtNtNtB1Y_7sources7from_fn6FromFnNCINvB7_16ranges_from_bitsINtNtB1W_6copied6CopiedINtNtNtNtCsc0YPw4IdecV_5alloc11collections5btree3set4IteryEEE0EENtB5_5UnionEB3I_NtB5_10DifferenceEB1l_NtB5_19SymmetricDifferenceEE3newB9_
FN:424,_RNvMsa_NtNtCsldPOTaHGN6o_17fvm_ipld_bitfield4iter7combineINtB5_5MergeINtB5_8__CombineINtB5_7CombineIB1m_INtB7_6RangesINtNtNtNtCslBoGNiFC398_4core4iter8adapters6cloned6ClonedINtNtNtB20_5slice4iter4IterINtNtNtB20_3ops5range5RangeyEEEEIB1F_INtNtNtB1Y_7sources7from_fn6FromFnNCINvB7_16ranges_from_bitsINtNtB1W_6copied6CopiedINtNtNtNtCsc0YPw4IdecV_5alloc11collections5btree3set4IteryEEE0EENtB5_5UnionEB3I_NtB5_10DifferenceEB1l_NtB5_3CutEE3newB9_
FN:389,_RNCNvXs9_NtNtCsldPOTaHGN6o_17fvm_ipld_bitfield4iter7combineINtB7_8__CombineINtB9_6RangesINtNtNtNtCslBoGNiFC398_4core4iter8adapters6cloned6ClonedINtNtNtB1x_5slice4iter4IterINtNtNtB1x_3ops5range5RangeyEEEEIB1c_INtNtNtB1v_7sources7from_fn6FromFnNCINvB9_16ranges_from_bitsINtNtB1t_6copied6CopiedINtNtNtNtCsc0YPw4IdecV_5alloc11collections5btree3set4IteryEEE0EENtB7_5UnionENtNtNtB1v_6traits8iterator8Iterator4nexts_0Bb_
FN:480,_RNvXse_NtNtCsldPOTaHGN6o_17fvm_ipld_bitfield4iter7combineINtB5_9LookaheadINtB7_6RangesINtNtNtNtCslBoGNiFC398_4core4iter8adapters6cloned6ClonedINtNtNtB1v_5slice4iter4IterINtNtNtB1v_3ops5range5RangeyEEEEENtNtNtB1t_6traits8iterator8Iterator4nextB9_
FN:114,_RNvXNtNtCsldPOTaHGN6o_17fvm_ipld_bitfield4iter7combineNtB2_5UnionNtB2_10Combinator16advance_rhs_tail
FN:387,_RNvXs9_NtNtCsldPOTaHGN6o_17fvm_ipld_bitfield4iter7combineINtB5_8__CombineINtB5_7CombineIB1a_INtB7_6RangesINtNtNtNtCslBoGNiFC398_4core4iter8adapters6cloned6ClonedINtNtNtB1O_5slice4iter4IterINtNtNtB1O_3ops5range5RangeyEEEEIB1t_INtNtNtB1M_7sources7from_fn6FromFnNCINvB7_16ranges_from_bitsINtNtB1K_6copied6CopiedINtNtNtNtCsc0YPw4IdecV_5alloc11collections5btree3set4IteryEEE0EENtB5_5UnionEB3w_NtB5_10DifferenceEB19_B6e_ENtNtNtB1M_6traits8iterator8Iterator4nextB9_
FN:389,_RNCNvXs9_NtNtCsldPOTaHGN6o_17fvm_ipld_bitfield4iter7combineINtB7_8__CombineINtB7_7CombineIB1c_INtB9_6RangesINtNtNtNtCslBoGNiFC398_4core4iter8adapters6cloned6ClonedINtNtNtB1Q_5slice4iter4IterINtNtNtB1Q_3ops5range5RangeyEEEEIB1v_INtNtNtB1O_7sources7from_fn6FromFnNCINvB9_16ranges_from_bitsINtNtB1M_6copied6CopiedINtNtNtNtCsc0YPw4IdecV_5alloc11collections5btree3set4IteryEEE0EENtB7_5UnionEB3y_NtB7_10DifferenceEB1b_NtB7_19SymmetricDifferenceENtNtNtB1O_6traits8iterator8Iterator4next0Bb_
FN:138,_RNvXs_NtNtCsldPOTaHGN6o_17fvm_ipld_bitfield4iter7combineNtB4_12IntersectionNtB4_10Combinator16advance_lhs_tail
FN:472,_RNvMsd_NtNtCsldPOTaHGN6o_17fvm_ipld_bitfield4iter7combineINtB5_9LookaheadINtB5_7CombineIB1a_INtB7_6RangesINtNtNtNtCslBoGNiFC398_4core4iter8adapters6cloned6ClonedINtNtNtB1O_5slice4iter4IterINtNtNtB1O_3ops5range5RangeyEEEEIB1t_INtNtNtB1M_7sources7from_fn6FromFnNCINvB7_16ranges_from_bitsINtNtB1K_6copied6CopiedINtNtNtNtCsc0YPw4IdecV_5alloc11collections5btree3set4IteryEEE0EENtB5_5UnionEB3w_NtB5_10DifferenceEE4peekB9_
FN:201,_RNvMs1_NtNtCsldPOTaHGN6o_17fvm_ipld_bitfield4iter7combineNtB5_19SymmetricDifference7advance
FN:310,_RNvXs6_NtNtCsldPOTaHGN6o_17fvm_ipld_bitfield4iter7combineINtB5_7CombineIBU_INtB7_6RangesINtNtNtNtCslBoGNiFC398_4core4iter8adapters6cloned6ClonedINtNtNtB1x_5slice4iter4IterINtNtNtB1x_3ops5range5RangeyEEEEIB1c_INtNtNtB1v_7sources7from_fn6FromFnNCINvB7_16ranges_from_bitsINtNtB1t_6copied6CopiedINtNtNtNtCsc0YPw4IdecV_5alloc11collections5btree3set4IteryEEE0EENtB5_5UnionEB3f_NtB5_10DifferenceENtNtNtB1v_6traits8iterator8Iterator4nextB9_
FN:467,_RNvMsd_NtNtCsldPOTaHGN6o_17fvm_ipld_bitfield4iter7combineINtB5_9LookaheadINtB5_8__CombineINtB5_7CombineINtB7_6RangesINtNtNtNtCslBoGNiFC398_4core4iter8adapters6cloned6ClonedINtNtNtB1Z_5slice4iter4IterINtNtNtB1Z_3ops5range5RangeyEEEEIB1E_INtNtNtB1X_7sources7from_fn6FromFnNCINvB7_16ranges_from_bitsINtNtB1V_6copied6CopiedINtNtNtNtCsc0YPw4IdecV_5alloc11collections5btree3set4IteryEEE0EENtB5_5UnionEB3H_NtB5_10DifferenceEE3newB9_
FN:256,_RNvMs3_NtNtCsldPOTaHGN6o_17fvm_ipld_bitfield4iter7combineNtB5_3Cut6offset
FN:472,_RNvMsd_NtNtCsldPOTaHGN6o_17fvm_ipld_bitfield4iter7combineINtB5_9LookaheadINtB5_8__CombineINtB7_6RangesINtNtNtNtCslBoGNiFC398_4core4iter8adapters6cloned6ClonedINtNtNtB1L_5slice4iter4IterINtNtNtB1L_3ops5range5RangeyEEEEIB1q_INtNtNtB1J_7sources7from_fn6FromFnNCINvB7_16ranges_from_bitsINtNtB1H_6copied6CopiedINtNtNtNtCsc0YPw4IdecV_5alloc11collections5btree3set4IteryEEE0EENtB5_5UnionEE4peekB9_
FN:109,_RNvXNtNtCsldPOTaHGN6o_17fvm_ipld_bitfield4iter7combineNtB2_5UnionNtB2_10Combinator16advance_lhs_tail
FN:310,_RNvXs6_NtNtCsldPOTaHGN6o_17fvm_ipld_bitfield4iter7combineINtB5_7CombineIBU_IBU_INtB7_6RangesINtNtNtNtCslBoGNiFC398_4core4iter8adapters6cloned6ClonedINtNtNtB1B_5slice4iter4IterINtNtNtB1B_3ops5range5RangeyEEEEIB1g_INtNtNtB1z_7sources7from_fn6FromFnNCINvB7_16ranges_from_bitsINtNtB1x_6copied6CopiedINtNtNtNtCsc0YPw4IdecV_5alloc11collections5btree3set4IteryEEE0EENtB5_5UnionEB3j_NtB5_10DifferenceEB17_NtB5_19SymmetricDifferenceENtNtNtB1z_6traits8iterator8Iterator4nextB9_
FN:310,_RNvXs6_NtNtCsldPOTaHGN6o_17fvm_ipld_bitfield4iter7combineINtB5_7CombineIBU_IBU_INtB7_6RangesINtNtNtNtCslBoGNiFC398_4core4iter8adapters6cloned6ClonedINtNtNtB1B_5slice4iter4IterINtNtNtB1B_3ops5range5RangeyEEEEIB1g_INtNtNtB1z_7sources7from_fn6FromFnNCINvB7_16ranges_from_bitsINtNtB1x_6copied6CopiedINtNtNtNtCsc0YPw4IdecV_5alloc11collections5btree3set4IteryEEE0EENtB5_5UnionEB3j_NtB5_10DifferenceEB17_NtB5_3CutENtNtNtB1z_6traits8iterator8Iterator4nextB9_
FN:389,_RNCNvXs9_NtNtCsldPOTaHGN6o_17fvm_ipld_bitfield4iter7combineINtB7_8__CombineINtB7_7CombineIB1c_INtB9_6RangesINtNtNtNtCslBoGNiFC398_4core4iter8adapters6cloned6ClonedINtNtNtB1Q_5slice4iter4IterINtNtNtB1Q_3ops5range5RangeyEEEEIB1v_INtNtNtB1O_7sources7from_fn6FromFnNCINvB9_16ranges_from_bitsINtNtB1M_6copied6CopiedINtNtNtNtCsc0YPw4IdecV_5alloc11collections5btree3set4IteryEEE0EENtB7_5UnionEB3y_NtB7_10DifferenceEB1b_NtB7_3CutENtNtNtB1O_6traits8iterator8Iterator4nexts_0Bb_
FN:134,_RNvXs_NtNtCsldPOTaHGN6o_17fvm_ipld_bitfield4iter7combineNtB4_12IntersectionNtB4_10Combinator11advance_rhs
FN:353,_RNvMs8_NtNtCsldPOTaHGN6o_17fvm_ipld_bitfield4iter7combineINtB5_8__CombineINtB7_6RangesINtNtNtNtCslBoGNiFC398_4core4iter8adapters6cloned6ClonedINtNtNtB1v_5slice4iter4IterINtNtNtB1v_3ops5range5RangeyEEEEIB1a_INtNtNtB1t_7sources7from_fn6FromFnNCINvB7_16ranges_from_bitsINtNtB1r_6copied6CopiedINtNtNtNtCsc0YPw4IdecV_5alloc11collections5btree3set4IteryEEE0EENtB5_5UnionE10next_rangeB9_
FN:467,_RNvMsd_NtNtCsldPOTaHGN6o_17fvm_ipld_bitfield4iter7combineINtB5_9LookaheadINtB5_8__CombineINtB7_6RangesINtNtNtNtCslBoGNiFC398_4core4iter8adapters6cloned6ClonedINtNtNtB1L_5slice4iter4IterINtNtNtB1L_3ops5range5RangeyEEEEIB1q_INtNtNtB1J_7sources7from_fn6FromFnNCINvB7_16ranges_from_bitsINtNtB1H_6copied6CopiedINtNtNtNtCsc0YPw4IdecV_5alloc11collections5btree3set4IteryEEE0EENtB5_5UnionEE3newB9_
FN:472,_RNvMsd_NtNtCsldPOTaHGN6o_17fvm_ipld_bitfield4iter7combineINtB5_9LookaheadINtB5_8__CombineINtB5_7CombineINtB7_6RangesINtNtNtNtCslBoGNiFC398_4core4iter8adapters6cloned6ClonedINtNtNtB1Z_5slice4iter4IterINtNtNtB1Z_3ops5range5RangeyEEEEIB1E_INtNtNtB1X_7sources7from_fn6FromFnNCINvB7_16ranges_from_bitsINtNtB1V_6copied6CopiedINtNtNtNtCsc0YPw4IdecV_5alloc11collections5btree3set4IteryEEE0EENtB5_5UnionEB3H_NtB5_10DifferenceEE4peekB9_
FN:437,_RNvXsb_NtNtCsldPOTaHGN6o_17fvm_ipld_bitfield4iter7combineINtB5_5MergeINtB5_8__CombineINtB5_7CombineIB1m_INtB7_6RangesINtNtNtNtCslBoGNiFC398_4core4iter8adapters6cloned6ClonedINtNtNtB20_5slice4iter4IterINtNtNtB20_3ops5range5RangeyEEEEIB1F_INtNtNtB1Y_7sources7from_fn6FromFnNCINvB7_16ranges_from_bitsINtNtB1W_6copied6CopiedINtNtNtNtCsc0YPw4IdecV_5alloc11collections5btree3set4IteryEEE0EENtB5_5UnionEB3I_NtB5_10DifferenceEB1l_NtB5_19SymmetricDifferenceEENtNtNtB1Y_6traits8iterator8Iterator4nextB9_
